ccopy_reg
_reconstructor
p1
(cfeedparser
FeedParserDict
p2
c__builtin__
dict
p3
(dp4
S'feed'
p5
g1
(g2
g3
(dp6
S'subtitle'
p7
VThe Saturday Morning Breakfast Cereal Blog
p8
sS'links'
p9
(lp10
g1
(g2
g3
(dp11
S'href'
p12
Vhttp://www.smbc-comics.com
p13
sS'type'
p14
S'text/html'
p15
sS'rel'
p16
S'alternate'
p17
stRp18
ag1
(g2
g3
(dp19
S'href'
p20
Vhttp://feeds.feedburner.com/smbc-comics/PvLb
p21
sS'type'
p22
Vapplication/rss+xml
p23
sS'rel'
p24
Vself
p25
stRp26
ag1
(g2
g3
(dp27
S'href'
p28
Vhttp://pubsubhubbub.appspot.com/
p29
sg14
g15
sS'rel'
p30
Vhub
p31
stRp32
asS'language'
p33
Ven-us
p34
sS'title'
p35
VSaturday Morning Breakfast Cereal (updated daily)
p36
sS'feedburner_info'
p37
V
sS'subtitle_detail'
p38
g1
(g2
g3
(dp39
S'base'
p40
S'http://feeds.feedburner.com/smbc-comics/PvLb'
p41
sg14
S'text/html'
p42
sS'value'
p43
g8
sg33
NstRp44
sS'title_detail'
p45
g1
(g2
g3
(dp46
g40
S'http://feeds.feedburner.com/smbc-comics/PvLb'
p47
sg14
S'text/plain'
p48
sg43
g36
sg33
NstRp49
sS'link'
p50
g13
stRp51
sS'status'
p52
I200
sS'updated'
p53
ctime
struct_time
p54
((I2011
I2
I14
I11
I14
I59
I0
I45
I0
t(dtRp55
sS'version'
p56
S'rss20'
p57
sS'encoding'
p58
S'UTF-8'
p59
sS'bozo'
p60
I0
sS'canto_version'
p61
(I0
I7
I9
tp62
sS'canto_update'
p63
F1297684103.2480819
sS'headers'
p64
(dp65
S'x-xss-protection'
p66
S'1; mode=block'
p67
sS'x-content-type-options'
p68
S'nosniff'
p69
sS'expires'
p70
S'Mon, 14 Feb 2011 11:48:29 GMT'
p71
sS'server'
p72
S'GSE'
p73
sS'last-modified'
p74
S'Mon, 14 Feb 2011 11:14:59 GMT'
p75
sS'connection'
p76
S'close'
p77
sS'etag'
p78
S'P+VR0XYN0NlpFYaD9Gb0G+Pl3w0'
p79
sS'cache-control'
p80
S'private, max-age=0'
p81
sS'date'
p82
S'Mon, 14 Feb 2011 11:48:29 GMT'
p83
sS'content-type'
p84
S'text/xml; charset=UTF-8'
p85
ssS'etag'
p86
g79
sS'canto_state'
p87
(lp88
sg12
S'http://feeds.feedburner.com/smbc-comics/PvLb'
p89
sS'namespaces'
p90
(dp91
S''
Vhttp://www.w3.org/2005/Atom
p92
sS'feedburner'
p93
Vhttp://rssnamespace.org/feedburner/ext/1.0
p94
ssS'entries'
p95
(lp96
g1
(g2
g3
(dp97
S'summary_detail'
p98
g1
(g2
g3
(dp99
g40
S'http://feeds.feedburner.com/smbc-comics/PvLb'
p100
sg14
S'text/html'
p101
sg43
V<img src="http://www.smbc-comics.com/comics/20110214.gif" /><br />\u000a\u000a Wooh... let's hope this makes sense to anyone.<br />\u000a<br />\u000aIf not... NEW VIDEO DAY!<br />\u000a<br />\u000a\u000a<p><a href="http://feedads.g.doubleclick.net/~a/bLfExwjR4t5MhT2wkgvWy76QPf8/0/da"><img src="http://feedads.g.doubleclick.net/~a/bLfExwjR4t5MhT2wkgvWy76QPf8/0/di" border="0" ismap="true" /></a><br />\u000a<a href="http://feedads.g.doubleclick.net/~a/bLfExwjR4t5MhT2wkgvWy76QPf8/1/da"><img src="http://feedads.g.doubleclick.net/~a/bLfExwjR4t5MhT2wkgvWy76QPf8/1/di" border="0" ismap="true" /></a></p><img src="http://feeds.feedburner.com/~r/smbc-comics/PvLb/~4/AbANhWAueyQ" height="1" width="1" />
p102
sg33
NstRp103
sS'updated_parsed'
p104
g54
((I2011
I2
I14
I5
I0
I0
I0
I45
I0
t(dtRp105
sg9
(lp106
g1
(g2
g3
(dp107
g12
Vhttp://feedproxy.google.com/~r/smbc-comics/PvLb/~3/AbANhWAueyQ/index.php
p108
sg14
g15
sg16
g17
stRp109
asg35
VFebruary 14, 2011
p110
sS'feedburner_origlink'
p111
Vhttp://www.smbc-comics.com/index.php?db=comics&id=2155
p112
sg53
VMon, 14 Feb 2011 00:00:00 -0500
p113
sS'summary'
p114
g102
sS'title_detail'
p115
g1
(g2
g3
(dp116
g40
S'http://feeds.feedburner.com/smbc-comics/PvLb'
p117
sg14
S'text/plain'
p118
sg43
g110
sg33
NstRp119
sg50
g108
sg87
(lp120
VSaturday Morning Breakfast Cereal (updated daily)
p121
aV*
aS'read'
p122
asS'id'
p123
g108
stRp124
ag1
(g2
g3
(dp125
S'summary_detail'
p126
g1
(g2
g3
(dp127
g40
S'http://feeds.feedburner.com/smbc-comics/PvLb'
p128
sg14
S'text/html'
p129
sg43
V<img src="http://www.smbc-comics.com/comics/20110213.gif" /><br />\u000aWhee! Lots of cool stuff to announce coming soon.\u000a<p><a href="http://feedads.g.doubleclick.net/~a/AImbRfu2qwrwWIAhQy0USSdMmKI/0/da"><img src="http://feedads.g.doubleclick.net/~a/AImbRfu2qwrwWIAhQy0USSdMmKI/0/di" border="0" ismap="true" /></a><br />\u000a<a href="http://feedads.g.doubleclick.net/~a/AImbRfu2qwrwWIAhQy0USSdMmKI/1/da"><img src="http://feedads.g.doubleclick.net/~a/AImbRfu2qwrwWIAhQy0USSdMmKI/1/di" border="0" ismap="true" /></a></p><img src="http://feeds.feedburner.com/~r/smbc-comics/PvLb/~4/UE7QWBk_b6Y" height="1" width="1" />
p130
sg33
NstRp131
sg104
g54
((I2011
I2
I13
I5
I0
I0
I6
I44
I0
t(dtRp132
sg9
(lp133
g1
(g2
g3
(dp134
g12
Vhttp://feedproxy.google.com/~r/smbc-comics/PvLb/~3/UE7QWBk_b6Y/index.php
p135
sg14
g15
sg16
g17
stRp136
asg35
VFebruary 13, 2011
p137
sS'feedburner_origlink'
p138
Vhttp://www.smbc-comics.com/index.php?db=comics&id=2154
p139
sg53
VSun, 13 Feb 2011 00:00:00 -0500
p140
sg114
g130
sS'title_detail'
p141
g1
(g2
g3
(dp142
g40
S'http://feeds.feedburner.com/smbc-comics/PvLb'
p143
sg14
S'text/plain'
p144
sg43
g137
sg33
NstRp145
sg50
g135
sg87
(lp146
VSaturday Morning Breakfast Cereal (updated daily)
p147
aV*
aS'read'
p148
asg123
g135
stRp149
ag1
(g2
g3
(dp150
S'summary_detail'
p151
g1
(g2
g3
(dp152
g40
S'http://feeds.feedburner.com/smbc-comics/PvLb'
p153
sg14
S'text/html'
p154
sg43
V<img src="http://www.smbc-comics.com/comics/20110212.gif" /><br />\u000aAt least... that was MY fantasy...\u000a<p><a href="http://feedads.g.doubleclick.net/~a/5B9DumA4-KeflET5H_xEQN-eFaY/0/da"><img src="http://feedads.g.doubleclick.net/~a/5B9DumA4-KeflET5H_xEQN-eFaY/0/di" border="0" ismap="true" /></a><br />\u000a<a href="http://feedads.g.doubleclick.net/~a/5B9DumA4-KeflET5H_xEQN-eFaY/1/da"><img src="http://feedads.g.doubleclick.net/~a/5B9DumA4-KeflET5H_xEQN-eFaY/1/di" border="0" ismap="true" /></a></p><img src="http://feeds.feedburner.com/~r/smbc-comics/PvLb/~4/8olH-5jZxa0" height="1" width="1" />
p155
sg33
NstRp156
sg104
g54
((I2011
I2
I12
I5
I0
I0
I5
I43
I0
t(dtRp157
sg9
(lp158
g1
(g2
g3
(dp159
g12
Vhttp://feedproxy.google.com/~r/smbc-comics/PvLb/~3/8olH-5jZxa0/index.php
p160
sg14
g15
sg16
g17
stRp161
asg35
VFebruary 12, 2011
p162
sS'feedburner_origlink'
p163
Vhttp://www.smbc-comics.com/index.php?db=comics&id=2153
p164
sg53
VSat, 12 Feb 2011 00:00:00 -0500
p165
sg114
g155
sS'title_detail'
p166
g1
(g2
g3
(dp167
g40
S'http://feeds.feedburner.com/smbc-comics/PvLb'
p168
sg14
S'text/plain'
p169
sg43
g162
sg33
NstRp170
sg50
g160
sg87
(lp171
VSaturday Morning Breakfast Cereal (updated daily)
p172
aV*
aS'read'
p173
asg123
g160
stRp174
ag1
(g2
g3
(dp175
S'summary_detail'
p176
g1
(g2
g3
(dp177
g40
S'http://feeds.feedburner.com/smbc-comics/PvLb'
p178
sg14
S'text/html'
p179
sg43
V<img src="http://www.smbc-comics.com/comics/20110211.gif" /><br />\u000aHey, Santa Barbara geeks. <a href="http://www.weinersmith.com/">BEERSCUSSION</a><br />\u000a<br />\u000a<p><a href="http://feedads.g.doubleclick.net/~a/GpsglyUASaUxQBJEwcPdyVUS26s/0/da"><img src="http://feedads.g.doubleclick.net/~a/GpsglyUASaUxQBJEwcPdyVUS26s/0/di" border="0" ismap="true" /></a><br />\u000a<a href="http://feedads.g.doubleclick.net/~a/GpsglyUASaUxQBJEwcPdyVUS26s/1/da"><img src="http://feedads.g.doubleclick.net/~a/GpsglyUASaUxQBJEwcPdyVUS26s/1/di" border="0" ismap="true" /></a></p><img src="http://feeds.feedburner.com/~r/smbc-comics/PvLb/~4/H6MpIYEjs44" height="1" width="1" />
p180
sg33
NstRp181
sg104
g54
((I2011
I2
I11
I5
I0
I0
I4
I42
I0
t(dtRp182
sg9
(lp183
g1
(g2
g3
(dp184
g12
Vhttp://feedproxy.google.com/~r/smbc-comics/PvLb/~3/H6MpIYEjs44/index.php
p185
sg14
g15
sg16
g17
stRp186
asg35
VFebruary 11, 2011
p187
sS'feedburner_origlink'
p188
Vhttp://www.smbc-comics.com/index.php?db=comics&id=2152
p189
sg53
VFri, 11 Feb 2011 00:00:00 -0500
p190
sg114
g180
sS'title_detail'
p191
g1
(g2
g3
(dp192
g40
S'http://feeds.feedburner.com/smbc-comics/PvLb'
p193
sg14
S'text/plain'
p194
sg43
g187
sg33
NstRp195
sg50
g185
sg87
(lp196
VSaturday Morning Breakfast Cereal (updated daily)
p197
aV*
aS'read'
p198
asg123
g185
stRp199
ag1
(g2
g3
(dp200
S'summary_detail'
p201
g1
(g2
g3
(dp202
g40
S'http://feeds.feedburner.com/smbc-comics/PvLb'
p203
sg14
S'text/html'
p204
sg43
V<img src="http://www.smbc-comics.com/comics/20110210.gif" /><br />\u000aHey! Since there are a lot of new readers lately, I wanted to remind everyone that you can navigate through the site using z, x, and c for back, random, forth. Have fun!\u000a<p><a href="http://feedads.g.doubleclick.net/~a/ev7e1yQtFAl9qMUj5BkQZaQfMMg/0/da"><img src="http://feedads.g.doubleclick.net/~a/ev7e1yQtFAl9qMUj5BkQZaQfMMg/0/di" border="0" ismap="true" /></a><br />\u000a<a href="http://feedads.g.doubleclick.net/~a/ev7e1yQtFAl9qMUj5BkQZaQfMMg/1/da"><img src="http://feedads.g.doubleclick.net/~a/ev7e1yQtFAl9qMUj5BkQZaQfMMg/1/di" border="0" ismap="true" /></a></p><img src="http://feeds.feedburner.com/~r/smbc-comics/PvLb/~4/ZCAXgwF3M9Y" height="1" width="1" />
p205
sg33
NstRp206
sg104
g54
((I2011
I2
I10
I5
I0
I0
I3
I41
I0
t(dtRp207
sg9
(lp208
g1
(g2
g3
(dp209
g12
Vhttp://feedproxy.google.com/~r/smbc-comics/PvLb/~3/ZCAXgwF3M9Y/index.php
p210
sg14
g15
sg16
g17
stRp211
asg35
VFebruary 10, 2011
p212
sS'feedburner_origlink'
p213
Vhttp://www.smbc-comics.com/index.php?db=comics&id=2151
p214
sg53
VThu, 10 Feb 2011 00:00:00 -0500
p215
sg114
g205
sS'title_detail'
p216
g1
(g2
g3
(dp217
g40
S'http://feeds.feedburner.com/smbc-comics/PvLb'
p218
sg14
S'text/plain'
p219
sg43
g212
sg33
NstRp220
sg50
g210
sg87
(lp221
VSaturday Morning Breakfast Cereal (updated daily)
p222
aV*
aS'read'
p223
asg123
g210
stRp224
ag1
(g2
g3
(dp225
S'summary_detail'
p226
g1
(g2
g3
(dp227
S'base'
p228
S'http://feeds.feedburner.com/smbc-comics/PvLb'
p229
sS'type'
p230
S'text/html'
p231
sS'language'
p232
NsS'value'
p233
V<img src="http://www.smbc-comics.com/comics/20110209.gif" /><br />\u000aHAnyone remember Kevin Forbes from the late but great <a href="http://robotandghost.com/nggallery/page-12/image/19/">Simulated Comic Product</a>? He's working on a <a href="http://www.indiegogo.com/21-Journeys">new project</a> that's looking for funding. Give it a look and see what you think.\u000a<p><a href="http://feedads.g.doubleclick.net/~a/jaVTN13MEyDOkUZuswzbaZwvAG0/0/da"><img src="http://feedads.g.doubleclick.net/~a/jaVTN13MEyDOkUZuswzbaZwvAG0/0/di" border="0" ismap="true" /></a><br />\u000a<a href="http://feedads.g.doubleclick.net/~a/jaVTN13MEyDOkUZuswzbaZwvAG0/1/da"><img src="http://feedads.g.doubleclick.net/~a/jaVTN13MEyDOkUZuswzbaZwvAG0/1/di" border="0" ismap="true" /></a></p><img src="http://feeds.feedburner.com/~r/smbc-comics/PvLb/~4/9eU2NL0PaIA" height="1" width="1" />
p234
stRp235
sS'updated_parsed'
p236
g54
((I2011
I2
I9
I5
I0
I0
I2
I40
I0
t(dtRp237
sS'links'
p238
(lp239
g1
(g2
g3
(dp240
S'href'
p241
Vhttp://feedproxy.google.com/~r/smbc-comics/PvLb/~3/9eU2NL0PaIA/index.php
p242
sg230
S'text/html'
p243
sS'rel'
p244
S'alternate'
p245
stRp246
asS'title'
p247
VFebruary 09, 2011
p248
sS'feedburner_origlink'
p249
Vhttp://www.smbc-comics.com/index.php?db=comics&id=2150
p250
sS'updated'
p251
VWed, 09 Feb 2011 00:00:00 -0500
p252
sS'summary'
p253
g234
sS'title_detail'
p254
g1
(g2
g3
(dp255
g228
S'http://feeds.feedburner.com/smbc-comics/PvLb'
p256
sg230
S'text/plain'
p257
sg232
Nsg233
g248
stRp258
sS'link'
p259
g242
sS'canto_state'
p260
(lp261
VSaturday Morning Breakfast Cereal (updated daily)
p262
aV*
aS'read'
p263
asS'id'
p264
g242
stRp265
ag1
(g2
g3
(dp266
S'summary_detail'
p267
g1
(g2
g3
(dp268
S'base'
p269
S'http://feeds.feedburner.com/smbc-comics/PvLb'
p270
sS'type'
p271
S'text/html'
p272
sS'language'
p273
NsS'value'
p274
V<img src="http://www.smbc-comics.com/comics/20110208.gif" /><br />\u000aWhee!<br />\u000a<br />\u000aJon and James have a new zombie vid out! <a href="http://www.youtube.com/watch?v=7igwWfk6A0g">Zombie James is saaaaad</a>.\u000a<p><a href="http://feedads.g.doubleclick.net/~a/iYB8dmyJDkQIKwy9q6m1XbQsPmw/0/da"><img src="http://feedads.g.doubleclick.net/~a/iYB8dmyJDkQIKwy9q6m1XbQsPmw/0/di" border="0" ismap="true" /></a><br />\u000a<a href="http://feedads.g.doubleclick.net/~a/iYB8dmyJDkQIKwy9q6m1XbQsPmw/1/da"><img src="http://feedads.g.doubleclick.net/~a/iYB8dmyJDkQIKwy9q6m1XbQsPmw/1/di" border="0" ismap="true" /></a></p><img src="http://feeds.feedburner.com/~r/smbc-comics/PvLb/~4/E0g55k00R7M" height="1" width="1" />
p275
stRp276
sS'updated_parsed'
p277
g54
((I2011
I2
I8
I5
I0
I0
I1
I39
I0
t(dtRp278
sS'links'
p279
(lp280
g1
(g2
g3
(dp281
S'href'
p282
Vhttp://feedproxy.google.com/~r/smbc-comics/PvLb/~3/E0g55k00R7M/index.php
p283
sg271
S'text/html'
p284
sS'rel'
p285
S'alternate'
p286
stRp287
asS'title'
p288
VFebruary 08, 2011
p289
sS'feedburner_origlink'
p290
Vhttp://www.smbc-comics.com/index.php?db=comics&id=2149
p291
sS'updated'
p292
VTue, 08 Feb 2011 00:00:00 -0500
p293
sS'summary'
p294
g275
sS'title_detail'
p295
g1
(g2
g3
(dp296
g269
S'http://feeds.feedburner.com/smbc-comics/PvLb'
p297
sg271
S'text/plain'
p298
sg273
Nsg274
g289
stRp299
sS'link'
p300
g283
sS'canto_state'
p301
(lp302
VSaturday Morning Breakfast Cereal (updated daily)
p303
aV*
aS'read'
p304
asS'id'
p305
g283
stRp306
ag1
(g2
g3
(dp307
S'summary_detail'
p308
g1
(g2
g3
(dp309
S'base'
p310
S'http://feeds.feedburner.com/smbc-comics/PvLb'
p311
sS'type'
p312
S'text/html'
p313
sS'language'
p314
NsS'value'
p315
V<img src="http://www.smbc-comics.com/comics/20110207.gif" /><br />\u000aNEW VIDEO DAY! Featuring James, JP, and a bunch of awesome ideas.<br />\u000a<br />\u000a\u000a<p><a href="http://feedads.g.doubleclick.net/~a/emH-inTxhi4QUzHZ7_QiNI3uUK8/0/da"><img src="http://feedads.g.doubleclick.net/~a/emH-inTxhi4QUzHZ7_QiNI3uUK8/0/di" border="0" ismap="true" /></a><br />\u000a<a href="http://feedads.g.doubleclick.net/~a/emH-inTxhi4QUzHZ7_QiNI3uUK8/1/da"><img src="http://feedads.g.doubleclick.net/~a/emH-inTxhi4QUzHZ7_QiNI3uUK8/1/di" border="0" ismap="true" /></a></p><img src="http://feeds.feedburner.com/~r/smbc-comics/PvLb/~4/izv47G4A5Go" height="1" width="1" />
p316
stRp317
sS'updated_parsed'
p318
g54
((I2011
I2
I7
I5
I0
I0
I0
I38
I0
t(dtRp319
sS'links'
p320
(lp321
g1
(g2
g3
(dp322
S'href'
p323
Vhttp://feedproxy.google.com/~r/smbc-comics/PvLb/~3/izv47G4A5Go/index.php
p324
sg312
S'text/html'
p325
sS'rel'
p326
S'alternate'
p327
stRp328
asS'title'
p329
VFebruary 07, 2011
p330
sS'feedburner_origlink'
p331
Vhttp://www.smbc-comics.com/index.php?db=comics&id=2148
p332
sS'updated'
p333
VMon, 07 Feb 2011 00:00:00 -0500
p334
sS'summary'
p335
g316
sS'title_detail'
p336
g1
(g2
g3
(dp337
g310
S'http://feeds.feedburner.com/smbc-comics/PvLb'
p338
sg312
S'text/plain'
p339
sg314
Nsg315
g330
stRp340
sS'link'
p341
g324
sS'canto_state'
p342
(lp343
VSaturday Morning Breakfast Cereal (updated daily)
p344
aV*
aS'read'
p345
asS'id'
p346
g324
stRp347
ag1
(g2
g3
(dp348
S'summary_detail'
p349
g1
(g2
g3
(dp350
S'base'
p351
S'http://feeds.feedburner.com/smbc-comics/PvLb'
p352
sS'type'
p353
S'text/html'
p354
sS'language'
p355
NsS'value'
p356
V<img src="http://www.smbc-comics.com/comics/20110206.gif" /><br />\u000aWhee!\u000a<p><a href="http://feedads.g.doubleclick.net/~a/Yik_TuxA7kahTx4xOE0cr1wnluQ/0/da"><img src="http://feedads.g.doubleclick.net/~a/Yik_TuxA7kahTx4xOE0cr1wnluQ/0/di" border="0" ismap="true" /></a><br />\u000a<a href="http://feedads.g.doubleclick.net/~a/Yik_TuxA7kahTx4xOE0cr1wnluQ/1/da"><img src="http://feedads.g.doubleclick.net/~a/Yik_TuxA7kahTx4xOE0cr1wnluQ/1/di" border="0" ismap="true" /></a></p><img src="http://feeds.feedburner.com/~r/smbc-comics/PvLb/~4/k7ejMWPduzI" height="1" width="1" />
p357
stRp358
sS'updated_parsed'
p359
g54
((I2011
I2
I6
I5
I0
I0
I6
I37
I0
t(dtRp360
sS'links'
p361
(lp362
g1
(g2
g3
(dp363
S'href'
p364
Vhttp://feedproxy.google.com/~r/smbc-comics/PvLb/~3/k7ejMWPduzI/index.php
p365
sg353
S'text/html'
p366
sS'rel'
p367
S'alternate'
p368
stRp369
asS'title'
p370
VFebruary 06, 2011
p371
sS'feedburner_origlink'
p372
Vhttp://www.smbc-comics.com/index.php?db=comics&id=2147
p373
sS'updated'
p374
VSun, 06 Feb 2011 00:00:00 -0500
p375
sS'summary'
p376
g357
sS'title_detail'
p377
g1
(g2
g3
(dp378
g351
S'http://feeds.feedburner.com/smbc-comics/PvLb'
p379
sg353
S'text/plain'
p380
sg355
Nsg356
g371
stRp381
sS'link'
p382
g365
sS'canto_state'
p383
(lp384
VSaturday Morning Breakfast Cereal (updated daily)
p385
aV*
aS'read'
p386
asS'id'
p387
g365
stRp388
ag1
(g2
g3
(dp389
S'summary_detail'
p390
g1
(g2
g3
(dp391
S'base'
p392
S'http://feeds.feedburner.com/smbc-comics/PvLb'
p393
sS'type'
p394
S'text/html'
p395
sS'value'
p396
V<img src="http://www.smbc-comics.com/comics/20110205.gif" /><br />\u000aJust got the go-ahead from the powers that be to show you the <a href="http://www.smbc-comics.com/images/topsecretcover.gif">new cover</a>. Coming soon!\u000a<p><a href="http://feedads.g.doubleclick.net/~a/JRV6dkdwRu25bL_EBUcC525DMUo/0/da"><img src="http://feedads.g.doubleclick.net/~a/JRV6dkdwRu25bL_EBUcC525DMUo/0/di" border="0" ismap="true" /></a><br />\u000a<a href="http://feedads.g.doubleclick.net/~a/JRV6dkdwRu25bL_EBUcC525DMUo/1/da"><img src="http://feedads.g.doubleclick.net/~a/JRV6dkdwRu25bL_EBUcC525DMUo/1/di" border="0" ismap="true" /></a></p><img src="http://feeds.feedburner.com/~r/smbc-comics/PvLb/~4/-nYuLCHoXu0" height="1" width="1" />
p397
sS'language'
p398
NstRp399
sS'updated_parsed'
p400
g54
((I2011
I2
I5
I5
I0
I0
I5
I36
I0
t(dtRp401
sS'links'
p402
(lp403
g1
(g2
g3
(dp404
S'href'
p405
Vhttp://feedproxy.google.com/~r/smbc-comics/PvLb/~3/-nYuLCHoXu0/index.php
p406
sg394
S'text/html'
p407
sS'rel'
p408
S'alternate'
p409
stRp410
asS'title'
p411
VFebruary 05, 2011
p412
sS'feedburner_origlink'
p413
Vhttp://www.smbc-comics.com/index.php?db=comics&id=2146
p414
sS'updated'
p415
VSat, 05 Feb 2011 00:00:00 -0500
p416
sS'summary'
p417
g397
sS'title_detail'
p418
g1
(g2
g3
(dp419
g392
S'http://feeds.feedburner.com/smbc-comics/PvLb'
p420
sg394
S'text/plain'
p421
sg396
g412
sg398
NstRp422
sS'link'
p423
g406
sS'canto_state'
p424
(lp425
VSaturday Morning Breakfast Cereal (updated daily)
p426
aV*
aS'read'
p427
asS'id'
p428
g406
stRp429
ag1
(g2
g3
(dp430
S'summary_detail'
p431
g1
(g2
g3
(dp432
S'base'
p433
S'http://feeds.feedburner.com/smbc-comics/PvLb'
p434
sS'type'
p435
S'text/html'
p436
sS'language'
p437
NsS'value'
p438
V<img src="http://www.smbc-comics.com/comics/20110204.gif" /><br />\u000aHey geeks! My sister Robin wanted me to point you guys to a cool fundraiser for foster kids. <a href="http://www.spinforachild.org/spin/participantpage.asp?uid=2971&fundid=1625">If you can give a couple bucks to help out</a>, it'd be massively appreciated.<br />\u000a<br />\u000a<br />\u000aAlso, if you're interested in gay rights, and trolling, <a href="http://www.theweinerworks.com/?p=344">you'll enjoy this</a>.<br />\u000a<br />\u000aUpdate: Holy crap, it's blown up completely! For people visiting from the various linkers, you may enjoy this vid we did last year:<br />\u000a\u000a<p><a href="http://feedads.g.doubleclick.net/~a/US82xiVFrcuWKzggHawvsLEIH4A/0/da"><img src="http://feedads.g.doubleclick.net/~a/US82xiVFrcuWKzggHawvsLEIH4A/0/di" border="0" ismap="true" /></a><br />\u000a<a href="http://feedads.g.doubleclick.net/~a/US82xiVFrcuWKzggHawvsLEIH4A/1/da"><img src="http://feedads.g.doubleclick.net/~a/US82xiVFrcuWKzggHawvsLEIH4A/1/di" border="0" ismap="true" /></a></p><img src="http://feeds.feedburner.com/~r/smbc-comics/PvLb/~4/PVpWLkUlS-I" height="1" width="1" />
p439
stRp440
sS'updated_parsed'
p441
g54
((I2011
I2
I4
I5
I0
I0
I4
I35
I0
t(dtRp442
sS'links'
p443
(lp444
g1
(g2
g3
(dp445
S'href'
p446
Vhttp://feedproxy.google.com/~r/smbc-comics/PvLb/~3/PVpWLkUlS-I/index.php
p447
sg435
S'text/html'
p448
sS'rel'
p449
S'alternate'
p450
stRp451
asS'title'
p452
VFebruary 04, 2011
p453
sS'feedburner_origlink'
p454
Vhttp://www.smbc-comics.com/index.php?db=comics&id=2145
p455
sS'updated'
p456
VFri, 04 Feb 2011 00:00:00 -0500
p457
sS'summary'
p458
g439
sS'title_detail'
p459
g1
(g2
g3
(dp460
g433
S'http://feeds.feedburner.com/smbc-comics/PvLb'
p461
sg435
S'text/plain'
p462
sg437
Nsg438
g453
stRp463
sS'link'
p464
g447
sS'canto_state'
p465
(lp466
VSaturday Morning Breakfast Cereal (updated daily)
p467
aV*
aS'read'
p468
asS'id'
p469
g447
stRp470
ag1
(g2
g3
(dp471
S'summary_detail'
p472
g1
(g2
g3
(dp473
S'base'
p474
S'http://feeds.feedburner.com/smbc-comics/PvLb'
p475
sS'type'
p476
S'text/html'
p477
sS'language'
p478
NsS'value'
p479
V<img src="http://www.smbc-comics.com/comics/20110203.gif" /><br />\u000aThe awesome Jim Zubkavich recently finished an awesome coloring job for the SMBC Book cover (more details soonish!). He also creates a great comic called <a href="http://www.skullkickers.com/">Skullkickers</a>. Check it out!\u000a<p><a href="http://feedads.g.doubleclick.net/~a/gaMdV7CQO2N1cRSbIYZjx6P61b8/0/da"><img src="http://feedads.g.doubleclick.net/~a/gaMdV7CQO2N1cRSbIYZjx6P61b8/0/di" border="0" ismap="true" /></a><br />\u000a<a href="http://feedads.g.doubleclick.net/~a/gaMdV7CQO2N1cRSbIYZjx6P61b8/1/da"><img src="http://feedads.g.doubleclick.net/~a/gaMdV7CQO2N1cRSbIYZjx6P61b8/1/di" border="0" ismap="true" /></a></p><img src="http://feeds.feedburner.com/~r/smbc-comics/PvLb/~4/o-4DKphr0cA" height="1" width="1" />
p480
stRp481
sS'updated_parsed'
p482
g54
((I2011
I2
I3
I5
I0
I0
I3
I34
I0
t(dtRp483
sS'links'
p484
(lp485
g1
(g2
g3
(dp486
S'href'
p487
Vhttp://feedproxy.google.com/~r/smbc-comics/PvLb/~3/o-4DKphr0cA/index.php
p488
sg476
S'text/html'
p489
sS'rel'
p490
S'alternate'
p491
stRp492
asS'title'
p493
VFebruary 03, 2011
p494
sS'feedburner_origlink'
p495
Vhttp://www.smbc-comics.com/index.php?db=comics&id=2144
p496
sS'updated'
p497
VThu, 03 Feb 2011 00:00:00 -0500
p498
sS'summary'
p499
g480
sS'title_detail'
p500
g1
(g2
g3
(dp501
g474
S'http://feeds.feedburner.com/smbc-comics/PvLb'
p502
sg476
S'text/plain'
p503
sg478
Nsg479
g494
stRp504
sS'link'
p505
g488
sS'canto_state'
p506
(lp507
VSaturday Morning Breakfast Cereal (updated daily)
p508
aV*
aS'read'
p509
asS'id'
p510
g488
stRp511
ag1
(g2
g3
(dp512
S'summary_detail'
p513
g1
(g2
g3
(dp514
S'base'
p515
S'http://feeds.feedburner.com/smbc-comics/PvLb'
p516
sS'type'
p517
S'text/html'
p518
sS'language'
p519
NsS'value'
p520
V<img src="http://www.smbc-comics.com/comics/20110202.gif" /><br />\u000aOH SNAP! It's a zombie choose your own adventure video thing featuring <a href="http://www.youtube.com/watch?v=X5pfXLuUNT8">James Ashby???</a>. My friend, Jon Brence of Harcos Labs, is doing a cute ad campaign for zombie themed junk food. Check it out!\u000a<p><a href="http://feedads.g.doubleclick.net/~a/qD-0F-kuzWoiWlP366Tyc47zfnc/0/da"><img src="http://feedads.g.doubleclick.net/~a/qD-0F-kuzWoiWlP366Tyc47zfnc/0/di" border="0" ismap="true" /></a><br />\u000a<a href="http://feedads.g.doubleclick.net/~a/qD-0F-kuzWoiWlP366Tyc47zfnc/1/da"><img src="http://feedads.g.doubleclick.net/~a/qD-0F-kuzWoiWlP366Tyc47zfnc/1/di" border="0" ismap="true" /></a></p><img src="http://feeds.feedburner.com/~r/smbc-comics/PvLb/~4/sAUb2CUhg2c" height="1" width="1" />
p521
stRp522
sS'updated_parsed'
p523
g54
((I2011
I2
I2
I5
I0
I0
I2
I33
I0
t(dtRp524
sS'links'
p525
(lp526
g1
(g2
g3
(dp527
S'href'
p528
Vhttp://feedproxy.google.com/~r/smbc-comics/PvLb/~3/sAUb2CUhg2c/index.php
p529
sg517
S'text/html'
p530
sS'rel'
p531
S'alternate'
p532
stRp533
asS'title'
p534
VFebruary 02, 2011
p535
sS'feedburner_origlink'
p536
Vhttp://www.smbc-comics.com/index.php?db=comics&id=2143
p537
sS'updated'
p538
VWed, 02 Feb 2011 00:00:00 -0500
p539
sS'summary'
p540
g521
sS'title_detail'
p541
g1
(g2
g3
(dp542
g515
S'http://feeds.feedburner.com/smbc-comics/PvLb'
p543
sg517
S'text/plain'
p544
sg519
Nsg520
g535
stRp545
sS'link'
p546
g529
sS'canto_state'
p547
(lp548
VSaturday Morning Breakfast Cereal (updated daily)
p549
aV*
aS'read'
p550
asS'id'
p551
g529
stRp552
ag1
(g2
g3
(dp553
S'summary_detail'
p554
g1
(g2
g3
(dp555
S'base'
p556
S'http://feeds.feedburner.com/smbc-comics/PvLb'
p557
sS'type'
p558
S'text/html'
p559
sS'language'
p560
NsS'value'
p561
V<img src="http://www.smbc-comics.com/comics/20110201.gif" /><br />\u000aOh hey, my old friend Danielle has a <i><a href="http://www.facebook.com/OnlyBeast">rock band</a></i>. Do you like <i>rock music</i>? I'll be you do.\u000a<p><a href="http://feedads.g.doubleclick.net/~a/-PykX74iIpXPNlG9uy03QvLrgcY/0/da"><img src="http://feedads.g.doubleclick.net/~a/-PykX74iIpXPNlG9uy03QvLrgcY/0/di" border="0" ismap="true" /></a><br />\u000a<a href="http://feedads.g.doubleclick.net/~a/-PykX74iIpXPNlG9uy03QvLrgcY/1/da"><img src="http://feedads.g.doubleclick.net/~a/-PykX74iIpXPNlG9uy03QvLrgcY/1/di" border="0" ismap="true" /></a></p><img src="http://feeds.feedburner.com/~r/smbc-comics/PvLb/~4/CAfktJPoZmc" height="1" width="1" />
p562
stRp563
sS'updated_parsed'
p564
g54
((I2011
I2
I1
I5
I0
I0
I1
I32
I0
t(dtRp565
sS'links'
p566
(lp567
g1
(g2
g3
(dp568
S'href'
p569
Vhttp://feedproxy.google.com/~r/smbc-comics/PvLb/~3/CAfktJPoZmc/index.php
p570
sg558
S'text/html'
p571
sS'rel'
p572
S'alternate'
p573
stRp574
asS'title'
p575
VFebruary 01, 2011
p576
sS'feedburner_origlink'
p577
Vhttp://www.smbc-comics.com/index.php?db=comics&id=2142
p578
sS'updated'
p579
VTue, 01 Feb 2011 00:00:00 -0500
p580
sS'summary'
p581
g562
sS'title_detail'
p582
g1
(g2
g3
(dp583
g556
S'http://feeds.feedburner.com/smbc-comics/PvLb'
p584
sg558
S'text/plain'
p585
sg560
Nsg561
g576
stRp586
sS'link'
p587
g570
sS'canto_state'
p588
(lp589
VSaturday Morning Breakfast Cereal (updated daily)
p590
aV*
aS'read'
p591
asS'id'
p592
g570
stRp593
ag1
(g2
g3
(dp594
S'summary_detail'
p595
g1
(g2
g3
(dp596
S'base'
p597
S'http://feeds.feedburner.com/smbc-comics/PvLb'
p598
sS'type'
p599
S'text/html'
p600
sS'value'
p601
V<img src="http://www.smbc-comics.com/comics/20110131.gif" /><br />\u000aNew VIIIIDEO:<br />\u000a\u000a<br />\u000a<br />\u000a<p><a href="http://feedads.g.doubleclick.net/~a/3nYy4z3yfsM7EeEvskOTQXfYeHM/0/da"><img src="http://feedads.g.doubleclick.net/~a/3nYy4z3yfsM7EeEvskOTQXfYeHM/0/di" border="0" ismap="true" /></a><br />\u000a<a href="http://feedads.g.doubleclick.net/~a/3nYy4z3yfsM7EeEvskOTQXfYeHM/1/da"><img src="http://feedads.g.doubleclick.net/~a/3nYy4z3yfsM7EeEvskOTQXfYeHM/1/di" border="0" ismap="true" /></a></p><img src="http://feeds.feedburner.com/~r/smbc-comics/PvLb/~4/DVfkMAEeKPk" height="1" width="1" />
p602
sS'language'
p603
NstRp604
sS'updated_parsed'
p605
g54
((I2011
I1
I31
I5
I0
I0
I0
I31
I0
t(dtRp606
sS'links'
p607
(lp608
g1
(g2
g3
(dp609
S'href'
p610
Vhttp://feedproxy.google.com/~r/smbc-comics/PvLb/~3/DVfkMAEeKPk/index.php
p611
sg599
S'text/html'
p612
sS'rel'
p613
S'alternate'
p614
stRp615
asS'title'
p616
VJanuary 31, 2011
p617
sS'feedburner_origlink'
p618
Vhttp://www.smbc-comics.com/index.php?db=comics&id=2141
p619
sS'updated'
p620
VMon, 31 Jan 2011 00:00:00 -0500
p621
sS'summary'
p622
g602
sS'title_detail'
p623
g1
(g2
g3
(dp624
g597
S'http://feeds.feedburner.com/smbc-comics/PvLb'
p625
sg599
S'text/plain'
p626
sg601
g617
sg603
NstRp627
sS'link'
p628
g611
sS'canto_state'
p629
(lp630
VSaturday Morning Breakfast Cereal (updated daily)
p631
aV*
aS'read'
p632
asS'id'
p633
g611
stRp634
ag1
(g2
g3
(dp635
S'summary_detail'
p636
g1
(g2
g3
(dp637
S'base'
p638
S'http://feeds.feedburner.com/smbc-comics/PvLb'
p639
sS'type'
p640
S'text/html'
p641
sS'value'
p642
V<img src="http://www.smbc-comics.com/comics/20110130.gif" /><br />\u000aWooh! This has officially been the busiest month in the history of the site :) To all you lovely ubergeeks who check in regularly-- I can't thank you enough. 2011 is looking GREAT!\u000a<p><a href="http://feedads.g.doubleclick.net/~a/09g6f9DeBR-ypIEzDXfuFFsvx88/0/da"><img src="http://feedads.g.doubleclick.net/~a/09g6f9DeBR-ypIEzDXfuFFsvx88/0/di" border="0" ismap="true" /></a><br />\u000a<a href="http://feedads.g.doubleclick.net/~a/09g6f9DeBR-ypIEzDXfuFFsvx88/1/da"><img src="http://feedads.g.doubleclick.net/~a/09g6f9DeBR-ypIEzDXfuFFsvx88/1/di" border="0" ismap="true" /></a></p><img src="http://feeds.feedburner.com/~r/smbc-comics/PvLb/~4/1fG4tEzLZYM" height="1" width="1" />
p643
sS'language'
p644
NstRp645
sS'updated_parsed'
p646
g54
((I2011
I1
I30
I5
I0
I0
I6
I30
I0
t(dtRp647
sS'links'
p648
(lp649
g1
(g2
g3
(dp650
S'href'
p651
Vhttp://feedproxy.google.com/~r/smbc-comics/PvLb/~3/1fG4tEzLZYM/index.php
p652
sg640
S'text/html'
p653
sS'rel'
p654
S'alternate'
p655
stRp656
asS'title'
p657
VJanuary 30, 2011
p658
sS'feedburner_origlink'
p659
Vhttp://www.smbc-comics.com/index.php?db=comics&id=2140
p660
sS'updated'
p661
VSun, 30 Jan 2011 00:00:00 -0500
p662
sS'summary'
p663
g643
sS'title_detail'
p664
g1
(g2
g3
(dp665
g638
S'http://feeds.feedburner.com/smbc-comics/PvLb'
p666
sg640
S'text/plain'
p667
sg642
g658
sg644
NstRp668
sS'link'
p669
g652
sS'canto_state'
p670
(lp671
VSaturday Morning Breakfast Cereal (updated daily)
p672
aV*
aVnew
p673
aS'read'
p674
asS'id'
p675
g652
stRp676
ag1
(g2
g3
(dp677
S'summary_detail'
p678
g1
(g2
g3
(dp679
S'base'
p680
S'http://feeds.feedburner.com/smbc-comics/PvLb'
p681
sS'type'
p682
S'text/html'
p683
sS'language'
p684
NsS'value'
p685
V<img src="http://www.smbc-comics.com/comics/20110129.gif" /><br />\u000aJust because it's been so popular, don't forget to check out the <a href="http://www.smbc-theater.com">new vid</a>!\u000a<p><a href="http://feedads.g.doubleclick.net/~a/4GXiMI07YZX9vWJm2PPzGIY_2wg/0/da"><img src="http://feedads.g.doubleclick.net/~a/4GXiMI07YZX9vWJm2PPzGIY_2wg/0/di" border="0" ismap="true" /></a><br />\u000a<a href="http://feedads.g.doubleclick.net/~a/4GXiMI07YZX9vWJm2PPzGIY_2wg/1/da"><img src="http://feedads.g.doubleclick.net/~a/4GXiMI07YZX9vWJm2PPzGIY_2wg/1/di" border="0" ismap="true" /></a></p><img src="http://feeds.feedburner.com/~r/smbc-comics/PvLb/~4/oBe1IRD8MAU" height="1" width="1" />
p686
stRp687
sS'updated_parsed'
p688
g54
((I2011
I1
I29
I5
I0
I0
I5
I29
I0
t(dtRp689
sS'links'
p690
(lp691
g1
(g2
g3
(dp692
S'href'
p693
Vhttp://feedproxy.google.com/~r/smbc-comics/PvLb/~3/oBe1IRD8MAU/index.php
p694
sg682
S'text/html'
p695
sS'rel'
p696
S'alternate'
p697
stRp698
asS'title'
p699
VJanuary 29, 2011
p700
sS'feedburner_origlink'
p701
Vhttp://www.smbc-comics.com/index.php?db=comics&id=2139
p702
sS'updated'
p703
VSat, 29 Jan 2011 00:00:00 -0500
p704
sS'summary'
p705
g686
sS'title_detail'
p706
g1
(g2
g3
(dp707
g680
S'http://feeds.feedburner.com/smbc-comics/PvLb'
p708
sg682
S'text/plain'
p709
sg684
Nsg685
g700
stRp710
sS'link'
p711
g694
sS'canto_state'
p712
(lp713
g672
aV*
ag673
ag674
asS'id'
p714
g694
stRp715
ag1
(g2
g3
(dp716
S'summary_detail'
p717
g1
(g2
g3
(dp718
S'base'
p719
S'http://feeds.feedburner.com/smbc-comics/PvLb'
p720
sS'type'
p721
S'text/html'
p722
sS'language'
p723
NsS'value'
p724
V<img src="http://www.smbc-comics.com/comics/20110128.gif" /><br />\u000aDo you have hair? Do you like science? Time to <a href="http://paleocave.sciencesortof.com/2011/01/do-science-with-patrick/">COMBINE THEM</a>.<br />\u000a<br />\u000aAlso, just another reminder, you can now navigate the site with z, x, and c, for back, random, and forth. Whee!\u000a<p><a href="http://feedads.g.doubleclick.net/~a/sVFkiapMhFaWBm8uXUPe-DLw4aI/0/da"><img src="http://feedads.g.doubleclick.net/~a/sVFkiapMhFaWBm8uXUPe-DLw4aI/0/di" border="0" ismap="true" /></a><br />\u000a<a href="http://feedads.g.doubleclick.net/~a/sVFkiapMhFaWBm8uXUPe-DLw4aI/1/da"><img src="http://feedads.g.doubleclick.net/~a/sVFkiapMhFaWBm8uXUPe-DLw4aI/1/di" border="0" ismap="true" /></a></p><img src="http://feeds.feedburner.com/~r/smbc-comics/PvLb/~4/egVdKpm-LRA" height="1" width="1" />
p725
stRp726
sS'updated_parsed'
p727
g54
((I2011
I1
I28
I5
I0
I0
I4
I28
I0
t(dtRp728
sS'links'
p729
(lp730
g1
(g2
g3
(dp731
S'href'
p732
Vhttp://feedproxy.google.com/~r/smbc-comics/PvLb/~3/egVdKpm-LRA/index.php
p733
sg721
S'text/html'
p734
sS'rel'
p735
S'alternate'
p736
stRp737
asS'title'
p738
VJanuary 28, 2011
p739
sS'feedburner_origlink'
p740
Vhttp://www.smbc-comics.com/index.php?db=comics&id=2138
p741
sS'updated'
p742
VFri, 28 Jan 2011 00:00:00 -0500
p743
sS'summary'
p744
g725
sS'title_detail'
p745
g1
(g2
g3
(dp746
g719
S'http://feeds.feedburner.com/smbc-comics/PvLb'
p747
sg721
S'text/plain'
p748
sg723
Nsg724
g739
stRp749
sS'link'
p750
g733
sS'canto_state'
p751
(lp752
VSaturday Morning Breakfast Cereal (updated daily)
p753
aV*
aVnew
p754
aS'read'
p755
asS'id'
p756
g733
stRp757
ag1
(g2
g3
(dp758
S'summary_detail'
p759
g1
(g2
g3
(dp760
S'base'
p761
S'http://feeds.feedburner.com/smbc-comics/PvLb'
p762
sS'type'
p763
S'text/html'
p764
sS'language'
p765
NsS'value'
p766
V<img src="http://www.smbc-comics.com/comics/20110127.gif" /><br />\u000aHey geeks! New website feature: Try pressing z, x, or c while navigating around the site :)\u000a<p><a href="http://feedads.g.doubleclick.net/~a/zGn9SwiPjTj_tMW8Km7GGxk9Gzg/0/da"><img src="http://feedads.g.doubleclick.net/~a/zGn9SwiPjTj_tMW8Km7GGxk9Gzg/0/di" border="0" ismap="true" /></a><br />\u000a<a href="http://feedads.g.doubleclick.net/~a/zGn9SwiPjTj_tMW8Km7GGxk9Gzg/1/da"><img src="http://feedads.g.doubleclick.net/~a/zGn9SwiPjTj_tMW8Km7GGxk9Gzg/1/di" border="0" ismap="true" /></a></p><img src="http://feeds.feedburner.com/~r/smbc-comics/PvLb/~4/sW9jT_dItsI" height="1" width="1" />
p767
stRp768
sS'updated_parsed'
p769
g54
((I2011
I1
I27
I5
I0
I0
I3
I27
I0
t(dtRp770
sS'links'
p771
(lp772
g1
(g2
g3
(dp773
S'href'
p774
Vhttp://feedproxy.google.com/~r/smbc-comics/PvLb/~3/sW9jT_dItsI/index.php
p775
sg763
S'text/html'
p776
sS'rel'
p777
S'alternate'
p778
stRp779
asS'title'
p780
VJanuary 27, 2011
p781
sS'feedburner_origlink'
p782
Vhttp://www.smbc-comics.com/index.php?db=comics&id=2137
p783
sS'updated'
p784
VThu, 27 Jan 2011 00:00:00 -0500
p785
sS'summary'
p786
g767
sS'title_detail'
p787
g1
(g2
g3
(dp788
g761
S'http://feeds.feedburner.com/smbc-comics/PvLb'
p789
sg763
S'text/plain'
p790
sg765
Nsg766
g781
stRp791
sS'link'
p792
g775
sS'canto_state'
p793
(lp794
VSaturday Morning Breakfast Cereal (updated daily)
p795
aV*
aVnew
p796
aS'read'
p797
asS'id'
p798
g775
stRp799
ag1
(g2
g3
(dp800
S'summary_detail'
p801
g1
(g2
g3
(dp802
S'base'
p803
S'http://feeds.feedburner.com/smbc-comics/PvLb'
p804
sS'type'
p805
S'text/html'
p806
sS'language'
p807
NsS'value'
p808
V<img src="http://www.smbc-comics.com/comics/20110126.gif" /><br />\u000aKelly's going away for research for 2 weeks. BOOOOOO!\u000a<p><a href="http://feedads.g.doubleclick.net/~a/9ZI-S6nDC3iwdlc3sUh0rHgmlAI/0/da"><img src="http://feedads.g.doubleclick.net/~a/9ZI-S6nDC3iwdlc3sUh0rHgmlAI/0/di" border="0" ismap="true" /></a><br />\u000a<a href="http://feedads.g.doubleclick.net/~a/9ZI-S6nDC3iwdlc3sUh0rHgmlAI/1/da"><img src="http://feedads.g.doubleclick.net/~a/9ZI-S6nDC3iwdlc3sUh0rHgmlAI/1/di" border="0" ismap="true" /></a></p><img src="http://feeds.feedburner.com/~r/smbc-comics/PvLb/~4/X2ruC6d-vVY" height="1" width="1" />
p809
stRp810
sS'updated_parsed'
p811
g54
((I2011
I1
I26
I5
I0
I0
I2
I26
I0
t(dtRp812
sS'links'
p813
(lp814
g1
(g2
g3
(dp815
S'href'
p816
Vhttp://feedproxy.google.com/~r/smbc-comics/PvLb/~3/X2ruC6d-vVY/index.php
p817
sg805
S'text/html'
p818
sS'rel'
p819
S'alternate'
p820
stRp821
asS'title'
p822
VJanuary 26, 2011
p823
sS'feedburner_origlink'
p824
Vhttp://www.smbc-comics.com/index.php?db=comics&id=2136
p825
sS'updated'
p826
VWed, 26 Jan 2011 00:00:00 -0500
p827
sS'summary'
p828
g809
sS'title_detail'
p829
g1
(g2
g3
(dp830
g803
S'http://feeds.feedburner.com/smbc-comics/PvLb'
p831
sg805
S'text/plain'
p832
sg807
Nsg808
g823
stRp833
sS'link'
p834
g817
sS'canto_state'
p835
(lp836
VSaturday Morning Breakfast Cereal (updated daily)
p837
aV*
aVnew
p838
aS'read'
p839
asS'id'
p840
g817
stRp841
ag1
(g2
g3
(dp842
S'summary_detail'
p843
g1
(g2
g3
(dp844
S'base'
p845
S'http://feeds.feedburner.com/smbc-comics/PvLb'
p846
sS'type'
p847
S'text/html'
p848
sS'value'
p849
V<img src="http://www.smbc-comics.com/comics/20110125.gif" /><br />\u000aYes, I'm looking for your emailed corrections, my dear geeks.<br />\u000a<br />\u000aAlso, in case you missed it, <a href="http://www.smbc-theater.com">the new video</a> is proving quite popular.\u000a<p><a href="http://feedads.g.doubleclick.net/~a/T2U8r4mMQuy-XG69pYeN42l-bdc/0/da"><img src="http://feedads.g.doubleclick.net/~a/T2U8r4mMQuy-XG69pYeN42l-bdc/0/di" border="0" ismap="true" /></a><br />\u000a<a href="http://feedads.g.doubleclick.net/~a/T2U8r4mMQuy-XG69pYeN42l-bdc/1/da"><img src="http://feedads.g.doubleclick.net/~a/T2U8r4mMQuy-XG69pYeN42l-bdc/1/di" border="0" ismap="true" /></a></p><img src="http://feeds.feedburner.com/~r/smbc-comics/PvLb/~4/FfkcycTeVA4" height="1" width="1" />
p850
sS'language'
p851
NstRp852
sS'updated_parsed'
p853
g54
((I2011
I1
I25
I5
I0
I0
I1
I25
I0
t(dtRp854
sS'links'
p855
(lp856
g1
(g2
g3
(dp857
S'href'
p858
Vhttp://feedproxy.google.com/~r/smbc-comics/PvLb/~3/FfkcycTeVA4/index.php
p859
sg847
S'text/html'
p860
sS'rel'
p861
S'alternate'
p862
stRp863
asS'title'
p864
VJanuary 25, 2011
p865
sS'feedburner_origlink'
p866
Vhttp://www.smbc-comics.com/index.php?db=comics&id=2135
p867
sS'updated'
p868
VTue, 25 Jan 2011 00:00:00 -0500
p869
sS'summary'
p870
g850
sS'title_detail'
p871
g1
(g2
g3
(dp872
g845
S'http://feeds.feedburner.com/smbc-comics/PvLb'
p873
sg847
S'text/plain'
p874
sg849
g865
sg851
NstRp875
sS'link'
p876
g859
sS'canto_state'
p877
(lp878
VSaturday Morning Breakfast Cereal (updated daily)
p879
aV*
aVnew
p880
aS'read'
p881
asS'id'
p882
g859
stRp883
ag1
(g2
g3
(dp884
S'summary_detail'
p885
g1
(g2
g3
(dp886
g845
S'http://feeds.feedburner.com/smbc-comics/PvLb'
p887
sg847
S'text/html'
p888
sg849
V<img src="http://www.smbc-comics.com/comics/20110124.gif" /><br />\u000aBlasphemy, hooray!<br />\u000a<br />\u000a\u000a<p><a href="http://feedads.g.doubleclick.net/~a/02F9CksOAHbEewPUKppFWkQPsOc/0/da"><img src="http://feedads.g.doubleclick.net/~a/02F9CksOAHbEewPUKppFWkQPsOc/0/di" border="0" ismap="true" /></a><br />\u000a<a href="http://feedads.g.doubleclick.net/~a/02F9CksOAHbEewPUKppFWkQPsOc/1/da"><img src="http://feedads.g.doubleclick.net/~a/02F9CksOAHbEewPUKppFWkQPsOc/1/di" border="0" ismap="true" /></a></p><img src="http://feeds.feedburner.com/~r/smbc-comics/PvLb/~4/jIMC0iSKk_k" height="1" width="1" />
p889
sg851
NstRp890
sg853
g54
((I2011
I1
I24
I5
I0
I0
I0
I24
I0
t(dtRp891
sg855
(lp892
g1
(g2
g3
(dp893
g858
Vhttp://feedproxy.google.com/~r/smbc-comics/PvLb/~3/jIMC0iSKk_k/index.php
p894
sg847
g860
sg861
g862
stRp895
asg864
VJanuary 24, 2011
p896
sS'feedburner_origlink'
p897
Vhttp://www.smbc-comics.com/index.php?db=comics&id=2134
p898
sg868
VMon, 24 Jan 2011 00:00:00 -0500
p899
sg870
g889
sS'title_detail'
p900
g1
(g2
g3
(dp901
g845
S'http://feeds.feedburner.com/smbc-comics/PvLb'
p902
sg847
S'text/plain'
p903
sg849
g896
sg851
NstRp904
sg876
g894
sg877
(lp905
VSaturday Morning Breakfast Cereal (updated daily)
p906
aV*
aVnew
p907
aS'read'
p908
asg882
g894
stRp909
ag1
(g2
g3
(dp910
S'summary_detail'
p911
g1
(g2
g3
(dp912
S'base'
p913
S'http://feeds.feedburner.com/smbc-comics/PvLb'
p914
sS'type'
p915
S'text/html'
p916
sS'language'
p917
NsS'value'
p918
V<img src="http://www.smbc-comics.com/comics/20110123.gif" /><br />\u000aWe're doing a superkeen guest story at <a href="http://snowflakescomic.com/">Snowflakes</a>. If you wanna start reading, <a href="http://snowflakescomic.com/?sl=2&id=-2">here's</a> a good place.\u000a<p><a href="http://feedads.g.doubleclick.net/~a/RGfROqqTyM6KW6lxDMgk9AU34Hc/0/da"><img src="http://feedads.g.doubleclick.net/~a/RGfROqqTyM6KW6lxDMgk9AU34Hc/0/di" border="0" ismap="true" /></a><br />\u000a<a href="http://feedads.g.doubleclick.net/~a/RGfROqqTyM6KW6lxDMgk9AU34Hc/1/da"><img src="http://feedads.g.doubleclick.net/~a/RGfROqqTyM6KW6lxDMgk9AU34Hc/1/di" border="0" ismap="true" /></a></p><img src="http://feeds.feedburner.com/~r/smbc-comics/PvLb/~4/8Y1D9htEb2A" height="1" width="1" />
p919
stRp920
sS'updated_parsed'
p921
g54
((I2011
I1
I23
I5
I0
I0
I6
I23
I0
t(dtRp922
sS'links'
p923
(lp924
g1
(g2
g3
(dp925
S'href'
p926
Vhttp://feedproxy.google.com/~r/smbc-comics/PvLb/~3/8Y1D9htEb2A/index.php
p927
sg915
S'text/html'
p928
sS'rel'
p929
S'alternate'
p930
stRp931
asS'title'
p932
VJanuary 23, 2011
p933
sS'feedburner_origlink'
p934
Vhttp://www.smbc-comics.com/index.php?db=comics&id=2133
p935
sS'updated'
p936
VSun, 23 Jan 2011 00:00:00 -0500
p937
sS'summary'
p938
g919
sS'title_detail'
p939
g1
(g2
g3
(dp940
g913
S'http://feeds.feedburner.com/smbc-comics/PvLb'
p941
sg915
S'text/plain'
p942
sg917
Nsg918
g933
stRp943
sS'link'
p944
g927
sS'canto_state'
p945
(lp946
VSaturday Morning Breakfast Cereal (updated daily)
p947
aV*
aVnew
p948
aS'read'
p949
asS'id'
p950
g927
stRp951
ag1
(g2
g3
(dp952
S'summary_detail'
p953
g1
(g2
g3
(dp954
S'base'
p955
S'http://feeds.feedburner.com/smbc-comics/PvLb'
p956
sS'type'
p957
S'text/html'
p958
sS'value'
p959
V<img src="http://www.smbc-comics.com/comics/20110122.gif" /><br />\u000aCOMICS!<br />\u000a<br />\u000aI'm enjoying <a href="http://www.bugcomic.com/">Bug</a> by Adam Huber. Check it out!\u000a<p><a href="http://feedads.g.doubleclick.net/~a/PdzEegLRj6DDrfMKWVuLN4SM59M/0/da"><img src="http://feedads.g.doubleclick.net/~a/PdzEegLRj6DDrfMKWVuLN4SM59M/0/di" border="0" ismap="true" /></a><br />\u000a<a href="http://feedads.g.doubleclick.net/~a/PdzEegLRj6DDrfMKWVuLN4SM59M/1/da"><img src="http://feedads.g.doubleclick.net/~a/PdzEegLRj6DDrfMKWVuLN4SM59M/1/di" border="0" ismap="true" /></a></p><img src="http://feeds.feedburner.com/~r/smbc-comics/PvLb/~4/x6QCjz9y31k" height="1" width="1" />
p960
sS'language'
p961
NstRp962
sS'updated_parsed'
p963
g54
((I2011
I1
I22
I5
I0
I0
I5
I22
I0
t(dtRp964
sS'links'
p965
(lp966
g1
(g2
g3
(dp967
S'href'
p968
Vhttp://feedproxy.google.com/~r/smbc-comics/PvLb/~3/x6QCjz9y31k/index.php
p969
sg957
S'text/html'
p970
sS'rel'
p971
S'alternate'
p972
stRp973
asS'title'
p974
VJanuary 22, 2011
p975
sS'feedburner_origlink'
p976
Vhttp://www.smbc-comics.com/index.php?db=comics&id=2132
p977
sS'updated'
p978
VSat, 22 Jan 2011 00:00:00 -0500
p979
sS'summary'
p980
g960
sS'title_detail'
p981
g1
(g2
g3
(dp982
g955
S'http://feeds.feedburner.com/smbc-comics/PvLb'
p983
sg957
S'text/plain'
p984
sg959
g975
sg961
NstRp985
sS'link'
p986
g969
sS'canto_state'
p987
(lp988
g947
aV*
ag948
ag949
asS'id'
p989
g969
stRp990
ag1
(g2
g3
(dp991
S'summary_detail'
p992
g1
(g2
g3
(dp993
S'base'
p994
S'http://feeds.feedburner.com/smbc-comics/PvLb'
p995
sS'type'
p996
S'text/html'
p997
sS'value'
p998
V<img src="http://www.smbc-comics.com/comics/20110121.gif" /><br />\u000aAww, the Cy&H; guys gave me a shoutout in their <a href="http://www.amazon.com/Ice-Cream-Sadness-Cyanide-Happiness/dp/0062046225/ref=sr_1_2?ie=UTF8&qid=1295593665&sr=8-2">second book</a>. I'm not sure what the webcomics universe will look like in 10 years, but it's pretty cool that it's mostly awesome people right now :)\u000a<p><a href="http://feedads.g.doubleclick.net/~a/fgZkxpjgRwcjNqQHj3BbBqXuwnY/0/da"><img src="http://feedads.g.doubleclick.net/~a/fgZkxpjgRwcjNqQHj3BbBqXuwnY/0/di" border="0" ismap="true" /></a><br />\u000a<a href="http://feedads.g.doubleclick.net/~a/fgZkxpjgRwcjNqQHj3BbBqXuwnY/1/da"><img src="http://feedads.g.doubleclick.net/~a/fgZkxpjgRwcjNqQHj3BbBqXuwnY/1/di" border="0" ismap="true" /></a></p><img src="http://feeds.feedburner.com/~r/smbc-comics/PvLb/~4/vg2Q-aRZBlU" height="1" width="1" />
p999
sS'language'
p1000
NstRp1001
sS'updated_parsed'
p1002
g54
((I2011
I1
I21
I5
I0
I0
I4
I21
I0
t(dtRp1003
sS'links'
p1004
(lp1005
g1
(g2
g3
(dp1006
S'href'
p1007
Vhttp://feedproxy.google.com/~r/smbc-comics/PvLb/~3/vg2Q-aRZBlU/index.php
p1008
sg996
S'text/html'
p1009
sS'rel'
p1010
S'alternate'
p1011
stRp1012
asS'title'
p1013
VJanuary 21, 2011
p1014
sS'feedburner_origlink'
p1015
Vhttp://www.smbc-comics.com/index.php?db=comics&id=2131
p1016
sS'updated'
p1017
VFri, 21 Jan 2011 00:00:00 -0500
p1018
sS'summary'
p1019
g999
sS'title_detail'
p1020
g1
(g2
g3
(dp1021
g994
S'http://feeds.feedburner.com/smbc-comics/PvLb'
p1022
sg996
S'text/plain'
p1023
sg998
g1014
sg1000
NstRp1024
sS'link'
p1025
g1008
sS'canto_state'
p1026
(lp1027
g947
aV*
ag948
ag949
asS'id'
p1028
g1008
stRp1029
ag1
(g2
g3
(dp1030
S'summary_detail'
p1031
g1
(g2
g3
(dp1032
S'base'
p1033
S'http://feeds.feedburner.com/smbc-comics/PvLb'
p1034
sS'type'
p1035
S'text/html'
p1036
sS'value'
p1037
V<img src="http://www.smbc-comics.com/comics/20110120.gif" /><br />\u000aBAM!\u000a<p><a href="http://feedads.g.doubleclick.net/~a/OVKlBiEfU9EW5wtkhpwc8YdHflg/0/da"><img src="http://feedads.g.doubleclick.net/~a/OVKlBiEfU9EW5wtkhpwc8YdHflg/0/di" border="0" ismap="true" /></a><br />\u000a<a href="http://feedads.g.doubleclick.net/~a/OVKlBiEfU9EW5wtkhpwc8YdHflg/1/da"><img src="http://feedads.g.doubleclick.net/~a/OVKlBiEfU9EW5wtkhpwc8YdHflg/1/di" border="0" ismap="true" /></a></p><img src="http://feeds.feedburner.com/~r/smbc-comics/PvLb/~4/x_OHGRW9fDk" height="1" width="1" />
p1038
sS'language'
p1039
NstRp1040
sS'updated_parsed'
p1041
g54
((I2011
I1
I20
I5
I0
I0
I3
I20
I0
t(dtRp1042
sS'links'
p1043
(lp1044
g1
(g2
g3
(dp1045
S'href'
p1046
Vhttp://feedproxy.google.com/~r/smbc-comics/PvLb/~3/x_OHGRW9fDk/index.php
p1047
sg1035
S'text/html'
p1048
sS'rel'
p1049
S'alternate'
p1050
stRp1051
asS'title'
p1052
VJanuary 20, 2011
p1053
sS'feedburner_origlink'
p1054
Vhttp://www.smbc-comics.com/index.php?db=comics&id=2130
p1055
sS'updated'
p1056
VThu, 20 Jan 2011 00:00:00 -0500
p1057
sS'summary'
p1058
g1038
sS'title_detail'
p1059
g1
(g2
g3
(dp1060
g1033
S'http://feeds.feedburner.com/smbc-comics/PvLb'
p1061
sg1035
S'text/plain'
p1062
sg1037
g1053
sg1039
NstRp1063
sS'link'
p1064
g1047
sS'canto_state'
p1065
(lp1066
g947
aV*
ag948
ag949
asS'id'
p1067
g1047
stRp1068
ag1
(g2
g3
(dp1069
S'summary_detail'
p1070
g1
(g2
g3
(dp1071
S'base'
p1072
S'http://feeds.feedburner.com/smbc-comics/PvLb'
p1073
sS'type'
p1074
S'text/html'
p1075
sS'value'
p1076
V<img src="http://www.smbc-comics.com/comics/20110119.gif" /><br />\u000aLet it be known that <a href="http://spacetrawler.com/">Christopher Baldwin</a> is the effin' man.\u000a<p><a href="http://feedads.g.doubleclick.net/~a/8n1s6cLkSiXNXHLmMp4bxnpQe-E/0/da"><img src="http://feedads.g.doubleclick.net/~a/8n1s6cLkSiXNXHLmMp4bxnpQe-E/0/di" border="0" ismap="true" /></a><br />\u000a<a href="http://feedads.g.doubleclick.net/~a/8n1s6cLkSiXNXHLmMp4bxnpQe-E/1/da"><img src="http://feedads.g.doubleclick.net/~a/8n1s6cLkSiXNXHLmMp4bxnpQe-E/1/di" border="0" ismap="true" /></a></p><img src="http://feeds.feedburner.com/~r/smbc-comics/PvLb/~4/Mrrpu-RuCZQ" height="1" width="1" />
p1077
sS'language'
p1078
NstRp1079
sS'updated_parsed'
p1080
g54
((I2011
I1
I19
I5
I0
I0
I2
I19
I0
t(dtRp1081
sS'links'
p1082
(lp1083
g1
(g2
g3
(dp1084
S'href'
p1085
Vhttp://feedproxy.google.com/~r/smbc-comics/PvLb/~3/Mrrpu-RuCZQ/index.php
p1086
sg1074
S'text/html'
p1087
sS'rel'
p1088
S'alternate'
p1089
stRp1090
asS'title'
p1091
VJanuary 19, 2011
p1092
sS'feedburner_origlink'
p1093
Vhttp://www.smbc-comics.com/index.php?db=comics&id=2129
p1094
sS'updated'
p1095
VWed, 19 Jan 2011 00:00:00 -0500
p1096
sS'summary'
p1097
g1077
sS'title_detail'
p1098
g1
(g2
g3
(dp1099
g1072
S'http://feeds.feedburner.com/smbc-comics/PvLb'
p1100
sg1074
S'text/plain'
p1101
sg1076
g1092
sg1078
NstRp1102
sS'link'
p1103
g1086
sS'canto_state'
p1104
(lp1105
g947
aV*
ag948
ag949
asS'id'
p1106
g1086
stRp1107
astRp1108
.