ccopy_reg
_reconstructor
p1
(cfeedparser
FeedParserDict
p2
c__builtin__
dict
p3
(dp4
S'feed'
p5
g1
(g2
g3
(dp6
S'lastbuilddate'
p7
VFri, 28 Jan 2011 21:50:52 +0000
p8
sS'subtitle'
p9
VBanshee Media Player
p10
sS'language'
p11
Ven
p12
sS'generator'
p13
Vhttp://wordpress.org/?v=3.0.4
p14
sS'title'
p15
VBanshee
p16
sS'links'
p17
(lp18
g1
(g2
g3
(dp19
S'href'
p20
Vhttp://banshee.fm/feed/
p21
sS'type'
p22
Vapplication/rss+xml
p23
sS'rel'
p24
Vself
p25
stRp26
ag1
(g2
g3
(dp27
S'href'
p28
Vhttp://banshee.fm
p29
sS'type'
p30
S'text/html'
p31
sS'rel'
p32
S'alternate'
p33
stRp34
asS'generator_detail'
p35
g1
(g2
g3
(dp36
S'name'
p37
g14
stRp38
sS'title_detail'
p39
g1
(g2
g3
(dp40
S'base'
p41
S'http://banshee.fm/feed/'
p42
sg30
S'text/plain'
p43
sS'value'
p44
g16
sg11
NstRp45
sS'link'
p46
g29
sS'sy_updateperiod'
p47
Vhourly
p48
sS'subtitle_detail'
p49
g1
(g2
g3
(dp50
g41
S'http://banshee.fm/feed/'
p51
sg30
S'text/html'
p52
sg44
g10
sg11
NstRp53
sS'sy_updatefrequency'
p54
V1
stRp55
sS'status'
p56
I200
sS'updated'
p57
ctime
struct_time
p58
((I2011
I1
I28
I21
I50
I52
I4
I28
I0
t(dtRp59
sS'version'
p60
S'atom10'
p61
sS'encoding'
p62
S'UTF-8'
p63
sS'bozo'
p64
I0
sS'canto_version'
p65
(I0
I6
I13
tp66
sS'canto_update'
p67
F1296440463.0199981
sS'headers'
p68
(dp69
S'x-powered-by'
p70
S'PHP/5.3.2'
p71
sS'transfer-encoding'
p72
S'chunked'
p73
sS'server'
p74
S'lighttpd/1.4.26'
p75
sS'last-modified'
p76
S'Fri, 28 Jan 2011 21:50:52 GMT'
p77
sS'connection'
p78
S'close'
p79
sS'etag'
p80
S'"e426f3a8bd5d08e0dd566dcadbc448fa"'
p81
sS'date'
p82
S'Mon, 31 Jan 2011 02:14:45 GMT'
p83
sS'content-type'
p84
S'text/xml; charset=UTF-8'
p85
sS'x-pingback'
p86
S'http://banshee.fm/xmlrpc.php'
p87
ssS'etag'
p88
g81
sS'canto_state'
p89
(lp90
sg28
S'http://banshee.fm/feed/'
p91
sS'namespaces'
p92
(dp93
S''
Vhttp://www.w3.org/2005/Atom
p94
sS'sy'
p95
Vhttp://purl.org/rss/1.0/modules/syndication/
p96
sS'dc'
p97
Vhttp://purl.org/dc/elements/1.1/
p98
sS'content'
p99
Vhttp://purl.org/rss/1.0/modules/content/
p100
sS'slash'
p101
Vhttp://purl.org/rss/1.0/modules/slash/
p102
sS'wfw'
p103
Vhttp://wellformedweb.org/CommentAPI/
p104
ssS'entries'
p105
(lp106
g1
(g2
g3
(dp107
S'summary_detail'
p108
g1
(g2
g3
(dp109
g41
S'http://banshee.fm/feed/'
p110
sg30
S'text/html'
p111
sg44
VBanshee 1.8.1 has been released! This is a stable, bug-fix-only update to 1.8.0. Read the release notes for more info. Get it now!
p112
sg11
NstRp113
sS'updated_parsed'
p114
g58
((I2011
I1
I28
I21
I48
I2
I4
I28
I0
t(dtRp115
sg17
(lp116
g1
(g2
g3
(dp117
g28
Vhttp://banshee.fm/2011/01/28/banshee-1-8-1-released/
p118
sg30
g31
sg32
g33
stRp119
asS'tags'
p120
(lp121
g1
(g2
g3
(dp122
S'term'
p123
VUncategorized
p124
sS'scheme'
p125
NsS'label'
p126
NstRp127
ag1
(g2
g3
(dp128
g123
Vnews
p129
sg125
Nsg126
NstRp130
asg57
VFri, 28 Jan 2011 21:48:02 +0000
p131
sg46
g118
sS'wfw_commentrss'
p132
Vhttp://banshee.fm/2011/01/28/banshee-1-8-1-released/feed/
p133
sS'id'
p134
Vhttp://banshee.fm/?p=795
p135
sS'slash_comments'
p136
V0
sg15
VBanshee 1.8.1 Released!
p137
sS'author'
p138
VGabriel Burt
p139
sS'comments'
p140
Vhttp://banshee.fm/2011/01/28/banshee-1-8-1-released/#comments
p141
sS'summary'
p142
g112
sg99
(lp143
g1
(g2
g3
(dp144
g41
S'http://banshee.fm/feed/'
p145
sg30
S'text/html'
p146
sg44
V<a href="http://banshee-project.org/download/archives/1.8.1/">Banshee 1.8.1</a> has been released!  This is a stable, bug-fix-only update to 1.8.0.  Read the <a href="http://banshee-project.org/download/archives/1.8.1/">release notes</a> for more info.\u000a\u000a<a href="http://banshee-project.org/download">Get it now!</a>
p147
sg11
NstRp148
asS'guidislink'
p149
I00
sS'title_detail'
p150
g1
(g2
g3
(dp151
g41
S'http://banshee.fm/feed/'
p152
sg30
S'text/plain'
p153
sg44
g137
sg11
NstRp154
sg89
(lp155
VBanshee
p156
aV*
aVnew
p157
aS'read'
p158
astRp159
ag1
(g2
g3
(dp160
S'summary_detail'
p161
g1
(g2
g3
(dp162
g41
S'http://banshee.fm/feed/'
p163
sg30
S'text/html'
p164
sg44
VBanshee 1.9.2 has been released! This is a development release, the third in the 1.9.x series leading up to Banshee 2.0. Read the release notes for more info. Get it now!
p165
sg11
NstRp166
sg114
g58
((I2011
I1
I12
I22
I48
I41
I2
I12
I0
t(dtRp167
sg17
(lp168
g1
(g2
g3
(dp169
g28
Vhttp://banshee.fm/2011/01/12/banshee-1-9-2-released/
p170
sg30
g31
sg32
g33
stRp171
asg120
(lp172
g1
(g2
g3
(dp173
g123
VUncategorized
p174
sg125
Nsg126
NstRp175
ag1
(g2
g3
(dp176
g123
Vnews
p177
sg125
Nsg126
NstRp178
asg57
VWed, 12 Jan 2011 22:48:41 +0000
p179
sg46
g170
sS'wfw_commentrss'
p180
Vhttp://banshee.fm/2011/01/12/banshee-1-9-2-released/feed/
p181
sg134
Vhttp://banshee.fm/?p=789
p182
sS'slash_comments'
p183
V0
sg15
VBanshee 1.9.2 released!
p184
sg138
VGabriel Burt
p185
sS'comments'
p186
Vhttp://banshee.fm/2011/01/12/banshee-1-9-2-released/#comments
p187
sg142
g165
sg99
(lp188
g1
(g2
g3
(dp189
g41
S'http://banshee.fm/feed/'
p190
sg30
S'text/html'
p191
sg44
V<a href="http://banshee-project.org/download/archives/1.9.2/">Banshee 1.9.2</a> has been released!  This is a development release, the third in the 1.9.x series leading up to Banshee 2.0.  Read the <a href="http://banshee-project.org/download/archives/1.9.2/">release notes</a> for more info.\u000a\u000a<a href="http://banshee-project.org/download">Get it now!</a>
p192
sg11
NstRp193
asg149
I00
sS'title_detail'
p194
g1
(g2
g3
(dp195
g41
S'http://banshee.fm/feed/'
p196
sg30
S'text/plain'
p197
sg44
g184
sg11
NstRp198
sg89
(lp199
VBanshee
p200
aV*
aVnew
p201
aS'read'
p202
astRp203
ag1
(g2
g3
(dp204
S'summary_detail'
p205
g1
(g2
g3
(dp206
g41
S'http://banshee.fm/feed/'
p207
sg30
S'text/html'
p208
sg44
VA couple months ago it was decided that Banshee would be the default player in Ubuntu 11.04, and in the last couple days the technical switchover occurred! Also, in the five months of August through December, Banshee users earned the GNOME Foundation over $2,200 USD via the integrated AmazonMP3 store!
p209
sg11
NstRp210
sg114
g58
((I2011
I1
I7
I20
I30
I13
I4
I7
I0
t(dtRp211
sg17
(lp212
g1
(g2
g3
(dp213
g28
Vhttp://banshee.fm/2011/01/07/default-in-ubuntu-11-04-1000s-earned-for-gnome/
p214
sg30
g31
sg32
g33
stRp215
asg120
(lp216
g1
(g2
g3
(dp217
g123
VUncategorized
p218
sg125
Nsg126
NstRp219
ag1
(g2
g3
(dp220
g123
Vnews
p221
sg125
Nsg126
NstRp222
asg57
VFri, 07 Jan 2011 20:30:13 +0000
p223
sg46
g214
sS'wfw_commentrss'
p224
Vhttp://banshee.fm/2011/01/07/default-in-ubuntu-11-04-1000s-earned-for-gnome/feed/
p225
sg134
Vhttp://banshee.fm/?p=767
p226
sS'slash_comments'
p227
V0
sg15
VDefault in Ubuntu 11.04!  $1000s Earned for GNOME!
p228
sg138
VGabriel Burt
p229
sS'comments'
p230
Vhttp://banshee.fm/2011/01/07/default-in-ubuntu-11-04-1000s-earned-for-gnome/#comments
p231
sg142
g209
sg99
(lp232
g1
(g2
g3
(dp233
g41
S'http://banshee.fm/feed/'
p234
sg30
S'text/html'
p235
sg44
VA couple months ago it was decided that <a href="http://mail.gnome.org/archives/banshee-list/2010-November/msg00010.html">Banshee would be the default player</a> in Ubuntu 11.04, and in the last couple days <a href="http://www.omgubuntu.co.uk/2010/10/banshee-becomes-ubuntu-11-04-default-music-player/">the technical switchover occurred</a>!\u000a\u000a<br /><br />Also, in the five months of August through December, Banshee users <a href="http://banshee.fm/about/revenue/">earned the GNOME Foundation over $2,200 USD</a> via the integrated AmazonMP3 store!
p236
sg11
NstRp237
asg149
I00
sS'title_detail'
p238
g1
(g2
g3
(dp239
g41
S'http://banshee.fm/feed/'
p240
sg30
S'text/plain'
p241
sg44
g228
sg11
NstRp242
sg89
(lp243
g200
aV*
ag201
ag202
astRp244
ag1
(g2
g3
(dp245
S'summary_detail'
p246
g1
(g2
g3
(dp247
g41
S'http://banshee.fm/feed/'
p248
sg30
S'text/html'
p249
sg44
VBanshee 1.9.1 has been released! This is a development release, the second in the 1.9.x series leading up to Banshee 2.0. Read the release notes for more info. Get it now!
p250
sg11
NstRp251
sg114
g58
((I2010
I12
I15
I16
I0
I11
I2
I349
I0
t(dtRp252
sg17
(lp253
g1
(g2
g3
(dp254
g28
Vhttp://banshee.fm/2010/12/15/banshee-1-9-1-released/
p255
sg30
g31
sg32
g33
stRp256
asg120
(lp257
g1
(g2
g3
(dp258
g123
VUncategorized
p259
sg125
Nsg126
NstRp260
ag1
(g2
g3
(dp261
g123
Vnews
p262
sg125
Nsg126
NstRp263
asg57
VWed, 15 Dec 2010 16:00:11 +0000
p264
sg46
g255
sS'wfw_commentrss'
p265
Vhttp://banshee.fm/2010/12/15/banshee-1-9-1-released/feed/
p266
sg134
Vhttp://banshee.fm/?p=757
p267
sS'slash_comments'
p268
V0
sg15
VBanshee 1.9.1 released!
p269
sg138
Valexk
p270
sS'comments'
p271
Vhttp://banshee.fm/2010/12/15/banshee-1-9-1-released/#comments
p272
sg142
g250
sg99
(lp273
g1
(g2
g3
(dp274
g41
S'http://banshee.fm/feed/'
p275
sg30
S'text/html'
p276
sg44
V<a href="http://banshee-project.org/download/archives/1.9.1/">Banshee 1.9.1</a> has been released!  This is a development release, the second in the 1.9.x series leading up to Banshee 2.0.  Read the <a href="http://banshee-project.org/download/archives/1.9.1/">release notes</a> for more info.\u000a\u000a<a href="http://banshee-project.org/download">Get it now!</a>
p277
sg11
NstRp278
asg149
I00
sS'title_detail'
p279
g1
(g2
g3
(dp280
g41
S'http://banshee.fm/feed/'
p281
sg30
S'text/plain'
p282
sg44
g269
sg11
NstRp283
sg89
(lp284
g200
aV*
ag201
ag202
astRp285
ag1
(g2
g3
(dp286
S'summary_detail'
p287
g1
(g2
g3
(dp288
g41
S'http://banshee.fm/feed/'
p289
sg30
S'text/html'
p290
sg44
VBanshee 1.9.0 has been released! This is a development release, the first in the 1.9.x series leading up to Banshee 2.0. It has some exciting new features! Read the release notes for more info. Get it now!
p291
sg11
NstRp292
sg114
g58
((I2010
I11
I10
I20
I49
I14
I2
I314
I0
t(dtRp293
sg17
(lp294
g1
(g2
g3
(dp295
g28
Vhttp://banshee.fm/2010/11/10/banshee-1-9-0-released/
p296
sg30
g31
sg32
g33
stRp297
asg120
(lp298
g1
(g2
g3
(dp299
g123
VUncategorized
p300
sg125
Nsg126
NstRp301
ag1
(g2
g3
(dp302
g123
Vnews
p303
sg125
Nsg126
NstRp304
asg57
VWed, 10 Nov 2010 20:49:14 +0000
p305
sg46
g296
sS'wfw_commentrss'
p306
Vhttp://banshee.fm/2010/11/10/banshee-1-9-0-released/feed/
p307
sg134
Vhttp://banshee.fm/?p=728
p308
sS'slash_comments'
p309
V0
sg15
VBanshee 1.9.0 released!
p310
sg138
VGabriel Burt
p311
sS'comments'
p312
Vhttp://banshee.fm/2010/11/10/banshee-1-9-0-released/#comments
p313
sg142
g291
sg99
(lp314
g1
(g2
g3
(dp315
g41
S'http://banshee.fm/feed/'
p316
sg30
S'text/html'
p317
sg44
V<a href="http://banshee-project.org/download/archives/1.9.0/">Banshee 1.9.0</a> has been released!  This is a development release, the first in the 1.9.x series leading up to Banshee 2.0.  It has some exciting new features!  Read the <a href="http://banshee-project.org/download/archives/1.9.0/">release notes</a> for more info.\u000a\u000a<a href="http://banshee-project.org/download">Get it now!</a>
p318
sg11
NstRp319
asg149
I00
sS'title_detail'
p320
g1
(g2
g3
(dp321
g41
S'http://banshee.fm/feed/'
p322
sg30
S'text/plain'
p323
sg44
g310
sg11
NstRp324
sg89
(lp325
g200
aV*
ag201
ag202
astRp326
ag1
(g2
g3
(dp327
S'summary_detail'
p328
g1
(g2
g3
(dp329
g41
S'http://banshee.fm/feed/'
p330
sg30
S'text/html'
p331
sg44
VBanshee 1.8 has been released! This is a stable release, the culmination of six month's work by 67 programmers, artists, documentation writers, and translators, adding new features and fixing hundreds of bugs. Read the release notes for more info. Get it now!
p332
sg11
NstRp333
sg114
g58
((I2010
I9
I29
I21
I14
I56
I2
I272
I0
t(dtRp334
sg17
(lp335
g1
(g2
g3
(dp336
g28
Vhttp://banshee.fm/2010/09/29/banshee-1-8-released/
p337
sg30
g31
sg32
g33
stRp338
asg120
(lp339
g1
(g2
g3
(dp340
g123
VUncategorized
p341
sg125
Nsg126
NstRp342
ag1
(g2
g3
(dp343
g123
Vnews
p344
sg125
Nsg126
NstRp345
asg57
VWed, 29 Sep 2010 21:14:56 +0000
p346
sg46
g337
sS'wfw_commentrss'
p347
Vhttp://banshee.fm/2010/09/29/banshee-1-8-released/feed/
p348
sg134
Vhttp://banshee.fm/?p=712
p349
sS'slash_comments'
p350
V0
sg15
VBanshee 1.8 released!
p351
sg138
VGabriel Burt
p352
sS'comments'
p353
Vhttp://banshee.fm/2010/09/29/banshee-1-8-released/#comments
p354
sg142
g332
sg99
(lp355
g1
(g2
g3
(dp356
g41
S'http://banshee.fm/feed/'
p357
sg30
S'text/html'
p358
sg44
V<a href="http://banshee-project.org/download/archives/1.8.0/">Banshee 1.8</a> has been released!  This is a stable release, the culmination of six month's work by 67 programmers, artists, documentation writers, and translators, adding new features and fixing hundreds of bugs.  Read the <a href="http://banshee-project.org/download/archives/1.8.0/">release notes</a> for more info.\u000a\u000a<a href="http://banshee-project.org/download">Get it now!</a>
p359
sg11
NstRp360
asg149
I00
sS'title_detail'
p361
g1
(g2
g3
(dp362
g41
S'http://banshee.fm/feed/'
p363
sg30
S'text/plain'
p364
sg44
g351
sg11
NstRp365
sg89
(lp366
g200
aV*
ag201
ag202
astRp367
ag1
(g2
g3
(dp368
S'summary_detail'
p369
g1
(g2
g3
(dp370
g41
S'http://banshee.fm/feed/'
p371
sg30
S'text/html'
p372
sg44
VBanshee 1.8 is just one week away! Compared to 1.6, it has some awesome advances. You can help us polish and perfect it by testing the 1.7.6 release or git master and filing bugs, or by translating it into your language. Join us on our mailing list/forum or on IRC chat to get in touch!
p373
sg11
NstRp374
sg114
g58
((I2010
I9
I22
I16
I14
I35
I2
I265
I0
t(dtRp375
sg17
(lp376
g1
(g2
g3
(dp377
g28
Vhttp://banshee.fm/2010/09/22/one-week-until-1-8/
p378
sg30
g31
sg32
g33
stRp379
asg120
(lp380
g1
(g2
g3
(dp381
g123
VUncategorized
p382
sg125
Nsg126
NstRp383
ag1
(g2
g3
(dp384
g123
Vnews
p385
sg125
Nsg126
NstRp386
asg57
VWed, 22 Sep 2010 16:14:35 +0000
p387
sg46
g378
sS'wfw_commentrss'
p388
Vhttp://banshee.fm/2010/09/22/one-week-until-1-8/feed/
p389
sg134
Vhttp://banshee.fm/?p=679
p390
sS'slash_comments'
p391
V0
sg15
VOne Week Until 1.8!
p392
sg138
VGabriel Burt
p393
sS'comments'
p394
Vhttp://banshee.fm/2010/09/22/one-week-until-1-8/#comments
p395
sg142
g373
sg99
(lp396
g1
(g2
g3
(dp397
g41
S'http://banshee.fm/feed/'
p398
sg30
S'text/html'
p399
sg44
VBanshee 1.8 is just <a href="http://banshee.fm/about/calendar/">one week away</a>!  Compared to <a href="http://banshee.fm/download/archives/1.6.0/">1.6</a>, it has some awesome advances.  You can help us polish and perfect it by testing the <a href="http://banshee.fm/download/archives/1.7.6/">1.7.6 release</a> or <a href="http://banshee-project.org/download/development/">git master</a> and filing bugs, or by <a href="http://banshee.fm/contribute/translate/">translating it</a> into your language.  Join us on our mailing list/forum or on IRC chat to <a href="http://banshee.fm/about/contact/">get in touch</a>!
p400
sg11
NstRp401
asg149
I00
sS'title_detail'
p402
g1
(g2
g3
(dp403
g41
S'http://banshee.fm/feed/'
p404
sg30
S'text/plain'
p405
sg44
g392
sg11
NstRp406
sg89
(lp407
g200
aV*
ag201
ag202
astRp408
ag1
(g2
g3
(dp409
S'summary_detail'
p410
g1
(g2
g3
(dp411
g41
S'http://banshee.fm/feed/'
p412
sg30
S'text/html'
p413
sg44
VBanshee 1.7.6, part of the active-development 1.7 series leading to 1.8, has been released. Read the release notes for more info. Get it now!
p414
sg11
NstRp415
sg114
g58
((I2010
I9
I15
I22
I17
I13
I2
I258
I0
t(dtRp416
sg17
(lp417
g1
(g2
g3
(dp418
g28
Vhttp://banshee.fm/2010/09/15/banshee-1-7-6-released/
p419
sg30
g31
sg32
g33
stRp420
asg120
(lp421
g1
(g2
g3
(dp422
g123
VUncategorized
p423
sg125
Nsg126
NstRp424
ag1
(g2
g3
(dp425
g123
Vnews
p426
sg125
Nsg126
NstRp427
asg57
VWed, 15 Sep 2010 22:17:13 +0000
p428
sg46
g419
sS'wfw_commentrss'
p429
Vhttp://banshee.fm/2010/09/15/banshee-1-7-6-released/feed/
p430
sg134
Vhttp://banshee.fm/?p=665
p431
sS'slash_comments'
p432
V0
sg15
VBanshee 1.7.6 Released
p433
sg138
VGabriel Burt
p434
sS'comments'
p435
Vhttp://banshee.fm/2010/09/15/banshee-1-7-6-released/#comments
p436
sg142
g414
sg99
(lp437
g1
(g2
g3
(dp438
g41
S'http://banshee.fm/feed/'
p439
sg30
S'text/html'
p440
sg44
V<a href="http://banshee-project.org/download/archives/1.7.6/">Banshee 1.7.6</a>, part of the active-development 1.7 series leading to 1.8, has been released.  Read the <a href="http://banshee-project.org/download/archives/1.7.6/">release notes</a> for more info.\u000a\u000a<a href="http://banshee-project.org/download">Get it now!</a>
p441
sg11
NstRp442
asg149
I00
sS'title_detail'
p443
g1
(g2
g3
(dp444
g41
S'http://banshee.fm/feed/'
p445
sg30
S'text/plain'
p446
sg44
g433
sg11
NstRp447
sg89
(lp448
g200
aV*
ag201
ag202
astRp449
ag1
(g2
g3
(dp450
S'summary_detail'
p451
g1
(g2
g3
(dp452
g41
S'http://banshee.fm/feed/'
p453
sg30
S'text/html'
p454
sg44
VBanshee 1.7.5, part of the active-development 1.7 series leading to 1.8, has been released. Read the release notes for more info. Get it now!
p455
sg11
NstRp456
sg114
g58
((I2010
I9
I1
I22
I29
I22
I2
I244
I0
t(dtRp457
sg17
(lp458
g1
(g2
g3
(dp459
g28
Vhttp://banshee.fm/2010/09/01/banshee-1-7-5-released/
p460
sg30
g31
sg32
g33
stRp461
asg120
(lp462
g1
(g2
g3
(dp463
g123
VUncategorized
p464
sg125
Nsg126
NstRp465
ag1
(g2
g3
(dp466
g123
Vnews
p467
sg125
Nsg126
NstRp468
asg57
VWed, 01 Sep 2010 22:29:22 +0000
p469
sg46
g460
sS'wfw_commentrss'
p470
Vhttp://banshee.fm/2010/09/01/banshee-1-7-5-released/feed/
p471
sg134
Vhttp://banshee.fm/?p=659
p472
sS'slash_comments'
p473
V0
sg15
VBanshee 1.7.5 Released
p474
sg138
VBertrand
p475
sS'comments'
p476
Vhttp://banshee.fm/2010/09/01/banshee-1-7-5-released/#comments
p477
sg142
g455
sg99
(lp478
g1
(g2
g3
(dp479
g41
S'http://banshee.fm/feed/'
p480
sg30
S'text/html'
p481
sg44
V<a href="http://banshee-project.org/download/archives/1.7.5/">Banshee 1.7.5</a>, part of the active-development 1.7 series leading to 1.8, has been released.  Read the <a href="http://banshee-project.org/download/archives/1.7.5/">release notes</a> for more info.\u000a\u000a<a href="http://banshee-project.org/download">Get it now!</a>
p482
sg11
NstRp483
asg149
I00
sS'title_detail'
p484
g1
(g2
g3
(dp485
g41
S'http://banshee.fm/feed/'
p486
sg30
S'text/plain'
p487
sg44
g474
sg11
NstRp488
sg89
(lp489
g200
aV*
ag201
ag202
astRp490
ag1
(g2
g3
(dp491
S'summary_detail'
p492
g1
(g2
g3
(dp493
g41
S'http://banshee.fm/feed/'
p494
sg30
S'text/html'
p495
sg44
VBanshee 1.7.4, part of the active-development 1.7 series leading to 1.8, has been released. Read the release notes for more info. Get it now!
p496
sg11
NstRp497
sg114
g58
((I2010
I8
I11
I20
I33
I53
I2
I223
I0
t(dtRp498
sg17
(lp499
g1
(g2
g3
(dp500
g28
Vhttp://banshee.fm/2010/08/11/banshee-1-7-4-released/
p501
sg30
g31
sg32
g33
stRp502
asg120
(lp503
g1
(g2
g3
(dp504
g123
VUncategorized
p505
sg125
Nsg126
NstRp506
ag1
(g2
g3
(dp507
g123
Vnews
p508
sg125
Nsg126
NstRp509
asg57
VWed, 11 Aug 2010 20:33:53 +0000
p510
sg46
g501
sS'wfw_commentrss'
p511
Vhttp://banshee.fm/2010/08/11/banshee-1-7-4-released/feed/
p512
sg134
Vhttp://banshee.fm/?p=632
p513
sS'slash_comments'
p514
V0
sg15
VBanshee 1.7.4 Released
p515
sg138
VGabriel Burt
p516
sS'comments'
p517
Vhttp://banshee.fm/2010/08/11/banshee-1-7-4-released/#comments
p518
sg142
g496
sg99
(lp519
g1
(g2
g3
(dp520
g41
S'http://banshee.fm/feed/'
p521
sg30
S'text/html'
p522
sg44
V<a href="http://banshee-project.org/download/archives/1.7.4/">Banshee 1.7.4</a>, part of the active-development 1.7 series leading to 1.8, has been released.  Read the <a href="http://banshee-project.org/download/archives/1.7.4/">release notes</a> for more info.\u000a\u000a<a href="http://banshee-project.org/download">Get it now!</a>
p523
sg11
NstRp524
asg149
I00
sS'title_detail'
p525
g1
(g2
g3
(dp526
g41
S'http://banshee.fm/feed/'
p527
sg30
S'text/plain'
p528
sg44
g515
sg11
NstRp529
sg89
(lp530
g200
aV*
ag201
ag202
astRp531
ag1
(g2
g3
(dp532
S'summary_detail'
p533
g1
(g2
g3
(dp534
S'base'
p535
S'http://banshee.fm/feed/'
p536
sS'type'
p537
S'text/html'
p538
sS'language'
p539
NsS'value'
p540
VBanshee 1.7.3, part of the active-development 1.7 series leading to 1.8, has been released. Read the release notes for more info. Get it now!
p541
stRp542
sS'updated_parsed'
p543
g58
((I2010
I7
I21
I11
I40
I32
I2
I202
I0
t(dtRp544
sS'links'
p545
(lp546
g1
(g2
g3
(dp547
S'href'
p548
Vhttp://banshee.fm/2010/07/21/banshee-1-7-3-released/
p549
sg537
S'text/html'
p550
sS'rel'
p551
S'alternate'
p552
stRp553
asS'tags'
p554
(lp555
g1
(g2
g3
(dp556
S'term'
p557
VUncategorized
p558
sS'scheme'
p559
NsS'label'
p560
NstRp561
ag1
(g2
g3
(dp562
g557
Vnews
p563
sg559
Nsg560
NstRp564
asS'updated'
p565
VWed, 21 Jul 2010 11:40:32 +0000
p566
sS'link'
p567
g549
sS'wfw_commentrss'
p568
Vhttp://banshee.fm/2010/07/21/banshee-1-7-3-released/feed/
p569
sS'id'
p570
Vhttp://banshee.fm/?p=610
p571
sS'slash_comments'
p572
V0
sS'title'
p573
VBanshee 1.7.3 Released
p574
sS'author'
p575
VBertrand
p576
sS'comments'
p577
Vhttp://banshee.fm/2010/07/21/banshee-1-7-3-released/#comments
p578
sS'summary'
p579
g541
sS'content'
p580
(lp581
g1
(g2
g3
(dp582
g535
S'http://banshee.fm/feed/'
p583
sg537
S'text/html'
p584
sg539
Nsg540
V<a href="http://banshee-project.org/download/archives/1-7-3/">Banshee 1.7.3</a>, part of the active-development 1.7 series leading to 1.8, has been released.  Read the <a href="http://banshee-project.org/download/archives/1-7-3/">release notes</a> for more info.\u000a\u000a<a href="http://banshee-project.org/download">Get it now!</a>
p585
stRp586
asS'guidislink'
p587
I00
sS'title_detail'
p588
g1
(g2
g3
(dp589
g535
S'http://banshee.fm/feed/'
p590
sg537
S'text/plain'
p591
sg539
Nsg540
g574
stRp592
sS'canto_state'
p593
(lp594
g200
aV*
ag201
ag202
astRp595
astRp596
.