ccopy_reg
_reconstructor
p1
(cfeedparser
FeedParserDict
p2
c__builtin__
dict
p3
(dp4
S'feed'
p5
g1
(g2
g3
(dp6
S'updated'
p7
V2011-02-13T22:59:19Z
p8
sS'updated_parsed'
p9
ctime
struct_time
p10
((I2011
I2
I13
I22
I59
I19
I6
I44
I0
t(dtRp11
sS'generator'
p12
VGoogle Reader
p13
sS'title'
p14
V"markdua" via Chris in Google Reader
p15
sS'author'
p16
VChris
p17
sS'generator_detail'
p18
g1
(g2
g3
(dp19
S'href'
p20
Vhttp://www.google.com/reader
p21
sS'name'
p22
g13
stRp23
sS'feedburner_info'
p24
V
sS'title_detail'
p25
g1
(g2
g3
(dp26
S'base'
p27
S'http://feeds.feedburner.com/markdua?format=xml'
p28
sS'type'
p29
S'text/plain'
p30
sS'language'
p31
NsS'value'
p32
g15
stRp33
sS'gr_continuation'
p34
VCKi1zszS6aQC
p35
sS'links'
p36
(lp37
g1
(g2
g3
(dp38
S'href'
p39
Vhttp://feeds.feedburner.com/markdua
p40
sS'type'
p41
Vapplication/atom+xml
p42
sS'rel'
p43
Vself
p44
stRp45
ag1
(g2
g3
(dp46
S'href'
p47
Vhttp://pubsubhubbub.appspot.com/
p48
sg29
S'text/html'
p49
sS'rel'
p50
Vhub
p51
stRp52
asS'author_detail'
p53
g1
(g2
g3
(dp54
g22
g17
stRp55
sS'id'
p56
Vtag:google.com,2005:reader/user/00865265804952096795/label/markdua
p57
stRp58
sS'status'
p59
I200
sg7
g10
((I2011
I2
I14
I11
I15
I27
I0
I45
I0
t(dtRp60
sS'encoding'
p61
S'UTF-8'
p62
sS'bozo'
p63
I0
sS'entries'
p64
(lp65
g1
(g2
g3
(dp66
g7
V2011-02-13T22:59:19Z
p67
sS'subtitle'
p68
V<img title="not really focusing on gender issues" src="http://www.markdoesntunderstandanimals.com/mark49.png" />
p69
sg9
g10
((I2011
I2
I13
I22
I59
I19
I6
I44
I0
t(dtRp70
sg36
(lp71
g1
(g2
g3
(dp72
S'href'
p73
Vhttp://feedproxy.google.com/~r/markdua/~3/3Uw4bRJbXM8/049.html
p74
sS'type'
p75
Vtext/html
p76
sS'rel'
p77
Valternate
p78
stRp79
ag1
(g2
g3
(dp80
S'href'
p81
Vhttp://www.markdoesntunderstandanimals.com/
p82
sg29
g49
sS'rel'
p83
Vrelated
p84
sS'title'
p85
Vwww.markdoesntunderstandanimals.com
p86
stRp87
asS'feedburner_origlink'
p88
Vhttp://www.markdoesntunderstandanimals.com/049.html
p89
sS'link'
p90
g74
sS'author_detail'
p91
g1
(g2
g3
(dp92
g22
V(author unknown)
p93
stRp94
sS'id'
p95
Vtag:google.com,2005:reader/item/9923c2d926ddf82b
p96
sS'published_parsed'
p97
g10
((I2011
I2
I13
I22
I59
I19
I6
I44
I0
t(dtRp98
sg14
VMark Doesn't Understand Animals
p99
sg16
g93
sS'content'
p100
(lp101
g1
(g2
g3
(dp102
g27
Vhttp://www.markdoesntunderstandanimals.com/049.html
p103
sg29
S'text/html'
p104
sg31
Nsg32
g69
stRp105
asS'source'
p106
g1
(g2
g3
(dp107
S'title_detail'
p108
g1
(g2
g3
(dp109
g27
S'http://feeds.feedburner.com/markdua?format=xml'
p110
sg29
g104
sg32
Vwww.markdoesntunderstandanimals.com
p111
sg31
NstRp112
sg90
Vhttp://www.markdoesntunderstandanimals.com/
p113
sS'id'
p114
Vtag:google.com,2005:reader/user/00865265804952096795/source/com.google/link
p115
sg36
(lp116
g1
(g2
g3
(dp117
S'href'
p118
g113
sS'type'
p119
Vtext/html
p120
sS'rel'
p121
Valternate
p122
stRp123
asg14
g111
stRp124
sS'title_detail'
p125
g1
(g2
g3
(dp126
g27
S'http://feeds.feedburner.com/markdua?format=xml'
p127
sg29
g104
sg31
Nsg32
g99
stRp128
sS'published'
p129
V2011-02-13T22:59:19Z
p130
sS'canto_state'
p131
(lp132
V"markdua" via Chris in Google Reader
p133
aV*
aS'read'
p134
astRp135
ag1
(g2
g3
(dp136
g7
V2011-02-07T06:32:28Z
p137
sg68
V<img title="and then there was animals" src="http://www.markdoesntunderstandanimals.com/mark48.png" />
p138
sg9
g10
((I2011
I2
I7
I6
I32
I28
I0
I38
I0
t(dtRp139
sg36
(lp140
g1
(g2
g3
(dp141
S'href'
p142
Vhttp://feedproxy.google.com/~r/markdua/~3/pxesAJdopZo/048.html
p143
sS'type'
p144
Vtext/html
p145
sS'rel'
p146
Valternate
p147
stRp148
ag1
(g2
g3
(dp149
S'href'
p150
Vhttp://www.markdoesntunderstandanimals.com/
p151
sg29
g49
sS'rel'
p152
Vrelated
p153
sS'title'
p154
Vwww.markdoesntunderstandanimals.com
p155
stRp156
asS'feedburner_origlink'
p157
Vhttp://www.markdoesntunderstandanimals.com/048.html
p158
sg90
g143
sS'author_detail'
p159
g1
(g2
g3
(dp160
g22
V(author unknown)
p161
stRp162
sS'id'
p163
Vtag:google.com,2005:reader/item/61babc4607021e1d
p164
sg97
g10
((I2011
I2
I7
I6
I32
I28
I0
I38
I0
t(dtRp165
sg14
VMark Doesn't Understand Animals
p166
sg16
g161
sg100
(lp167
g1
(g2
g3
(dp168
g27
Vhttp://www.markdoesntunderstandanimals.com/048.html
p169
sg29
g104
sg31
Nsg32
g138
stRp170
asg106
g1
(g2
g3
(dp171
S'title_detail'
p172
g1
(g2
g3
(dp173
g27
S'http://feeds.feedburner.com/markdua?format=xml'
p174
sg29
g104
sg32
Vwww.markdoesntunderstandanimals.com
p175
sg31
NstRp176
sg90
Vhttp://www.markdoesntunderstandanimals.com/
p177
sS'id'
p178
Vtag:google.com,2005:reader/user/00865265804952096795/source/com.google/link
p179
sg36
(lp180
g1
(g2
g3
(dp181
S'href'
p182
g177
sS'type'
p183
Vtext/html
p184
sS'rel'
p185
Valternate
p186
stRp187
asg14
g175
stRp188
sS'title_detail'
p189
g1
(g2
g3
(dp190
g27
S'http://feeds.feedburner.com/markdua?format=xml'
p191
sg29
g104
sg31
Nsg32
g166
stRp192
sg129
V2011-02-07T06:32:28Z
p193
sg131
(lp194
V"markdua" via Chris in Google Reader
p195
aV*
aS'read'
p196
astRp197
ag1
(g2
g3
(dp198
g7
V2011-01-26T23:52:09Z
p199
sg68
V<img title="ho hum" src="http://www.markdoesntunderstandanimals.com/mark47.png" />
p200
sg9
g10
((I2011
I1
I26
I23
I52
I9
I2
I26
I0
t(dtRp201
sg36
(lp202
g1
(g2
g3
(dp203
S'href'
p204
Vhttp://feedproxy.google.com/~r/markdua/~3/AcwglZtBFso/
p205
sS'type'
p206
Vtext/html
p207
sS'rel'
p208
Valternate
p209
stRp210
ag1
(g2
g3
(dp211
S'href'
p212
Vhttp://www.markdoesntunderstandanimals.com/
p213
sg29
g49
sS'rel'
p214
Vrelated
p215
sS'title'
p216
Vwww.markdoesntunderstandanimals.com
p217
stRp218
asS'feedburner_origlink'
p219
Vhttp://www.markdoesntunderstandanimals.com/
p220
sg90
g205
sS'author_detail'
p221
g1
(g2
g3
(dp222
g22
V(author unknown)
p223
stRp224
sS'id'
p225
Vtag:google.com,2005:reader/item/dfeb57d18d91c38a
p226
sg97
g10
((I2011
I1
I26
I23
I52
I9
I2
I26
I0
t(dtRp227
sg14
VMark Doesn't Understand Animals
p228
sg16
g223
sg100
(lp229
g1
(g2
g3
(dp230
g27
Vhttp://www.markdoesntunderstandanimals.com/
p231
sg29
g104
sg31
Nsg32
g200
stRp232
asg106
g1
(g2
g3
(dp233
S'title_detail'
p234
g1
(g2
g3
(dp235
g27
S'http://feeds.feedburner.com/markdua?format=xml'
p236
sg29
g104
sg32
Vwww.markdoesntunderstandanimals.com
p237
sg31
NstRp238
sg90
Vhttp://www.markdoesntunderstandanimals.com/
p239
sS'id'
p240
Vtag:google.com,2005:reader/user/00865265804952096795/source/com.google/link
p241
sg36
(lp242
g1
(g2
g3
(dp243
S'href'
p244
g239
sS'type'
p245
Vtext/html
p246
sS'rel'
p247
Valternate
p248
stRp249
asg14
g237
stRp250
sS'title_detail'
p251
g1
(g2
g3
(dp252
g27
S'http://feeds.feedburner.com/markdua?format=xml'
p253
sg29
g104
sg31
Nsg32
g228
stRp254
sg129
V2011-01-26T23:52:09Z
p255
sg131
(lp256
V"markdua" via Chris in Google Reader
p257
aV*
aVnew
p258
aS'read'
p259
astRp260
ag1
(g2
g3
(dp261
g7
V2011-01-20T03:02:21Z
p262
sg68
V<img title="hmmmmm" src="http://www.markdoesntunderstandanimals.com/mark46.png" />
p263
sg9
g10
((I2011
I1
I20
I3
I2
I21
I3
I20
I0
t(dtRp264
sg36
(lp265
g1
(g2
g3
(dp266
S'href'
p267
Vhttp://feedproxy.google.com/~r/markdua/~3/DmB_nUez5Y0/046.html
p268
sS'type'
p269
Vtext/html
p270
sS'rel'
p271
Valternate
p272
stRp273
ag1
(g2
g3
(dp274
S'href'
p275
Vhttp://www.markdoesntunderstandanimals.com/
p276
sg29
g49
sS'rel'
p277
Vrelated
p278
sS'title'
p279
Vwww.markdoesntunderstandanimals.com
p280
stRp281
asS'feedburner_origlink'
p282
Vhttp://www.markdoesntunderstandanimals.com/046.html
p283
sg90
g268
sS'author_detail'
p284
g1
(g2
g3
(dp285
g22
V(author unknown)
p286
stRp287
sS'id'
p288
Vtag:google.com,2005:reader/item/1ab82cf36ee47713
p289
sg97
g10
((I2011
I1
I20
I3
I2
I21
I3
I20
I0
t(dtRp290
sg14
VMark Doesn't Understand Animals
p291
sg16
g286
sg100
(lp292
g1
(g2
g3
(dp293
g27
Vhttp://www.markdoesntunderstandanimals.com/046.html
p294
sg29
g104
sg31
Nsg32
g263
stRp295
asg106
g1
(g2
g3
(dp296
S'title_detail'
p297
g1
(g2
g3
(dp298
g27
S'http://feeds.feedburner.com/markdua?format=xml'
p299
sg29
g104
sg32
Vwww.markdoesntunderstandanimals.com
p300
sg31
NstRp301
sg90
Vhttp://www.markdoesntunderstandanimals.com/
p302
sS'id'
p303
Vtag:google.com,2005:reader/user/00865265804952096795/source/com.google/link
p304
sg36
(lp305
g1
(g2
g3
(dp306
S'href'
p307
g302
sS'type'
p308
Vtext/html
p309
sS'rel'
p310
Valternate
p311
stRp312
asg14
g300
stRp313
sS'title_detail'
p314
g1
(g2
g3
(dp315
g27
S'http://feeds.feedburner.com/markdua?format=xml'
p316
sg29
g104
sg31
Nsg32
g291
stRp317
sg129
V2011-01-20T03:02:21Z
p318
sg131
(lp319
V"markdua" via Chris in Google Reader
p320
aV*
aVnew
p321
aS'read'
p322
astRp323
ag1
(g2
g3
(dp324
g7
V2011-01-12T23:41:16Z
p325
sg68
V<img title="it's a full-time job" src="http://www.markdoesntunderstandanimals.com/mark45.png" />
p326
sg9
g10
((I2011
I1
I12
I23
I41
I16
I2
I12
I0
t(dtRp327
sg36
(lp328
g1
(g2
g3
(dp329
S'href'
p330
Vhttp://feedproxy.google.com/~r/markdua/~3/EOrC6ircXn4/045.html
p331
sS'type'
p332
Vtext/html
p333
sS'rel'
p334
Valternate
p335
stRp336
ag1
(g2
g3
(dp337
S'href'
p338
Vhttp://www.markdoesntunderstandanimals.com/
p339
sg29
g49
sS'rel'
p340
Vrelated
p341
sS'title'
p342
Vwww.markdoesntunderstandanimals.com
p343
stRp344
asS'feedburner_origlink'
p345
Vhttp://www.markdoesntunderstandanimals.com/045.html
p346
sg90
g331
sS'author_detail'
p347
g1
(g2
g3
(dp348
g22
V(author unknown)
p349
stRp350
sS'id'
p351
Vtag:google.com,2005:reader/item/1d98fd164eb3379e
p352
sg97
g10
((I2011
I1
I12
I23
I41
I16
I2
I12
I0
t(dtRp353
sg14
VMark Doesn't Understand Animals
p354
sg16
g349
sg100
(lp355
g1
(g2
g3
(dp356
g27
Vhttp://www.markdoesntunderstandanimals.com/045.html
p357
sg29
g104
sg31
Nsg32
g326
stRp358
asg106
g1
(g2
g3
(dp359
S'title_detail'
p360
g1
(g2
g3
(dp361
g27
S'http://feeds.feedburner.com/markdua?format=xml'
p362
sg29
g104
sg32
Vwww.markdoesntunderstandanimals.com
p363
sg31
NstRp364
sg90
Vhttp://www.markdoesntunderstandanimals.com/
p365
sS'id'
p366
Vtag:google.com,2005:reader/user/00865265804952096795/source/com.google/link
p367
sg36
(lp368
g1
(g2
g3
(dp369
S'href'
p370
g365
sS'type'
p371
Vtext/html
p372
sS'rel'
p373
Valternate
p374
stRp375
asg14
g363
stRp376
sS'title_detail'
p377
g1
(g2
g3
(dp378
g27
S'http://feeds.feedburner.com/markdua?format=xml'
p379
sg29
g104
sg31
Nsg32
g354
stRp380
sg129
V2011-01-12T23:41:16Z
p381
sg131
(lp382
g320
aV*
ag321
ag322
astRp383
ag1
(g2
g3
(dp384
g7
V2011-01-06T03:43:15Z
p385
sg68
V<img title="can you believe it" src="http://www.markdoesntunderstandanimals.com/mark44.png" />
p386
sg9
g10
((I2011
I1
I6
I3
I43
I15
I3
I6
I0
t(dtRp387
sg36
(lp388
g1
(g2
g3
(dp389
S'href'
p390
Vhttp://feedproxy.google.com/~r/markdua/~3/VtnD5KG1pTU/044.html
p391
sS'type'
p392
Vtext/html
p393
sS'rel'
p394
Valternate
p395
stRp396
ag1
(g2
g3
(dp397
S'href'
p398
Vhttp://www.markdoesntunderstandanimals.com/
p399
sg29
g49
sS'rel'
p400
Vrelated
p401
sS'title'
p402
Vwww.markdoesntunderstandanimals.com
p403
stRp404
asS'feedburner_origlink'
p405
Vhttp://www.markdoesntunderstandanimals.com/044.html
p406
sg90
g391
sS'author_detail'
p407
g1
(g2
g3
(dp408
g22
V(author unknown)
p409
stRp410
sS'id'
p411
Vtag:google.com,2005:reader/item/0ad0edec2abf1067
p412
sg97
g10
((I2011
I1
I6
I3
I43
I15
I3
I6
I0
t(dtRp413
sg14
VMark Doesn't Understand Animals
p414
sg16
g409
sg100
(lp415
g1
(g2
g3
(dp416
g27
Vhttp://www.markdoesntunderstandanimals.com/044.html
p417
sg29
g104
sg31
Nsg32
g386
stRp418
asg106
g1
(g2
g3
(dp419
S'title_detail'
p420
g1
(g2
g3
(dp421
g27
S'http://feeds.feedburner.com/markdua?format=xml'
p422
sg29
g104
sg32
Vwww.markdoesntunderstandanimals.com
p423
sg31
NstRp424
sg90
Vhttp://www.markdoesntunderstandanimals.com/
p425
sS'id'
p426
Vtag:google.com,2005:reader/user/00865265804952096795/source/com.google/link
p427
sg36
(lp428
g1
(g2
g3
(dp429
S'href'
p430
g425
sS'type'
p431
Vtext/html
p432
sS'rel'
p433
Valternate
p434
stRp435
asg14
g423
stRp436
sS'title_detail'
p437
g1
(g2
g3
(dp438
g27
S'http://feeds.feedburner.com/markdua?format=xml'
p439
sg29
g104
sg31
Nsg32
g414
stRp440
sg129
V2011-01-06T03:43:15Z
p441
sg131
(lp442
g320
aV*
ag321
ag322
astRp443
ag1
(g2
g3
(dp444
g7
V2010-12-30T06:02:25Z
p445
sg68
V<img title="joked ya" src="http://www.markdoesntunderstandanimals.com/mark43.png" />
p446
sg9
g10
((I2010
I12
I30
I6
I2
I25
I3
I364
I0
t(dtRp447
sg36
(lp448
g1
(g2
g3
(dp449
S'href'
p450
Vhttp://feedproxy.google.com/~r/markdua/~3/7zk911zlTsU/043.html
p451
sS'type'
p452
Vtext/html
p453
sS'rel'
p454
Valternate
p455
stRp456
ag1
(g2
g3
(dp457
S'href'
p458
Vhttp://www.markdoesntunderstandanimals.com/
p459
sg29
g49
sS'rel'
p460
Vrelated
p461
sS'title'
p462
Vwww.markdoesntunderstandanimals.com
p463
stRp464
asS'feedburner_origlink'
p465
Vhttp://www.markdoesntunderstandanimals.com/043.html
p466
sg90
g451
sS'author_detail'
p467
g1
(g2
g3
(dp468
g22
V(author unknown)
p469
stRp470
sS'id'
p471
Vtag:google.com,2005:reader/item/4604cd00b8c6f6bb
p472
sg97
g10
((I2010
I12
I30
I6
I2
I25
I3
I364
I0
t(dtRp473
sg14
VMark Doesn't Understand Animals
p474
sg16
g469
sg100
(lp475
g1
(g2
g3
(dp476
g27
Vhttp://www.markdoesntunderstandanimals.com/043.html
p477
sg29
g104
sg31
Nsg32
g446
stRp478
asg106
g1
(g2
g3
(dp479
S'title_detail'
p480
g1
(g2
g3
(dp481
g27
S'http://feeds.feedburner.com/markdua?format=xml'
p482
sg29
g104
sg32
Vwww.markdoesntunderstandanimals.com
p483
sg31
NstRp484
sg90
Vhttp://www.markdoesntunderstandanimals.com/
p485
sS'id'
p486
Vtag:google.com,2005:reader/user/00865265804952096795/source/com.google/link
p487
sg36
(lp488
g1
(g2
g3
(dp489
S'href'
p490
g485
sS'type'
p491
Vtext/html
p492
sS'rel'
p493
Valternate
p494
stRp495
asg14
g483
stRp496
sS'title_detail'
p497
g1
(g2
g3
(dp498
g27
S'http://feeds.feedburner.com/markdua?format=xml'
p499
sg29
g104
sg31
Nsg32
g474
stRp500
sg129
V2010-12-30T06:02:25Z
p501
sg131
(lp502
g320
aV*
ag321
ag322
astRp503
ag1
(g2
g3
(dp504
g7
V2010-12-22T18:41:46Z
p505
sg68
V<img title="fact: animals are small" src="http://www.markdoesntunderstandanimals.com/mark42.png" />
p506
sg9
g10
((I2010
I12
I22
I18
I41
I46
I2
I356
I0
t(dtRp507
sg36
(lp508
g1
(g2
g3
(dp509
S'href'
p510
Vhttp://feedproxy.google.com/~r/markdua/~3/o_UwFOams9Y/042.html
p511
sS'type'
p512
Vtext/html
p513
sS'rel'
p514
Valternate
p515
stRp516
ag1
(g2
g3
(dp517
S'href'
p518
Vhttp://www.markdoesntunderstandanimals.com/
p519
sg29
g49
sS'rel'
p520
Vrelated
p521
sS'title'
p522
Vwww.markdoesntunderstandanimals.com
p523
stRp524
asS'feedburner_origlink'
p525
Vhttp://www.markdoesntunderstandanimals.com/042.html
p526
sg90
g511
sS'author_detail'
p527
g1
(g2
g3
(dp528
g22
V(author unknown)
p529
stRp530
sS'id'
p531
Vtag:google.com,2005:reader/item/10514987335d0c53
p532
sg97
g10
((I2010
I12
I22
I18
I41
I46
I2
I356
I0
t(dtRp533
sg14
VMark Doesn't Understand Animals
p534
sg16
g529
sg100
(lp535
g1
(g2
g3
(dp536
g27
Vhttp://www.markdoesntunderstandanimals.com/042.html
p537
sg29
g104
sg31
Nsg32
g506
stRp538
asg106
g1
(g2
g3
(dp539
S'title_detail'
p540
g1
(g2
g3
(dp541
g27
S'http://feeds.feedburner.com/markdua?format=xml'
p542
sg29
g104
sg32
Vwww.markdoesntunderstandanimals.com
p543
sg31
NstRp544
sg90
Vhttp://www.markdoesntunderstandanimals.com/
p545
sS'id'
p546
Vtag:google.com,2005:reader/user/00865265804952096795/source/com.google/link
p547
sg36
(lp548
g1
(g2
g3
(dp549
S'href'
p550
g545
sS'type'
p551
Vtext/html
p552
sS'rel'
p553
Valternate
p554
stRp555
asg14
g543
stRp556
sS'title_detail'
p557
g1
(g2
g3
(dp558
g27
S'http://feeds.feedburner.com/markdua?format=xml'
p559
sg29
g104
sg31
Nsg32
g534
stRp560
sg129
V2010-12-22T18:41:46Z
p561
sg131
(lp562
g320
aV*
ag321
ag322
astRp563
ag1
(g2
g3
(dp564
g7
V2010-12-16T02:25:24Z
p565
sg68
V<img title="not very good at this" src="http://www.markdoesntunderstandanimals.com/mark41.png" />
p566
sg9
g10
((I2010
I12
I16
I2
I25
I24
I3
I350
I0
t(dtRp567
sg36
(lp568
g1
(g2
g3
(dp569
S'href'
p570
Vhttp://feedproxy.google.com/~r/markdua/~3/qKzTZrq0I7U/041.html
p571
sS'type'
p572
Vtext/html
p573
sS'rel'
p574
Valternate
p575
stRp576
ag1
(g2
g3
(dp577
S'href'
p578
Vhttp://www.markdoesntunderstandanimals.com/
p579
sg29
g49
sS'rel'
p580
Vrelated
p581
sS'title'
p582
Vwww.markdoesntunderstandanimals.com
p583
stRp584
asS'feedburner_origlink'
p585
Vhttp://www.markdoesntunderstandanimals.com/041.html
p586
sg90
g571
sS'author_detail'
p587
g1
(g2
g3
(dp588
g22
V(author unknown)
p589
stRp590
sS'id'
p591
Vtag:google.com,2005:reader/item/43878c2ab00cb35c
p592
sg97
g10
((I2010
I12
I16
I2
I25
I24
I3
I350
I0
t(dtRp593
sg14
VMark Doesn't Understand Animals
p594
sg16
g589
sg100
(lp595
g1
(g2
g3
(dp596
g27
Vhttp://www.markdoesntunderstandanimals.com/041.html
p597
sg29
g104
sg31
Nsg32
g566
stRp598
asg106
g1
(g2
g3
(dp599
S'title_detail'
p600
g1
(g2
g3
(dp601
g27
S'http://feeds.feedburner.com/markdua?format=xml'
p602
sg29
g104
sg32
Vwww.markdoesntunderstandanimals.com
p603
sg31
NstRp604
sg90
Vhttp://www.markdoesntunderstandanimals.com/
p605
sS'id'
p606
Vtag:google.com,2005:reader/user/00865265804952096795/source/com.google/link
p607
sg36
(lp608
g1
(g2
g3
(dp609
S'href'
p610
g605
sS'type'
p611
Vtext/html
p612
sS'rel'
p613
Valternate
p614
stRp615
asg14
g603
stRp616
sS'title_detail'
p617
g1
(g2
g3
(dp618
g27
S'http://feeds.feedburner.com/markdua?format=xml'
p619
sg29
g104
sg31
Nsg32
g594
stRp620
sg129
V2010-12-16T02:25:24Z
p621
sg131
(lp622
g320
aV*
ag321
ag322
astRp623
ag1
(g2
g3
(dp624
g7
V2010-12-08T22:07:51Z
p625
sg68
V<img title="bip bip bip" src="http://www.markdoesntunderstandanimals.com/mark40.png" />
p626
sg9
g10
((I2010
I12
I8
I22
I7
I51
I2
I342
I0
t(dtRp627
sg36
(lp628
g1
(g2
g3
(dp629
S'href'
p630
Vhttp://feedproxy.google.com/~r/markdua/~3/vOPnG5ffwUo/040.html
p631
sS'type'
p632
Vtext/html
p633
sS'rel'
p634
Valternate
p635
stRp636
ag1
(g2
g3
(dp637
S'href'
p638
Vhttp://www.markdoesntunderstandanimals.com/
p639
sg29
g49
sS'rel'
p640
Vrelated
p641
sS'title'
p642
Vwww.markdoesntunderstandanimals.com
p643
stRp644
asS'feedburner_origlink'
p645
Vhttp://www.markdoesntunderstandanimals.com/040.html
p646
sg90
g631
sS'author_detail'
p647
g1
(g2
g3
(dp648
g22
V(author unknown)
p649
stRp650
sS'id'
p651
Vtag:google.com,2005:reader/item/49f5380b8bd864d5
p652
sg97
g10
((I2010
I12
I8
I22
I7
I51
I2
I342
I0
t(dtRp653
sg14
VMark Doesn't Understand Animals
p654
sg16
g649
sg100
(lp655
g1
(g2
g3
(dp656
g27
Vhttp://www.markdoesntunderstandanimals.com/040.html
p657
sg29
g104
sg31
Nsg32
g626
stRp658
asg106
g1
(g2
g3
(dp659
S'title_detail'
p660
g1
(g2
g3
(dp661
g27
S'http://feeds.feedburner.com/markdua?format=xml'
p662
sg29
g104
sg32
Vwww.markdoesntunderstandanimals.com
p663
sg31
NstRp664
sg90
Vhttp://www.markdoesntunderstandanimals.com/
p665
sS'id'
p666
Vtag:google.com,2005:reader/user/00865265804952096795/source/com.google/link
p667
sg36
(lp668
g1
(g2
g3
(dp669
S'href'
p670
g665
sS'type'
p671
Vtext/html
p672
sS'rel'
p673
Valternate
p674
stRp675
asg14
g663
stRp676
sS'title_detail'
p677
g1
(g2
g3
(dp678
g27
S'http://feeds.feedburner.com/markdua?format=xml'
p679
sg29
g104
sg31
Nsg32
g654
stRp680
sg129
V2010-12-08T22:07:51Z
p681
sg131
(lp682
g320
aV*
ag321
ag322
astRp683
ag1
(g2
g3
(dp684
g7
V2010-12-04T06:53:49Z
p685
sg68
V<img title="eggy weggs..." src="http://www.markdoesntunderstandanimals.com/mark39.png" />
p686
sg9
g10
((I2010
I12
I4
I6
I53
I49
I5
I338
I0
t(dtRp687
sg36
(lp688
g1
(g2
g3
(dp689
S'href'
p690
Vhttp://feedproxy.google.com/~r/markdua/~3/-Dm0SoB8IGA/039.html
p691
sS'type'
p692
Vtext/html
p693
sS'rel'
p694
Valternate
p695
stRp696
ag1
(g2
g3
(dp697
S'href'
p698
Vhttp://www.markdoesntunderstandanimals.com/
p699
sg29
g49
sS'rel'
p700
Vrelated
p701
sS'title'
p702
Vwww.markdoesntunderstandanimals.com
p703
stRp704
asS'feedburner_origlink'
p705
Vhttp://www.markdoesntunderstandanimals.com/039.html
p706
sg90
g691
sS'author_detail'
p707
g1
(g2
g3
(dp708
g22
V(author unknown)
p709
stRp710
sS'id'
p711
Vtag:google.com,2005:reader/item/ee29762bc278c81e
p712
sg97
g10
((I2010
I12
I4
I6
I53
I49
I5
I338
I0
t(dtRp713
sg14
VMark Doesn't Understand Animals
p714
sg16
g709
sg100
(lp715
g1
(g2
g3
(dp716
g27
Vhttp://www.markdoesntunderstandanimals.com/039.html
p717
sg29
g104
sg31
Nsg32
g686
stRp718
asg106
g1
(g2
g3
(dp719
S'title_detail'
p720
g1
(g2
g3
(dp721
g27
S'http://feeds.feedburner.com/markdua?format=xml'
p722
sg29
g104
sg32
Vwww.markdoesntunderstandanimals.com
p723
sg31
NstRp724
sg90
Vhttp://www.markdoesntunderstandanimals.com/
p725
sS'id'
p726
Vtag:google.com,2005:reader/user/00865265804952096795/source/com.google/link
p727
sg36
(lp728
g1
(g2
g3
(dp729
S'href'
p730
g725
sS'type'
p731
Vtext/html
p732
sS'rel'
p733
Valternate
p734
stRp735
asg14
g723
stRp736
sS'title_detail'
p737
g1
(g2
g3
(dp738
g27
S'http://feeds.feedburner.com/markdua?format=xml'
p739
sg29
g104
sg31
Nsg32
g714
stRp740
sg129
V2010-12-04T06:53:49Z
p741
sg131
(lp742
g320
aV*
ag321
ag322
astRp743
ag1
(g2
g3
(dp744
g7
V2010-11-30T21:16:13Z
p745
sg68
V<img title="not again" src="http://www.markdoesntunderstandanimals.com/mark38.png" />
p746
sg9
g10
((I2010
I11
I30
I21
I16
I13
I1
I334
I0
t(dtRp747
sg36
(lp748
g1
(g2
g3
(dp749
S'href'
p750
Vhttp://feedproxy.google.com/~r/markdua/~3/4kqIpHqYizs/038.html
p751
sS'type'
p752
Vtext/html
p753
sS'rel'
p754
Valternate
p755
stRp756
ag1
(g2
g3
(dp757
S'href'
p758
Vhttp://www.markdoesntunderstandanimals.com/
p759
sg29
g49
sS'rel'
p760
Vrelated
p761
sS'title'
p762
Vwww.markdoesntunderstandanimals.com
p763
stRp764
asS'feedburner_origlink'
p765
Vhttp://www.markdoesntunderstandanimals.com/038.html
p766
sg90
g751
sS'author_detail'
p767
g1
(g2
g3
(dp768
g22
V(author unknown)
p769
stRp770
sS'id'
p771
Vtag:google.com,2005:reader/item/a6e4ce78ecb50ca3
p772
sg97
g10
((I2010
I11
I30
I21
I16
I13
I1
I334
I0
t(dtRp773
sg14
VMark Doesn't Understand Animals
p774
sg16
g769
sg100
(lp775
g1
(g2
g3
(dp776
g27
Vhttp://www.markdoesntunderstandanimals.com/038.html
p777
sg29
g104
sg31
Nsg32
g746
stRp778
asg106
g1
(g2
g3
(dp779
S'title_detail'
p780
g1
(g2
g3
(dp781
g27
S'http://feeds.feedburner.com/markdua?format=xml'
p782
sg29
g104
sg32
Vwww.markdoesntunderstandanimals.com
p783
sg31
NstRp784
sg90
Vhttp://www.markdoesntunderstandanimals.com/
p785
sS'id'
p786
Vtag:google.com,2005:reader/user/00865265804952096795/source/com.google/link
p787
sg36
(lp788
g1
(g2
g3
(dp789
S'href'
p790
g785
sS'type'
p791
Vtext/html
p792
sS'rel'
p793
Valternate
p794
stRp795
asg14
g783
stRp796
sS'title_detail'
p797
g1
(g2
g3
(dp798
g27
S'http://feeds.feedburner.com/markdua?format=xml'
p799
sg29
g104
sg31
Nsg32
g774
stRp800
sg129
V2010-11-30T21:16:13Z
p801
sg131
(lp802
g320
aV*
ag321
ag322
astRp803
ag1
(g2
g3
(dp804
g7
V2010-11-29T04:03:35Z
p805
sg68
V<img title="you don't even wanna know what happens" src="http://www.markdoesntunderstandanimals.com/mark37.png" />
p806
sg9
g10
((I2010
I11
I29
I4
I3
I35
I0
I333
I0
t(dtRp807
sg36
(lp808
g1
(g2
g3
(dp809
S'href'
p810
Vhttp://feedproxy.google.com/~r/markdua/~3/AnB1Yp_P9fk/037.html
p811
sS'type'
p812
Vtext/html
p813
sS'rel'
p814
Valternate
p815
stRp816
ag1
(g2
g3
(dp817
S'href'
p818
Vhttp://www.markdoesntunderstandanimals.com/
p819
sg29
g49
sS'rel'
p820
Vrelated
p821
sS'title'
p822
Vwww.markdoesntunderstandanimals.com
p823
stRp824
asS'feedburner_origlink'
p825
Vhttp://www.markdoesntunderstandanimals.com/037.html
p826
sg90
g811
sS'author_detail'
p827
g1
(g2
g3
(dp828
g22
V(author unknown)
p829
stRp830
sS'id'
p831
Vtag:google.com,2005:reader/item/dd112190fc61e5ac
p832
sg97
g10
((I2010
I11
I29
I4
I3
I35
I0
I333
I0
t(dtRp833
sg14
VMark Doesn't Understand Animals
p834
sg16
g829
sg100
(lp835
g1
(g2
g3
(dp836
g27
Vhttp://www.markdoesntunderstandanimals.com/037.html
p837
sg29
g104
sg31
Nsg32
g806
stRp838
asg106
g1
(g2
g3
(dp839
S'title_detail'
p840
g1
(g2
g3
(dp841
g27
S'http://feeds.feedburner.com/markdua?format=xml'
p842
sg29
g104
sg32
Vwww.markdoesntunderstandanimals.com
p843
sg31
NstRp844
sg90
Vhttp://www.markdoesntunderstandanimals.com/
p845
sS'id'
p846
Vtag:google.com,2005:reader/user/00865265804952096795/source/com.google/link
p847
sg36
(lp848
g1
(g2
g3
(dp849
S'href'
p850
g845
sS'type'
p851
Vtext/html
p852
sS'rel'
p853
Valternate
p854
stRp855
asg14
g843
stRp856
sS'title_detail'
p857
g1
(g2
g3
(dp858
g27
S'http://feeds.feedburner.com/markdua?format=xml'
p859
sg29
g104
sg31
Nsg32
g834
stRp860
sg129
V2010-11-29T04:03:35Z
p861
sg131
(lp862
g320
aV*
ag321
ag322
astRp863
ag1
(g2
g3
(dp864
g7
V2010-11-10T05:28:20Z
p865
sg68
V<img title="imminent, unescapable" src="http://www.markdoesntunderstandanimals.com/mark36.png" />\u000a\u000a<br />
p866
sg9
g10
((I2010
I11
I10
I5
I28
I20
I2
I314
I0
t(dtRp867
sg36
(lp868
g1
(g2
g3
(dp869
S'href'
p870
Vhttp://feedproxy.google.com/~r/markdua/~3/AcwglZtBFso/
p871
sS'type'
p872
Vtext/html
p873
sS'rel'
p874
Valternate
p875
stRp876
ag1
(g2
g3
(dp877
S'href'
p878
Vhttp://www.markdoesntunderstandanimals.com/
p879
sg29
g49
sS'rel'
p880
Vrelated
p881
sS'title'
p882
Vwww.markdoesntunderstandanimals.com
p883
stRp884
asS'feedburner_origlink'
p885
Vhttp://www.markdoesntunderstandanimals.com/
p886
sg90
g871
sS'author_detail'
p887
g1
(g2
g3
(dp888
g22
V(author unknown)
p889
stRp890
sS'id'
p891
Vtag:google.com,2005:reader/item/1558ecef9e5a4a55
p892
sg97
g10
((I2010
I11
I10
I5
I28
I20
I2
I314
I0
t(dtRp893
sg14
VMark Doesn't Understand Animals
p894
sg16
g889
sg100
(lp895
g1
(g2
g3
(dp896
g27
Vhttp://www.markdoesntunderstandanimals.com/
p897
sg29
g104
sg31
Nsg32
g866
stRp898
asg106
g1
(g2
g3
(dp899
S'title_detail'
p900
g1
(g2
g3
(dp901
g27
S'http://feeds.feedburner.com/markdua?format=xml'
p902
sg29
g104
sg32
Vwww.markdoesntunderstandanimals.com
p903
sg31
NstRp904
sg90
Vhttp://www.markdoesntunderstandanimals.com/
p905
sS'id'
p906
Vtag:google.com,2005:reader/user/00865265804952096795/source/com.google/link
p907
sg36
(lp908
g1
(g2
g3
(dp909
S'href'
p910
g905
sS'type'
p911
Vtext/html
p912
sS'rel'
p913
Valternate
p914
stRp915
asg14
g903
stRp916
sS'title_detail'
p917
g1
(g2
g3
(dp918
g27
S'http://feeds.feedburner.com/markdua?format=xml'
p919
sg29
g104
sg31
Nsg32
g894
stRp920
sg129
V2010-11-10T05:28:20Z
p921
sg131
(lp922
g320
aV*
ag321
ag322
astRp923
ag1
(g2
g3
(dp924
g7
V2010-11-02T05:26:27Z
p925
sg68
V<img title="''I've never seen a turtle. But I know what you mean.''" src="http://www.markdoesntunderstandanimals.com/mark35.png" />
p926
sg9
g10
((I2010
I11
I2
I5
I26
I27
I1
I306
I0
t(dtRp927
sg36
(lp928
g1
(g2
g3
(dp929
S'href'
p930
Vhttp://feedproxy.google.com/~r/markdua/~3/xS3Mqrp5Uu4/035.html
p931
sS'type'
p932
Vtext/html
p933
sS'rel'
p934
Valternate
p935
stRp936
ag1
(g2
g3
(dp937
S'href'
p938
Vhttp://www.markdoesntunderstandanimals.com/
p939
sg29
g49
sS'rel'
p940
Vrelated
p941
sS'title'
p942
Vwww.markdoesntunderstandanimals.com
p943
stRp944
asS'feedburner_origlink'
p945
Vhttp://www.markdoesntunderstandanimals.com/035.html
p946
sg90
g931
sS'author_detail'
p947
g1
(g2
g3
(dp948
g22
V(author unknown)
p949
stRp950
sS'id'
p951
Vtag:google.com,2005:reader/item/b9d526b78f271a5e
p952
sg97
g10
((I2010
I11
I2
I5
I26
I27
I1
I306
I0
t(dtRp953
sg14
VMark Doesn't Understand Animals
p954
sg16
g949
sg100
(lp955
g1
(g2
g3
(dp956
g27
Vhttp://www.markdoesntunderstandanimals.com/035.html
p957
sg29
g104
sg31
Nsg32
g926
stRp958
asg106
g1
(g2
g3
(dp959
S'title_detail'
p960
g1
(g2
g3
(dp961
g27
S'http://feeds.feedburner.com/markdua?format=xml'
p962
sg29
g104
sg32
Vwww.markdoesntunderstandanimals.com
p963
sg31
NstRp964
sg90
Vhttp://www.markdoesntunderstandanimals.com/
p965
sS'id'
p966
Vtag:google.com,2005:reader/user/00865265804952096795/source/com.google/link
p967
sg36
(lp968
g1
(g2
g3
(dp969
S'href'
p970
g965
sS'type'
p971
Vtext/html
p972
sS'rel'
p973
Valternate
p974
stRp975
asg14
g963
stRp976
sS'title_detail'
p977
g1
(g2
g3
(dp978
g27
S'http://feeds.feedburner.com/markdua?format=xml'
p979
sg29
g104
sg31
Nsg32
g954
stRp980
sg129
V2010-11-02T05:26:27Z
p981
sg131
(lp982
g320
aV*
ag321
ag322
astRp983
ag1
(g2
g3
(dp984
g7
V2010-10-28T02:23:27Z
p985
sg68
V<img title="hippo hippo hippo" src="http://www.markdoesntunderstandanimals.com/mark34.png" alt="hippo" />
p986
sg9
g10
((I2010
I10
I28
I2
I23
I27
I3
I301
I0
t(dtRp987
sg36
(lp988
g1
(g2
g3
(dp989
S'href'
p990
Vhttp://feedproxy.google.com/~r/markdua/~3/IW0EiaEiZuA/034.html
p991
sS'type'
p992
Vtext/html
p993
sS'rel'
p994
Valternate
p995
stRp996
ag1
(g2
g3
(dp997
S'href'
p998
Vhttp://www.markdoesntunderstandanimals.com/
p999
sg29
g49
sS'rel'
p1000
Vrelated
p1001
sS'title'
p1002
Vwww.markdoesntunderstandanimals.com
p1003
stRp1004
asS'feedburner_origlink'
p1005
Vhttp://www.markdoesntunderstandanimals.com/034.html
p1006
sg90
g991
sS'author_detail'
p1007
g1
(g2
g3
(dp1008
g22
V(author unknown)
p1009
stRp1010
sS'id'
p1011
Vtag:google.com,2005:reader/item/b923423ab2c23ffb
p1012
sg97
g10
((I2010
I10
I28
I2
I23
I27
I3
I301
I0
t(dtRp1013
sg14
VMark Doesn't Understand Animals
p1014
sg16
g1009
sg100
(lp1015
g1
(g2
g3
(dp1016
g27
Vhttp://www.markdoesntunderstandanimals.com/034.html
p1017
sg29
g104
sg31
Nsg32
g986
stRp1018
asg106
g1
(g2
g3
(dp1019
S'title_detail'
p1020
g1
(g2
g3
(dp1021
g27
S'http://feeds.feedburner.com/markdua?format=xml'
p1022
sg29
g104
sg32
Vwww.markdoesntunderstandanimals.com
p1023
sg31
NstRp1024
sg90
Vhttp://www.markdoesntunderstandanimals.com/
p1025
sS'id'
p1026
Vtag:google.com,2005:reader/user/00865265804952096795/source/com.google/link
p1027
sg36
(lp1028
g1
(g2
g3
(dp1029
S'href'
p1030
g1025
sS'type'
p1031
Vtext/html
p1032
sS'rel'
p1033
Valternate
p1034
stRp1035
asg14
g1023
stRp1036
sS'title_detail'
p1037
g1
(g2
g3
(dp1038
g27
S'http://feeds.feedburner.com/markdua?format=xml'
p1039
sg29
g104
sg31
Nsg32
g1014
stRp1040
sg129
V2010-10-28T02:23:27Z
p1041
sg131
(lp1042
g320
aV*
ag321
ag322
astRp1043
ag1
(g2
g3
(dp1044
g7
V2010-10-23T18:50:18Z
p1045
sg68
V<img title="they are basically just rocks" src="http://www.markdoesntunderstandanimals.com/mark33.png" alt="clams" />
p1046
sg9
g10
((I2010
I10
I23
I18
I50
I18
I5
I296
I0
t(dtRp1047
sg36
(lp1048
g1
(g2
g3
(dp1049
S'href'
p1050
Vhttp://feedproxy.google.com/~r/markdua/~3/YmkysxhlYS4/033.html
p1051
sS'type'
p1052
Vtext/html
p1053
sS'rel'
p1054
Valternate
p1055
stRp1056
ag1
(g2
g3
(dp1057
S'href'
p1058
Vhttp://www.markdoesntunderstandanimals.com/
p1059
sg29
g49
sS'rel'
p1060
Vrelated
p1061
sS'title'
p1062
Vwww.markdoesntunderstandanimals.com
p1063
stRp1064
asS'feedburner_origlink'
p1065
Vhttp://www.markdoesntunderstandanimals.com/033.html
p1066
sg90
g1051
sS'author_detail'
p1067
g1
(g2
g3
(dp1068
g22
V(author unknown)
p1069
stRp1070
sS'id'
p1071
Vtag:google.com,2005:reader/item/c53a512303feed8e
p1072
sg97
g10
((I2010
I10
I23
I18
I50
I18
I5
I296
I0
t(dtRp1073
sg14
VMark Doesn't Understand Animals
p1074
sg16
g1069
sg100
(lp1075
g1
(g2
g3
(dp1076
g27
Vhttp://www.markdoesntunderstandanimals.com/033.html
p1077
sg29
g104
sg31
Nsg32
g1046
stRp1078
asg106
g1
(g2
g3
(dp1079
S'title_detail'
p1080
g1
(g2
g3
(dp1081
g27
S'http://feeds.feedburner.com/markdua?format=xml'
p1082
sg29
g104
sg32
Vwww.markdoesntunderstandanimals.com
p1083
sg31
NstRp1084
sg90
Vhttp://www.markdoesntunderstandanimals.com/
p1085
sS'id'
p1086
Vtag:google.com,2005:reader/user/00865265804952096795/source/com.google/link
p1087
sg36
(lp1088
g1
(g2
g3
(dp1089
S'href'
p1090
g1085
sS'type'
p1091
Vtext/html
p1092
sS'rel'
p1093
Valternate
p1094
stRp1095
asg14
g1083
stRp1096
sS'title_detail'
p1097
g1
(g2
g3
(dp1098
g27
S'http://feeds.feedburner.com/markdua?format=xml'
p1099
sg29
g104
sg31
Nsg32
g1074
stRp1100
sg129
V2010-10-23T18:50:18Z
p1101
sg131
(lp1102
g320
aV*
ag321
ag322
astRp1103
ag1
(g2
g3
(dp1104
g7
V2010-10-23T18:46:10Z
p1105
sg68
V<img title="he is making progress" src="http://www.markdoesntunderstandanimals.com/mark32.png" alt="all animals" />
p1106
sg9
g10
((I2010
I10
I23
I18
I46
I10
I5
I296
I0
t(dtRp1107
sg36
(lp1108
g1
(g2
g3
(dp1109
S'href'
p1110
Vhttp://feedproxy.google.com/~r/markdua/~3/f7JRM27fvXU/032.html
p1111
sS'type'
p1112
Vtext/html
p1113
sS'rel'
p1114
Valternate
p1115
stRp1116
ag1
(g2
g3
(dp1117
S'href'
p1118
Vhttp://www.markdoesntunderstandanimals.com/
p1119
sg29
g49
sS'rel'
p1120
Vrelated
p1121
sS'title'
p1122
Vwww.markdoesntunderstandanimals.com
p1123
stRp1124
asS'feedburner_origlink'
p1125
Vhttp://www.markdoesntunderstandanimals.com/032.html
p1126
sg90
g1111
sS'author_detail'
p1127
g1
(g2
g3
(dp1128
g22
V(author unknown)
p1129
stRp1130
sS'id'
p1131
Vtag:google.com,2005:reader/item/bc84591af2ac1d93
p1132
sg97
g10
((I2010
I10
I23
I18
I46
I10
I5
I296
I0
t(dtRp1133
sg14
VMark Doesn't Understand Animals
p1134
sg16
g1129
sg100
(lp1135
g1
(g2
g3
(dp1136
g27
Vhttp://www.markdoesntunderstandanimals.com/032.html
p1137
sg29
g104
sg31
Nsg32
g1106
stRp1138
asg106
g1
(g2
g3
(dp1139
S'title_detail'
p1140
g1
(g2
g3
(dp1141
g27
S'http://feeds.feedburner.com/markdua?format=xml'
p1142
sg29
g104
sg32
Vwww.markdoesntunderstandanimals.com
p1143
sg31
NstRp1144
sg90
Vhttp://www.markdoesntunderstandanimals.com/
p1145
sS'id'
p1146
Vtag:google.com,2005:reader/user/00865265804952096795/source/com.google/link
p1147
sg36
(lp1148
g1
(g2
g3
(dp1149
S'href'
p1150
g1145
sS'type'
p1151
Vtext/html
p1152
sS'rel'
p1153
Valternate
p1154
stRp1155
asg14
g1143
stRp1156
sS'title_detail'
p1157
g1
(g2
g3
(dp1158
g27
S'http://feeds.feedburner.com/markdua?format=xml'
p1159
sg29
g104
sg31
Nsg32
g1134
stRp1160
sg129
V2010-10-23T18:46:10Z
p1161
sg131
(lp1162
g320
aV*
ag321
ag322
astRp1163
ag1
(g2
g3
(dp1164
g7
V2010-10-23T18:45:52Z
p1165
sg68
V<img title="call for a lambulance" src="http://www.markdoesntunderstandanimals.com/mark31.png" alt="sheep" />
p1166
sg9
g10
((I2010
I10
I23
I18
I45
I52
I5
I296
I0
t(dtRp1167
sg36
(lp1168
g1
(g2
g3
(dp1169
S'href'
p1170
Vhttp://feedproxy.google.com/~r/markdua/~3/zuzcu0Kl8FQ/031.html
p1171
sS'type'
p1172
Vtext/html
p1173
sS'rel'
p1174
Valternate
p1175
stRp1176
ag1
(g2
g3
(dp1177
S'href'
p1178
Vhttp://www.markdoesntunderstandanimals.com/
p1179
sg29
g49
sS'rel'
p1180
Vrelated
p1181
sS'title'
p1182
Vwww.markdoesntunderstandanimals.com
p1183
stRp1184
asS'feedburner_origlink'
p1185
Vhttp://www.markdoesntunderstandanimals.com/031.html
p1186
sg90
g1171
sS'author_detail'
p1187
g1
(g2
g3
(dp1188
g22
V(author unknown)
p1189
stRp1190
sS'id'
p1191
Vtag:google.com,2005:reader/item/a45b5e953e1877a5
p1192
sg97
g10
((I2010
I10
I23
I18
I45
I52
I5
I296
I0
t(dtRp1193
sg14
VMark Doesn't Understand Animals
p1194
sg16
g1189
sg100
(lp1195
g1
(g2
g3
(dp1196
g27
Vhttp://www.markdoesntunderstandanimals.com/031.html
p1197
sg29
g104
sg31
Nsg32
g1166
stRp1198
asg106
g1
(g2
g3
(dp1199
S'title_detail'
p1200
g1
(g2
g3
(dp1201
g27
S'http://feeds.feedburner.com/markdua?format=xml'
p1202
sg29
g104
sg32
Vwww.markdoesntunderstandanimals.com
p1203
sg31
NstRp1204
sg90
Vhttp://www.markdoesntunderstandanimals.com/
p1205
sS'id'
p1206
Vtag:google.com,2005:reader/user/00865265804952096795/source/com.google/link
p1207
sg36
(lp1208
g1
(g2
g3
(dp1209
S'href'
p1210
g1205
sS'type'
p1211
Vtext/html
p1212
sS'rel'
p1213
Valternate
p1214
stRp1215
asg14
g1203
stRp1216
sS'title_detail'
p1217
g1
(g2
g3
(dp1218
g27
S'http://feeds.feedburner.com/markdua?format=xml'
p1219
sg29
g104
sg31
Nsg32
g1194
stRp1220
sg129
V2010-10-23T18:45:52Z
p1221
sg131
(lp1222
g320
aV*
ag321
ag322
astRp1223
ag1
(g2
g3
(dp1224
g7
V2010-10-23T18:45:39Z
p1225
sg68
V<img title=":3" src="http://www.markdoesntunderstandanimals.com/mark30.png" alt="cat" />
p1226
sg9
g10
((I2010
I10
I23
I18
I45
I39
I5
I296
I0
t(dtRp1227
sg36
(lp1228
g1
(g2
g3
(dp1229
S'href'
p1230
Vhttp://feedproxy.google.com/~r/markdua/~3/hC3E_Jb0YkM/030.html
p1231
sS'type'
p1232
Vtext/html
p1233
sS'rel'
p1234
Valternate
p1235
stRp1236
ag1
(g2
g3
(dp1237
S'href'
p1238
Vhttp://www.markdoesntunderstandanimals.com/
p1239
sg29
g49
sS'rel'
p1240
Vrelated
p1241
sS'title'
p1242
Vwww.markdoesntunderstandanimals.com
p1243
stRp1244
asS'feedburner_origlink'
p1245
Vhttp://www.markdoesntunderstandanimals.com/030.html
p1246
sg90
g1231
sS'author_detail'
p1247
g1
(g2
g3
(dp1248
g22
V(author unknown)
p1249
stRp1250
sS'id'
p1251
Vtag:google.com,2005:reader/item/1a167f98d65fee4f
p1252
sg97
g10
((I2010
I10
I23
I18
I45
I39
I5
I296
I0
t(dtRp1253
sg14
VMark Doesn't Understand Animals
p1254
sg16
g1249
sg100
(lp1255
g1
(g2
g3
(dp1256
g27
Vhttp://www.markdoesntunderstandanimals.com/030.html
p1257
sg29
g104
sg31
Nsg32
g1226
stRp1258
asg106
g1
(g2
g3
(dp1259
S'title_detail'
p1260
g1
(g2
g3
(dp1261
g27
S'http://feeds.feedburner.com/markdua?format=xml'
p1262
sg29
g104
sg32
Vwww.markdoesntunderstandanimals.com
p1263
sg31
NstRp1264
sg90
Vhttp://www.markdoesntunderstandanimals.com/
p1265
sS'id'
p1266
Vtag:google.com,2005:reader/user/00865265804952096795/source/com.google/link
p1267
sg36
(lp1268
g1
(g2
g3
(dp1269
S'href'
p1270
g1265
sS'type'
p1271
Vtext/html
p1272
sS'rel'
p1273
Valternate
p1274
stRp1275
asg14
g1263
stRp1276
sS'title_detail'
p1277
g1
(g2
g3
(dp1278
g27
S'http://feeds.feedburner.com/markdua?format=xml'
p1279
sg29
g104
sg31
Nsg32
g1254
stRp1280
sg129
V2010-10-23T18:45:39Z
p1281
sg131
(lp1282
g320
aV*
ag321
ag322
astRp1283
ag1
(g2
g3
(dp1284
S'updated'
p1285
V2010-10-23T18:45:26Z
p1286
sS'subtitle'
p1287
V<img title="i am waiting super mouse" src="http://www.markdoesntunderstandanimals.com/mark29.png" alt="squirrel" />
p1288
sS'updated_parsed'
p1289
g10
((I2010
I10
I23
I18
I45
I26
I5
I296
I0
t(dtRp1290
sS'links'
p1291
(lp1292
g1
(g2
g3
(dp1293
S'href'
p1294
Vhttp://feedproxy.google.com/~r/markdua/~3/wWv1wPoPHEg/029.html
p1295
sS'type'
p1296
Vtext/html
p1297
sS'rel'
p1298
Valternate
p1299
stRp1300
ag1
(g2
g3
(dp1301
S'href'
p1302
Vhttp://www.markdoesntunderstandanimals.com/
p1303
sS'type'
p1304
S'text/html'
p1305
sS'rel'
p1306
Vrelated
p1307
sS'title'
p1308
Vwww.markdoesntunderstandanimals.com
p1309
stRp1310
asS'feedburner_origlink'
p1311
Vhttp://www.markdoesntunderstandanimals.com/029.html
p1312
sS'link'
p1313
g1295
sS'author_detail'
p1314
g1
(g2
g3
(dp1315
S'name'
p1316
V(author unknown)
p1317
stRp1318
sS'id'
p1319
Vtag:google.com,2005:reader/item/6ed957efc0e7f010
p1320
sS'published_parsed'
p1321
g10
((I2010
I10
I23
I18
I45
I26
I5
I296
I0
t(dtRp1322
sS'title'
p1323
VMark Doesn't Understand Animals
p1324
sS'author'
p1325
g1317
sS'content'
p1326
(lp1327
g1
(g2
g3
(dp1328
S'base'
p1329
Vhttp://www.markdoesntunderstandanimals.com/029.html
p1330
sg1304
S'text/html'
p1331
sS'value'
p1332
g1288
sS'language'
p1333
NstRp1334
asS'source'
p1335
g1
(g2
g3
(dp1336
S'title_detail'
p1337
g1
(g2
g3
(dp1338
g1329
S'http://feeds.feedburner.com/markdua?format=xml'
p1339
sg1304
g1331
sg1333
Nsg1332
Vwww.markdoesntunderstandanimals.com
p1340
stRp1341
sg1313
Vhttp://www.markdoesntunderstandanimals.com/
p1342
sS'id'
p1343
Vtag:google.com,2005:reader/user/00865265804952096795/source/com.google/link
p1344
sg1291
(lp1345
g1
(g2
g3
(dp1346
S'href'
p1347
g1342
sS'type'
p1348
Vtext/html
p1349
sS'rel'
p1350
Valternate
p1351
stRp1352
asg1323
g1340
stRp1353
sS'title_detail'
p1354
g1
(g2
g3
(dp1355
g1329
S'http://feeds.feedburner.com/markdua?format=xml'
p1356
sg1304
g1331
sg1332
g1324
sg1333
NstRp1357
sS'published'
p1358
V2010-10-23T18:45:26Z
p1359
sS'canto_state'
p1360
(lp1361
g320
aV*
ag321
ag322
astRp1362
ag1
(g2
g3
(dp1363
S'updated'
p1364
V2010-10-23T18:45:12Z
p1365
sS'subtitle'
p1366
V<img title="call the police" src="http://www.markdoesntunderstandanimals.com/mark28.png" alt="goose" />
p1367
sS'updated_parsed'
p1368
g10
((I2010
I10
I23
I18
I45
I12
I5
I296
I0
t(dtRp1369
sS'links'
p1370
(lp1371
g1
(g2
g3
(dp1372
S'href'
p1373
Vhttp://feedproxy.google.com/~r/markdua/~3/j5wiMRR8Mrc/028.html
p1374
sS'type'
p1375
Vtext/html
p1376
sS'rel'
p1377
Valternate
p1378
stRp1379
ag1
(g2
g3
(dp1380
S'href'
p1381
Vhttp://www.markdoesntunderstandanimals.com/
p1382
sS'type'
p1383
S'text/html'
p1384
sS'rel'
p1385
Vrelated
p1386
sS'title'
p1387
Vwww.markdoesntunderstandanimals.com
p1388
stRp1389
asS'feedburner_origlink'
p1390
Vhttp://www.markdoesntunderstandanimals.com/028.html
p1391
sS'link'
p1392
g1374
sS'author_detail'
p1393
g1
(g2
g3
(dp1394
S'name'
p1395
V(author unknown)
p1396
stRp1397
sS'id'
p1398
Vtag:google.com,2005:reader/item/088fd7d98a1fb27d
p1399
sS'published_parsed'
p1400
g10
((I2010
I10
I23
I18
I45
I12
I5
I296
I0
t(dtRp1401
sS'title'
p1402
VMark Doesn't Understand Animals
p1403
sS'author'
p1404
g1396
sS'content'
p1405
(lp1406
g1
(g2
g3
(dp1407
S'base'
p1408
Vhttp://www.markdoesntunderstandanimals.com/028.html
p1409
sg1383
S'text/html'
p1410
sS'value'
p1411
g1367
sS'language'
p1412
NstRp1413
asS'source'
p1414
g1
(g2
g3
(dp1415
S'title_detail'
p1416
g1
(g2
g3
(dp1417
g1408
S'http://feeds.feedburner.com/markdua?format=xml'
p1418
sg1383
g1410
sg1412
Nsg1411
Vwww.markdoesntunderstandanimals.com
p1419
stRp1420
sg1392
Vhttp://www.markdoesntunderstandanimals.com/
p1421
sS'id'
p1422
Vtag:google.com,2005:reader/user/00865265804952096795/source/com.google/link
p1423
sg1370
(lp1424
g1
(g2
g3
(dp1425
S'href'
p1426
g1421
sS'type'
p1427
Vtext/html
p1428
sS'rel'
p1429
Valternate
p1430
stRp1431
asg1402
g1419
stRp1432
sS'title_detail'
p1433
g1
(g2
g3
(dp1434
g1408
S'http://feeds.feedburner.com/markdua?format=xml'
p1435
sg1383
g1410
sg1411
g1403
sg1412
NstRp1436
sS'published'
p1437
V2010-10-23T18:45:12Z
p1438
sS'canto_state'
p1439
(lp1440
g320
aV*
ag321
ag322
astRp1441
ag1
(g2
g3
(dp1442
S'updated'
p1443
V2010-10-23T18:44:57Z
p1444
sS'subtitle'
p1445
V<img title="pip pip deary" src="http://www.markdoesntunderstandanimals.com/mark27.png" alt="deer" />
p1446
sS'updated_parsed'
p1447
g10
((I2010
I10
I23
I18
I44
I57
I5
I296
I0
t(dtRp1448
sS'links'
p1449
(lp1450
g1
(g2
g3
(dp1451
S'href'
p1452
Vhttp://feedproxy.google.com/~r/markdua/~3/mrKvn5LRxH4/027.html
p1453
sS'type'
p1454
Vtext/html
p1455
sS'rel'
p1456
Valternate
p1457
stRp1458
ag1
(g2
g3
(dp1459
S'href'
p1460
Vhttp://www.markdoesntunderstandanimals.com/
p1461
sS'type'
p1462
S'text/html'
p1463
sS'rel'
p1464
Vrelated
p1465
sS'title'
p1466
Vwww.markdoesntunderstandanimals.com
p1467
stRp1468
asS'feedburner_origlink'
p1469
Vhttp://www.markdoesntunderstandanimals.com/027.html
p1470
sS'link'
p1471
g1453
sS'author_detail'
p1472
g1
(g2
g3
(dp1473
S'name'
p1474
V(author unknown)
p1475
stRp1476
sS'id'
p1477
Vtag:google.com,2005:reader/item/b93f0c42533aa887
p1478
sS'published_parsed'
p1479
g10
((I2010
I10
I23
I18
I44
I57
I5
I296
I0
t(dtRp1480
sS'title'
p1481
VMark Doesn't Understand Animals
p1482
sS'author'
p1483
g1475
sS'content'
p1484
(lp1485
g1
(g2
g3
(dp1486
S'base'
p1487
Vhttp://www.markdoesntunderstandanimals.com/027.html
p1488
sg1462
S'text/html'
p1489
sS'language'
p1490
NsS'value'
p1491
g1446
stRp1492
asS'source'
p1493
g1
(g2
g3
(dp1494
S'title_detail'
p1495
g1
(g2
g3
(dp1496
g1487
S'http://feeds.feedburner.com/markdua?format=xml'
p1497
sg1462
g1489
sg1491
Vwww.markdoesntunderstandanimals.com
p1498
sg1490
NstRp1499
sg1471
Vhttp://www.markdoesntunderstandanimals.com/
p1500
sS'id'
p1501
Vtag:google.com,2005:reader/user/00865265804952096795/source/com.google/link
p1502
sg1449
(lp1503
g1
(g2
g3
(dp1504
S'href'
p1505
g1500
sS'type'
p1506
Vtext/html
p1507
sS'rel'
p1508
Valternate
p1509
stRp1510
asg1481
g1498
stRp1511
sS'title_detail'
p1512
g1
(g2
g3
(dp1513
g1487
S'http://feeds.feedburner.com/markdua?format=xml'
p1514
sg1462
g1489
sg1490
Nsg1491
g1482
stRp1515
sS'published'
p1516
V2010-10-23T18:44:57Z
p1517
sS'canto_state'
p1518
(lp1519
g320
aV*
ag321
ag322
astRp1520
asS'canto_update'
p1521
F1297684102.709254
sS'headers'
p1522
(dp1523
S'x-xss-protection'
p1524
S'1; mode=block'
p1525
sS'x-content-type-options'
p1526
S'nosniff'
p1527
sS'expires'
p1528
S'Mon, 14 Feb 2011 11:48:29 GMT'
p1529
sS'server'
p1530
S'GSE'
p1531
sS'last-modified'
p1532
S'Mon, 14 Feb 2011 11:15:27 GMT'
p1533
sS'connection'
p1534
S'close'
p1535
sS'etag'
p1536
S'hG8Gr8waBmjy1gjLoMAN2qq7pPg'
p1537
sS'cache-control'
p1538
S'private, max-age=0'
p1539
sS'date'
p1540
S'Mon, 14 Feb 2011 11:48:29 GMT'
p1541
sS'content-type'
p1542
S'text/xml; charset=UTF-8'
p1543
ssg20
S'http://feeds.feedburner.com/markdua?format=xml'
p1544
sS'version'
p1545
S'atom10'
p1546
sg131
(lp1547
sS'etag'
p1548
g1537
sS'namespaces'
p1549
(dp1550
S''
Vhttp://www.w3.org/2005/Atom
p1551
sVmedia
p1552
Vhttp://search.yahoo.com/mrss/
p1553
sS'feedburner'
p1554
Vhttp://rssnamespace.org/feedburner/ext/1.0
p1555
sVgr
p1556
Vhttp://www.google.com/schemas/reader/atom/
p1557
sVidx
p1558
Vurn:atom-extension:indexing
p1559
ssS'canto_version'
p1560
(I0
I7
I9
tp1561
stRp1562
.