ccopy_reg
_reconstructor
p1
(cfeedparser
FeedParserDict
p2
c__builtin__
dict
p3
(dp4
S'feed'
p5
g1
(g2
g3
(dp6
S'lastbuilddate'
p7
VSun, 13 Feb 2011 06:00:00 +0000
p8
sS'subtitle'
p9
Vby Bill Amend
p10
sS'links'
p11
(lp12
g1
(g2
g3
(dp13
S'href'
p14
Vhttp://www.foxtrot.com
p15
sS'type'
p16
S'text/html'
p17
sS'rel'
p18
S'alternate'
p19
stRp20
ag1
(g2
g3
(dp21
S'href'
p22
Vhttp://feeds.feedburner.com/Foxtrotcom
p23
sS'type'
p24
Vapplication/rss+xml
p25
sS'rel'
p26
Vself
p27
stRp28
ag1
(g2
g3
(dp29
S'href'
p30
Vhttp://pubsubhubbub.appspot.com/
p31
sg16
g17
sS'rel'
p32
Vhub
p33
stRp34
asS'generator'
p35
Vhttp://wordpress.org/?v=2.8.4
p36
sS'title'
p37
VFoxTrot.com
p38
sS'generator_detail'
p39
g1
(g2
g3
(dp40
S'name'
p41
g36
stRp42
sS'feedburner_info'
p43
V
sS'subtitle_detail'
p44
g1
(g2
g3
(dp45
S'base'
p46
S'http://feeds.feedburner.com/Foxtrotcom'
p47
sg16
S'text/html'
p48
sS'language'
p49
NsS'value'
p50
g10
stRp51
sg49
Ven
p52
sS'title_detail'
p53
g1
(g2
g3
(dp54
g46
S'http://feeds.feedburner.com/Foxtrotcom'
p55
sg16
S'text/plain'
p56
sg49
Nsg50
g38
stRp57
sS'link'
p58
g15
sS'sy_updateperiod'
p59
Vhourly
p60
sS'sy_updatefrequency'
p61
V1
stRp62
sS'status'
p63
I200
sS'updated'
p64
ctime
struct_time
p65
((I2011
I2
I14
I11
I22
I23
I0
I45
I0
t(dtRp66
sS'encoding'
p67
S'UTF-8'
p68
sS'bozo'
p69
I0
sS'entries'
p70
(lp71
g1
(g2
g3
(dp72
g64
VSun, 13 Feb 2011 06:00:00 +0000
p73
sS'updated_parsed'
p74
g65
((I2011
I2
I13
I6
I0
I0
I6
I44
I0
t(dtRp75
sg11
(lp76
g1
(g2
g3
(dp77
g14
Vhttp://feedproxy.google.com/~r/Foxtrotcom/~3/OcsGd5WVubQ/
p78
sg16
g17
sg18
g19
stRp79
asS'tags'
p80
(lp81
g1
(g2
g3
(dp82
S'term'
p83
VComic
p84
sS'scheme'
p85
NsS'label'
p86
NstRp87
asS'feedburner_origlink'
p88
Vhttp://www.foxtrot.com/2011/02/02132011/
p89
sS'summary_detail'
p90
g1
(g2
g3
(dp91
g46
S'http://feeds.feedburner.com/Foxtrotcom'
p92
sg16
S'text/html'
p93
sg49
Nsg50
V<p><a href="http://www.foxtrot.com/2011/02/02132011/"><img src="http://www.foxtrot.com/comics-rss/2011-02-13-37c361e2.gif" border="0" alt="02/13/2011" title="02/13/2011" /></a></p><img src="http://feeds.feedburner.com/~r/Foxtrotcom/~4/OcsGd5WVubQ" height="1" width="1" />
p94
stRp95
sg58
g78
sS'wfw_commentrss'
p96
Vhttp://www.foxtrot.com/2011/02/02132011/feed/
p97
sS'id'
p98
Vhttp://www.foxtrot.com/2011/02/02132011/
p99
sS'slash_comments'
p100
V0
sg37
V02/13/2011
p101
sS'author'
p102
Vbillamend
p103
sS'comments'
p104
Vhttp://www.foxtrot.com/2011/02/02132011/#comments
p105
sS'summary'
p106
g94
sS'guidislink'
p107
I00
sS'title_detail'
p108
g1
(g2
g3
(dp109
g46
S'http://feeds.feedburner.com/Foxtrotcom'
p110
sg16
S'text/plain'
p111
sg49
Nsg50
g101
stRp112
sS'canto_state'
p113
(lp114
VFoxTrot.com
p115
aV*
aS'read'
p116
astRp117
ag1
(g2
g3
(dp118
g64
VWed, 09 Feb 2011 17:53:59 +0000
p119
sg74
g65
((I2011
I2
I9
I17
I53
I59
I2
I40
I0
t(dtRp120
sg11
(lp121
g1
(g2
g3
(dp122
g14
Vhttp://feedproxy.google.com/~r/Foxtrotcom/~3/Or2JW-irAIA/
p123
sg16
g17
sg18
g19
stRp124
asg80
(lp125
g1
(g2
g3
(dp126
g83
VNews
p127
sg85
Nsg86
NstRp128
asS'feedburner_origlink'
p129
Vhttp://www.foxtrot.com/2011/02/deliciously-doomed/
p130
sS'summary_detail'
p131
g1
(g2
g3
(dp132
g46
S'http://feeds.feedburner.com/Foxtrotcom'
p133
sg16
S'text/html'
p134
sg49
Nsg50
VAfter my December 19 strip ran, a number of readers and Twitter followers sent me pictures of their own Star Trek gingerbread men. They were all great, but Eric Henrickson\u2019s sea of doomed redshirts took the cake, so to speak. What I especially like is how it resembles a big conveyor belt of expendable crewmembers [...]<img src="http://feeds.feedburner.com/~r/Foxtrotcom/~4/Or2JW-irAIA" height="1" width="1" />
p135
stRp136
sg58
g123
sS'wfw_commentrss'
p137
Vhttp://www.foxtrot.com/2011/02/deliciously-doomed/feed/
p138
sg98
Vhttp://www.foxtrot.com/?p=401
p139
sS'slash_comments'
p140
V0
sg37
VDeliciously Doomed
p141
sg102
Vbillamend
p142
sS'comments'
p143
Vhttp://www.foxtrot.com/2011/02/deliciously-doomed/#comments
p144
sg106
g135
sg107
I00
sS'title_detail'
p145
g1
(g2
g3
(dp146
g46
S'http://feeds.feedburner.com/Foxtrotcom'
p147
sg16
S'text/plain'
p148
sg49
Nsg50
g141
stRp149
sg113
(lp150
VFoxTrot.com
p151
aV*
aS'read'
p152
astRp153
ag1
(g2
g3
(dp154
g64
VSun, 06 Feb 2011 06:00:00 +0000
p155
sg74
g65
((I2011
I2
I6
I6
I0
I0
I6
I37
I0
t(dtRp156
sg11
(lp157
g1
(g2
g3
(dp158
g14
Vhttp://feedproxy.google.com/~r/Foxtrotcom/~3/bBGTsFMxi7Y/
p159
sg16
g17
sg18
g19
stRp160
asg80
(lp161
g1
(g2
g3
(dp162
g83
VComic
p163
sg85
Nsg86
NstRp164
asS'feedburner_origlink'
p165
Vhttp://www.foxtrot.com/2011/02/02062011/
p166
sS'summary_detail'
p167
g1
(g2
g3
(dp168
g46
S'http://feeds.feedburner.com/Foxtrotcom'
p169
sg16
S'text/html'
p170
sg49
Nsg50
V<p><a href="http://www.foxtrot.com/2011/02/02062011/"><img src="http://www.foxtrot.com/comics-rss/2011-02-06-e65b96f4.gif" border="0" alt="02/06/2011" title="02/06/2011" /></a></p><img src="http://feeds.feedburner.com/~r/Foxtrotcom/~4/bBGTsFMxi7Y" height="1" width="1" />
p171
stRp172
sg58
g159
sS'wfw_commentrss'
p173
Vhttp://www.foxtrot.com/2011/02/02062011/feed/
p174
sg98
Vhttp://www.foxtrot.com/2011/02/02062011/
p175
sS'slash_comments'
p176
V0
sg37
V02/06/2011
p177
sg102
Vbillamend
p178
sS'comments'
p179
Vhttp://www.foxtrot.com/2011/02/02062011/#comments
p180
sg106
g171
sg107
I00
sS'title_detail'
p181
g1
(g2
g3
(dp182
g46
S'http://feeds.feedburner.com/Foxtrotcom'
p183
sg16
S'text/plain'
p184
sg49
Nsg50
g177
stRp185
sg113
(lp186
VFoxTrot.com
p187
aV*
aS'read'
p188
astRp189
ag1
(g2
g3
(dp190
S'summary_detail'
p191
g1
(g2
g3
(dp192
S'base'
p193
S'http://feeds.feedburner.com/Foxtrotcom'
p194
sS'type'
p195
S'text/html'
p196
sS'value'
p197
V<p><a href="http://www.foxtrot.com/2011/01/01302011/"><img src="http://www.foxtrot.com/comics-rss/2011-01-30-c78c9d8d.gif" border="0" alt="01/30/2011" title="01/30/2011" /></a></p><img src="http://feeds.feedburner.com/~r/Foxtrotcom/~4/V7-XegrWqyc" height="1" width="1" />
p198
sS'language'
p199
NstRp200
sS'updated_parsed'
p201
g65
((I2011
I1
I30
I6
I0
I0
I6
I30
I0
t(dtRp202
sS'links'
p203
(lp204
g1
(g2
g3
(dp205
S'href'
p206
Vhttp://feedproxy.google.com/~r/Foxtrotcom/~3/V7-XegrWqyc/
p207
sg195
S'text/html'
p208
sS'rel'
p209
S'alternate'
p210
stRp211
asS'tags'
p212
(lp213
g1
(g2
g3
(dp214
S'term'
p215
VComic
p216
sS'scheme'
p217
NsS'label'
p218
NstRp219
asS'feedburner_origlink'
p220
Vhttp://www.foxtrot.com/2011/01/01302011/
p221
sS'updated'
p222
VSun, 30 Jan 2011 06:00:00 +0000
p223
sS'link'
p224
g207
sS'wfw_commentrss'
p225
Vhttp://www.foxtrot.com/2011/01/01302011/feed/
p226
sS'id'
p227
Vhttp://www.foxtrot.com/2011/01/01302011/
p228
sS'slash_comments'
p229
V0
sS'title'
p230
V01/30/2011
p231
sS'author'
p232
Vbillamend
p233
sS'comments'
p234
Vhttp://www.foxtrot.com/2011/01/01302011/#comments
p235
sS'summary'
p236
g198
sS'guidislink'
p237
I00
sS'title_detail'
p238
g1
(g2
g3
(dp239
g193
S'http://feeds.feedburner.com/Foxtrotcom'
p240
sg195
S'text/plain'
p241
sg197
g231
sg199
NstRp242
sS'canto_state'
p243
(lp244
VFoxTrot.com
p245
aV*
aVnew
p246
aS'read'
p247
astRp248
ag1
(g2
g3
(dp249
S'summary_detail'
p250
g1
(g2
g3
(dp251
S'base'
p252
S'http://feeds.feedburner.com/Foxtrotcom'
p253
sS'type'
p254
S'text/html'
p255
sS'value'
p256
V<p><a href="http://www.foxtrot.com/2011/01/01232011/"><img src="http://www.foxtrot.com/comics-rss/2011-01-23-f6a54e1d.gif" border="0" alt="01/23/2011" title="01/23/2011" /></a></p><img src="http://feeds.feedburner.com/~r/Foxtrotcom/~4/bcJQikpQXx4" height="1" width="1" />
p257
sS'language'
p258
NstRp259
sS'updated_parsed'
p260
g65
((I2011
I1
I23
I6
I0
I0
I6
I23
I0
t(dtRp261
sS'links'
p262
(lp263
g1
(g2
g3
(dp264
S'href'
p265
Vhttp://feedproxy.google.com/~r/Foxtrotcom/~3/bcJQikpQXx4/
p266
sg254
S'text/html'
p267
sS'rel'
p268
S'alternate'
p269
stRp270
asS'tags'
p271
(lp272
g1
(g2
g3
(dp273
S'term'
p274
VComic
p275
sS'scheme'
p276
NsS'label'
p277
NstRp278
asS'feedburner_origlink'
p279
Vhttp://www.foxtrot.com/2011/01/01232011/
p280
sS'updated'
p281
VSun, 23 Jan 2011 06:00:00 +0000
p282
sS'link'
p283
g266
sS'wfw_commentrss'
p284
Vhttp://www.foxtrot.com/2011/01/01232011/feed/
p285
sS'id'
p286
Vhttp://www.foxtrot.com/2011/01/01232011/
p287
sS'slash_comments'
p288
V0
sS'title'
p289
V01/23/2011
p290
sS'author'
p291
Vbillamend
p292
sS'comments'
p293
Vhttp://www.foxtrot.com/2011/01/01232011/#comments
p294
sS'summary'
p295
g257
sS'guidislink'
p296
I00
sS'title_detail'
p297
g1
(g2
g3
(dp298
g252
S'http://feeds.feedburner.com/Foxtrotcom'
p299
sg254
S'text/plain'
p300
sg256
g290
sg258
NstRp301
sS'canto_state'
p302
(lp303
VFoxTrot.com
p304
aV*
aVnew
p305
aS'read'
p306
astRp307
ag1
(g2
g3
(dp308
S'summary_detail'
p309
g1
(g2
g3
(dp310
S'base'
p311
S'http://feeds.feedburner.com/Foxtrotcom'
p312
sS'type'
p313
S'text/html'
p314
sS'language'
p315
NsS'value'
p316
V<p><a href="http://www.foxtrot.com/2011/01/01162011/"><img src="http://www.foxtrot.com/comics-rss/2011-01-16-47df6817.gif" border="0" alt="01/16/2011" title="01/16/2011" /></a></p>I know, I know, 20-sided dice have triangular faces. I'm a moron.<img src="http://feeds.feedburner.com/~r/Foxtrotcom/~4/-ew3cC-ixyU" height="1" width="1" />
p317
stRp318
sS'updated_parsed'
p319
g65
((I2011
I1
I16
I6
I0
I0
I6
I16
I0
t(dtRp320
sS'links'
p321
(lp322
g1
(g2
g3
(dp323
S'href'
p324
Vhttp://feedproxy.google.com/~r/Foxtrotcom/~3/-ew3cC-ixyU/
p325
sg313
S'text/html'
p326
sS'rel'
p327
S'alternate'
p328
stRp329
asS'tags'
p330
(lp331
g1
(g2
g3
(dp332
S'term'
p333
VComic
p334
sS'scheme'
p335
NsS'label'
p336
NstRp337
asS'feedburner_origlink'
p338
Vhttp://www.foxtrot.com/2011/01/01162011/
p339
sS'updated'
p340
VSun, 16 Jan 2011 06:00:00 +0000
p341
sS'link'
p342
g325
sS'wfw_commentrss'
p343
Vhttp://www.foxtrot.com/2011/01/01162011/feed/
p344
sS'id'
p345
Vhttp://www.foxtrot.com/2011/01/01162011/
p346
sS'slash_comments'
p347
V0
sS'title'
p348
V01/16/2011
p349
sS'author'
p350
Vbillamend
p351
sS'comments'
p352
Vhttp://www.foxtrot.com/2011/01/01162011/#comments
p353
sS'summary'
p354
g317
sS'guidislink'
p355
I00
sS'title_detail'
p356
g1
(g2
g3
(dp357
g311
S'http://feeds.feedburner.com/Foxtrotcom'
p358
sg313
S'text/plain'
p359
sg315
Nsg316
g349
stRp360
sS'canto_state'
p361
(lp362
g304
aV*
ag305
ag306
astRp363
ag1
(g2
g3
(dp364
S'summary_detail'
p365
g1
(g2
g3
(dp366
S'base'
p367
S'http://feeds.feedburner.com/Foxtrotcom'
p368
sS'type'
p369
S'text/html'
p370
sS'value'
p371
V<p><a href="http://www.foxtrot.com/2011/01/01092011/"><img src="http://www.foxtrot.com/comics-rss/2011-01-09-556e46b7.gif" border="0" alt="01/09/2011" title="01/09/2011" /></a></p>If the art looks a little off on this one, it's probably because I drew it a few days after Cataclysm came out and was running on about zero hours sleep for the week.<img src="http://feeds.feedburner.com/~r/Foxtrotcom/~4/ulfKGmK48Ac" height="1" width="1" />
p372
sS'language'
p373
NstRp374
sS'updated_parsed'
p375
g65
((I2011
I1
I9
I6
I0
I0
I6
I9
I0
t(dtRp376
sS'links'
p377
(lp378
g1
(g2
g3
(dp379
S'href'
p380
Vhttp://feedproxy.google.com/~r/Foxtrotcom/~3/ulfKGmK48Ac/
p381
sg369
S'text/html'
p382
sS'rel'
p383
S'alternate'
p384
stRp385
asS'tags'
p386
(lp387
g1
(g2
g3
(dp388
S'term'
p389
VComic
p390
sS'scheme'
p391
NsS'label'
p392
NstRp393
asS'feedburner_origlink'
p394
Vhttp://www.foxtrot.com/2011/01/01092011/
p395
sS'updated'
p396
VSun, 09 Jan 2011 06:00:00 +0000
p397
sS'link'
p398
g381
sS'wfw_commentrss'
p399
Vhttp://www.foxtrot.com/2011/01/01092011/feed/
p400
sS'id'
p401
Vhttp://www.foxtrot.com/2011/01/01092011/
p402
sS'slash_comments'
p403
V0
sS'title'
p404
V01/09/2011
p405
sS'author'
p406
Vbillamend
p407
sS'comments'
p408
Vhttp://www.foxtrot.com/2011/01/01092011/#comments
p409
sS'summary'
p410
g372
sS'guidislink'
p411
I00
sS'title_detail'
p412
g1
(g2
g3
(dp413
g367
S'http://feeds.feedburner.com/Foxtrotcom'
p414
sg369
S'text/plain'
p415
sg371
g405
sg373
NstRp416
sS'canto_state'
p417
(lp418
g304
aV*
ag305
ag306
astRp419
asS'canto_update'
p420
F1297684099.310576
sS'headers'
p421
(dp422
S'x-xss-protection'
p423
S'1; mode=block'
p424
sS'x-content-type-options'
p425
S'nosniff'
p426
sS'expires'
p427
S'Mon, 14 Feb 2011 11:48:26 GMT'
p428
sS'server'
p429
S'GSE'
p430
sS'last-modified'
p431
S'Mon, 14 Feb 2011 11:22:23 GMT'
p432
sS'connection'
p433
S'close'
p434
sS'etag'
p435
S'QMv/IlPZ4X+nN+Iov0Ko0YAcF5o'
p436
sS'cache-control'
p437
S'private, max-age=0'
p438
sS'date'
p439
S'Mon, 14 Feb 2011 11:48:26 GMT'
p440
sS'content-type'
p441
S'text/xml; charset=UTF-8'
p442
ssg14
S'http://feeds.feedburner.com/Foxtrotcom'
p443
sS'version'
p444
S'atom10'
p445
sg113
(lp446
sS'etag'
p447
g436
sS'namespaces'
p448
(dp449
S''
Vhttp://www.w3.org/2005/Atom
p450
sS'sy'
p451
Vhttp://purl.org/rss/1.0/modules/syndication/
p452
sS'dc'
p453
Vhttp://purl.org/dc/elements/1.1/
p454
sS'content'
p455
Vhttp://purl.org/rss/1.0/modules/content/
p456
sS'slash'
p457
Vhttp://purl.org/rss/1.0/modules/slash/
p458
sS'feedburner'
p459
Vhttp://rssnamespace.org/feedburner/ext/1.0
p460
sS'wfw'
p461
Vhttp://wellformedweb.org/CommentAPI/
p462
ssS'canto_version'
p463
(I0
I7
I9
tp464
stRp465
.