ccopy_reg
_reconstructor
p1
(cfeedparser
FeedParserDict
p2
c__builtin__
dict
p3
(dp4
S'feed'
p5
g1
(g2
g3
(dp6
S'lastbuilddate'
p7
VThu, 27 Jan 2011 09:02:46 GMT
p8
sS'subtitle'
p9
VA New Cartoon Every Weekday
p10
sS'links'
p11
(lp12
g1
(g2
g3
(dp13
S'href'
p14
Vhttp://www.achewood.com/
p15
sS'type'
p16
S'text/html'
p17
sS'rel'
p18
S'alternate'
p19
stRp20
ag1
(g2
g3
(dp21
g16
g17
sg18
g19
stRp22
asS'language'
p23
Ven-us
p24
sS'title'
p25
VAchewood
p26
sS'image'
p27
g1
(g2
g3
(dp28
S'width'
p29
I144
sg14
Vhttp://www.achewood.com/rsrc/img/rss_button.gif
p30
sS'link'
p31
Vhttp://www.achewood.com/
p32
sg25
VAchewood
p33
sS'height'
p34
I51
stRp35
sS'rights'
p36
VCopyright 2001-2011 Chris Onstad
p37
sS'subtitle_detail'
p38
g1
(g2
g3
(dp39
S'base'
p40
S'http://achewood.com/rss.php'
p41
sg16
S'text/html'
p42
sg23
NsS'value'
p43
g10
stRp44
sS'title_detail'
p45
g1
(g2
g3
(dp46
g40
S'http://achewood.com/rss.php'
p47
sg16
S'text/plain'
p48
sg23
Nsg43
g26
stRp49
sg31
g15
sS'ttl'
p50
V60
p51
sS'rights_detail'
p52
g1
(g2
g3
(dp53
g40
S'http://achewood.com/rss.php'
p54
sg16
S'text/plain'
p55
sg23
Nsg43
g37
stRp56
stRp57
sS'status'
p58
I200
sS'updated'
p59
ctime
struct_time
p60
((I2011
I1
I27
I9
I2
I46
I3
I27
I0
t(dtRp61
sS'encoding'
p62
S'UTF-8'
p63
sS'bozo'
p64
I0
sS'entries'
p65
(lp66
g1
(g2
g3
(dp67
S'summary_detail'
p68
g1
(g2
g3
(dp69
g40
S'http://achewood.com/rss.php'
p70
sg16
S'text/html'
p71
sg23
Nsg43
VAchewood strip for Wednesday, January 5, 2011
p72
stRp73
sS'updated_parsed'
p74
g60
((I2011
I1
I5
I8
I0
I0
I2
I5
I0
t(dtRp75
sg11
(lp76
g1
(g2
g3
(dp77
g14
Vhttp://www.achewood.com/index.php?date=01052011
p78
sg16
g17
sg18
g19
stRp79
asS'tags'
p80
(lp81
g1
(g2
g3
(dp82
S'term'
p83
VStrip
p84
sS'scheme'
p85
NsS'label'
p86
NstRp87
asg25
V2011 Predictions
p88
sg59
VWed, 05 Jan 2011 08:00:00 GMT
p89
sS'summary'
p90
g72
sS'guidislink'
p91
I00
sS'title_detail'
p92
g1
(g2
g3
(dp93
g40
S'http://achewood.com/rss.php'
p94
sg16
S'text/plain'
p95
sg23
Nsg43
g88
stRp96
sg31
g78
sS'canto_state'
p97
(lp98
VAchewood
p99
aV*
aVnew
p100
aS'read'
p101
asS'id'
p102
Vhttp://www.achewood.com/index.php?date=01052011
p103
sS'enclosures'
p104
(lp105
g1
(g2
g3
(dp106
S'length'
p107
V106695
p108
sg14
Vhttp://www.achewood.com/comic.php?date=01052011
p109
sS'type'
p110
Vimage/gif
p111
stRp112
astRp113
ag1
(g2
g3
(dp114
S'summary_detail'
p115
g1
(g2
g3
(dp116
g40
S'http://achewood.com/rss.php'
p117
sg16
S'text/html'
p118
sg23
Nsg43
VAchewood strip for Friday, December 10, 2010
p119
stRp120
sg74
g60
((I2010
I12
I10
I8
I0
I0
I4
I344
I0
t(dtRp121
sg11
(lp122
g1
(g2
g3
(dp123
g14
Vhttp://www.achewood.com/index.php?date=12102010
p124
sg16
g17
sg18
g19
stRp125
asg80
(lp126
g1
(g2
g3
(dp127
g83
VStrip
p128
sg85
Nsg86
NstRp129
asg25
VHow To Be Happy
p130
sg59
VFri, 10 Dec 2010 08:00:00 GMT
p131
sg90
g119
sg91
I00
sS'title_detail'
p132
g1
(g2
g3
(dp133
g40
S'http://achewood.com/rss.php'
p134
sg16
S'text/plain'
p135
sg23
Nsg43
g130
stRp136
sg31
g124
sg97
(lp137
g99
aV*
ag100
ag101
asg102
Vhttp://www.achewood.com/index.php?date=12102010
p138
sg104
(lp139
g1
(g2
g3
(dp140
S'length'
p141
V75174
p142
sg14
Vhttp://www.achewood.com/comic.php?date=12102010
p143
sS'type'
p144
Vimage/gif
p145
stRp146
astRp147
ag1
(g2
g3
(dp148
S'summary_detail'
p149
g1
(g2
g3
(dp150
g40
S'http://achewood.com/rss.php'
p151
sg16
S'text/html'
p152
sg23
Nsg43
VAchewood strip for Thursday, December 2, 2010
p153
stRp154
sg74
g60
((I2010
I12
I2
I8
I0
I0
I3
I336
I0
t(dtRp155
sg11
(lp156
g1
(g2
g3
(dp157
g14
Vhttp://www.achewood.com/index.php?date=12022010
p158
sg16
g17
sg18
g19
stRp159
asg80
(lp160
g1
(g2
g3
(dp161
g83
VStrip
p162
sg85
Nsg86
NstRp163
asg25
VPresident of the Bad Answer Club
p164
sg59
VThu, 02 Dec 2010 08:00:00 GMT
p165
sg90
g153
sg91
I00
sS'title_detail'
p166
g1
(g2
g3
(dp167
g40
S'http://achewood.com/rss.php'
p168
sg16
S'text/plain'
p169
sg23
Nsg43
g164
stRp170
sg31
g158
sg97
(lp171
g99
aV*
ag100
ag101
asg102
Vhttp://www.achewood.com/index.php?date=12022010
p172
sg104
(lp173
g1
(g2
g3
(dp174
S'length'
p175
V101779
p176
sg14
Vhttp://www.achewood.com/comic.php?date=12022010
p177
sS'type'
p178
Vimage/gif
p179
stRp180
astRp181
ag1
(g2
g3
(dp182
S'summary_detail'
p183
g1
(g2
g3
(dp184
g40
S'http://achewood.com/rss.php'
p185
sg16
S'text/html'
p186
sg23
Nsg43
VAchewood strip for Thursday, November 18, 2010
p187
stRp188
sg74
g60
((I2010
I11
I18
I8
I0
I0
I3
I322
I0
t(dtRp189
sg11
(lp190
g1
(g2
g3
(dp191
g14
Vhttp://www.achewood.com/index.php?date=11182010
p192
sg16
g17
sg18
g19
stRp193
asg80
(lp194
g1
(g2
g3
(dp195
g83
VStrip
p196
sg85
Nsg86
NstRp197
asg25
VHonest Man Comix
p198
sg59
VThu, 18 Nov 2010 08:00:00 GMT
p199
sg90
g187
sg91
I00
sS'title_detail'
p200
g1
(g2
g3
(dp201
g40
S'http://achewood.com/rss.php'
p202
sg16
S'text/plain'
p203
sg23
Nsg43
g198
stRp204
sg31
g192
sg97
(lp205
g99
aV*
ag100
ag101
asg102
Vhttp://www.achewood.com/index.php?date=11182010
p206
sg104
(lp207
g1
(g2
g3
(dp208
S'length'
p209
V101315
p210
sg14
Vhttp://www.achewood.com/comic.php?date=11182010
p211
sS'type'
p212
Vimage/gif
p213
stRp214
astRp215
ag1
(g2
g3
(dp216
S'summary_detail'
p217
g1
(g2
g3
(dp218
g40
S'http://achewood.com/rss.php'
p219
sg16
S'text/html'
p220
sg23
Nsg43
VAchewood strip for Friday, November 5, 2010
p221
stRp222
sg74
g60
((I2010
I11
I5
I7
I0
I0
I4
I309
I0
t(dtRp223
sg11
(lp224
g1
(g2
g3
(dp225
g14
Vhttp://www.achewood.com/index.php?date=11052010
p226
sg16
g17
sg18
g19
stRp227
asg80
(lp228
g1
(g2
g3
(dp229
g83
VStrip
p230
sg85
Nsg86
NstRp231
asg25
VIt's All He Can Do
p232
sg59
VFri, 05 Nov 2010 07:00:00 GMT
p233
sg90
g221
sg91
I00
sS'title_detail'
p234
g1
(g2
g3
(dp235
g40
S'http://achewood.com/rss.php'
p236
sg16
S'text/plain'
p237
sg23
Nsg43
g232
stRp238
sg31
g226
sg97
(lp239
g99
aV*
ag100
ag101
asg102
Vhttp://www.achewood.com/index.php?date=11052010
p240
sg104
(lp241
g1
(g2
g3
(dp242
S'length'
p243
V92257
p244
sg14
Vhttp://www.achewood.com/comic.php?date=11052010
p245
sS'type'
p246
Vimage/gif
p247
stRp248
astRp249
asS'canto_update'
p250
F1297684097.7736361
sS'headers'
p251
(dp252
S'content-length'
p253
S'2752'
p254
sS'x-powered-by'
p255
S'PHP/5.1.6'
p256
sS'expires'
p257
S'Mon, 14 Feb 2011 12:48:24 GMT'
p258
sS'server'
p259
S'Apache/2.0.52 (CentOS)'
p260
sS'last-modified'
p261
S'Thu, 27 Jan 2011 09:02:46 GMT'
p262
sS'connection'
p263
S'close'
p264
sS'cache-control'
p265
S'must-revalidate, public'
p266
sS'date'
p267
S'Mon, 14 Feb 2011 11:48:24 GMT'
p268
sS'content-type'
p269
S'application/rss+xml; charset=UTF-8'
p270
ssS'version'
p271
S'rss20'
p272
sg97
(lp273
sg14
S'http://achewood.com/rss.php'
p274
sS'namespaces'
p275
(dp276
sS'canto_version'
p277
(I0
I7
I9
tp278
stRp279
.