ccopy_reg
_reconstructor
p1
(cfeedparser
FeedParserDict
p2
c__builtin__
dict
p3
(dp4
S'feed'
p5
g1
(g2
g3
(dp6
S'title_detail'
p7
g1
(g2
g3
(dp8
S'base'
p9
S'http://mspaintadventures.com/rss/rss.xml'
p10
sS'type'
p11
S'text/plain'
p12
sS'language'
p13
NsS'value'
p14
VMS Paint Adventures
p15
stRp16
sS'subtitle'
p17
V
sS'links'
p18
(lp19
g1
(g2
g3
(dp20
S'href'
p21
Vhttp://www.mspaintadventures.com
p22
sg11
S'text/html'
p23
sS'rel'
p24
S'alternate'
p25
stRp26
asS'title'
p27
g15
sS'link'
p28
g22
sS'subtitle_detail'
p29
g1
(g2
g3
(dp30
g9
S'http://mspaintadventures.com/rss/rss.xml'
p31
sg11
S'text/html'
p32
sg13
Nsg14
V
stRp33
stRp34
sS'status'
p35
I200
sS'updated'
p36
ctime
struct_time
p37
((I2011
I1
I31
I20
I16
I28
I0
I31
I0
t(dtRp38
sS'encoding'
p39
S'us-ascii'
p40
sS'bozo'
p41
I0
sS'entries'
p42
(lp43
g1
(g2
g3
(dp44
S'summary_detail'
p45
g1
(g2
g3
(dp46
g9
S'http://mspaintadventures.com/rss/rss.xml'
p47
sg11
S'text/html'
p48
sg13
Nsg14
V
stRp49
sS'updated_parsed'
p50
g37
((I2011
I1
I31
I20
I15
I49
I0
I31
I0
t(dtRp51
sg18
(lp52
g1
(g2
g3
(dp53
g21
Vhttp://www.mspaintadventures.com/?s=6&p=005310
p54
sg11
g23
sg24
g25
stRp55
asg27
V01/31/11 : WV?: Follow suit.
p56
sg36
VMon, 31 Jan 2011 13:15:49 -0700
p57
sS'summary'
p58
V
sS'guidislink'
p59
I00
sS'title_detail'
p60
g1
(g2
g3
(dp61
g9
S'http://mspaintadventures.com/rss/rss.xml'
p62
sg11
S'text/plain'
p63
sg13
Nsg14
g56
stRp64
sg28
g54
sS'canto_state'
p65
(lp66
VMS Paint Adventures
p67
aV*
aS'read'
p68
asS'id'
p69
V
stRp70
ag1
(g2
g3
(dp71
S'summary_detail'
p72
g1
(g2
g3
(dp73
g9
S'http://mspaintadventures.com/rss/rss.xml'
p74
sg11
S'text/html'
p75
sg13
Nsg14
V
stRp76
sg50
g37
((I2011
I1
I31
I20
I13
I56
I0
I31
I0
t(dtRp77
sg18
(lp78
g1
(g2
g3
(dp79
g21
Vhttp://www.mspaintadventures.com/?s=6&p=005309
p80
sg11
g23
sg24
g25
stRp81
asg27
V01/31/11 : John: Buckle up.
p82
sg36
VMon, 31 Jan 2011 13:13:56 -0700
p83
sg58
V
sg59
I00
sS'title_detail'
p84
g1
(g2
g3
(dp85
g9
S'http://mspaintadventures.com/rss/rss.xml'
p86
sg11
S'text/plain'
p87
sg13
Nsg14
g82
stRp88
sg28
g80
sg65
(lp89
VMS Paint Adventures
p90
aV*
asg69
V
stRp91
ag1
(g2
g3
(dp92
S'summary_detail'
p93
g1
(g2
g3
(dp94
g9
S'http://mspaintadventures.com/rss/rss.xml'
p95
sg11
S'text/html'
p96
sg13
Nsg14
V
stRp97
sg50
g37
((I2011
I1
I31
I6
I0
I50
I0
I31
I0
t(dtRp98
sg18
(lp99
g1
(g2
g3
(dp100
g21
Vhttp://www.mspaintadventures.com/?s=6&p=005308
p101
sg11
g23
sg24
g25
stRp102
asg27
V01/30/11 : John: Get in.
p103
sg36
VSun, 30 Jan 2011 23:00:50 -0700
p104
sg58
V
sg59
I00
sS'title_detail'
p105
g1
(g2
g3
(dp106
g9
S'http://mspaintadventures.com/rss/rss.xml'
p107
sg11
S'text/plain'
p108
sg13
Nsg14
g103
stRp109
sg28
g101
sg65
(lp110
g90
aV*
asg69
V
stRp111
ag1
(g2
g3
(dp112
S'summary_detail'
p113
g1
(g2
g3
(dp114
g9
S'http://mspaintadventures.com/rss/rss.xml'
p115
sg11
S'text/html'
p116
sg13
Nsg14
V
stRp117
sg50
g37
((I2011
I1
I31
I6
I0
I23
I0
I31
I0
t(dtRp118
sg18
(lp119
g1
(g2
g3
(dp120
g21
Vhttp://www.mspaintadventures.com/?s=6&p=005307
p121
sg11
g23
sg24
g25
stRp122
asg27
V01/30/11 : ==>
p123
sg36
VSun, 30 Jan 2011 23:00:23 -0700
p124
sg58
V
sg59
I00
sS'title_detail'
p125
g1
(g2
g3
(dp126
g9
S'http://mspaintadventures.com/rss/rss.xml'
p127
sg11
S'text/plain'
p128
sg13
Nsg14
g123
stRp129
sg28
g121
sg65
(lp130
g90
aV*
asg69
V
stRp131
ag1
(g2
g3
(dp132
S'summary_detail'
p133
g1
(g2
g3
(dp134
g9
S'http://mspaintadventures.com/rss/rss.xml'
p135
sg11
S'text/html'
p136
sg13
Nsg14
V
stRp137
sg50
g37
((I2011
I1
I31
I5
I59
I18
I0
I31
I0
t(dtRp138
sg18
(lp139
g1
(g2
g3
(dp140
g21
Vhttp://www.mspaintadventures.com/?s=6&p=005306
p141
sg11
g23
sg24
g25
stRp142
asg27
V01/30/11 : John: Clean up this mess.
p143
sg36
VSun, 30 Jan 2011 22:59:18 -0700
p144
sg58
V
sg59
I00
sS'title_detail'
p145
g1
(g2
g3
(dp146
g9
S'http://mspaintadventures.com/rss/rss.xml'
p147
sg11
S'text/plain'
p148
sg13
Nsg14
g143
stRp149
sg28
g141
sg65
(lp150
g90
aV*
asg69
V
stRp151
ag1
(g2
g3
(dp152
S'summary_detail'
p153
g1
(g2
g3
(dp154
g9
S'http://mspaintadventures.com/rss/rss.xml'
p155
sg11
S'text/html'
p156
sg13
Nsg14
V
stRp157
sg50
g37
((I2011
I1
I31
I4
I4
I12
I0
I31
I0
t(dtRp158
sg18
(lp159
g1
(g2
g3
(dp160
g21
Vhttp://www.mspaintadventures.com/?s=6&p=005305
p161
sg11
g23
sg24
g25
stRp162
asg27
V01/30/11 : John: Examine laptop.
p163
sg36
VSun, 30 Jan 2011 21:04:12 -0700
p164
sg58
V
sg59
I00
sS'title_detail'
p165
g1
(g2
g3
(dp166
g9
S'http://mspaintadventures.com/rss/rss.xml'
p167
sg11
S'text/plain'
p168
sg13
Nsg14
g163
stRp169
sg28
g161
sg65
(lp170
g90
aV*
asg69
V
stRp171
ag1
(g2
g3
(dp172
S'summary_detail'
p173
g1
(g2
g3
(dp174
g9
S'http://mspaintadventures.com/rss/rss.xml'
p175
sg11
S'text/html'
p176
sg13
Nsg14
V
stRp177
sg50
g37
((I2011
I1
I31
I4
I2
I32
I0
I31
I0
t(dtRp178
sg18
(lp179
g1
(g2
g3
(dp180
g21
Vhttp://www.mspaintadventures.com/?s=6&p=005304
p181
sg11
g23
sg24
g25
stRp182
asg27
V01/30/11 : John: Examine photographs.
p183
sg36
VSun, 30 Jan 2011 21:02:32 -0700
p184
sg58
V
sg59
I00
sS'title_detail'
p185
g1
(g2
g3
(dp186
g9
S'http://mspaintadventures.com/rss/rss.xml'
p187
sg11
S'text/plain'
p188
sg13
Nsg14
g183
stRp189
sg28
g181
sg65
(lp190
g90
aV*
asg69
V
stRp191
ag1
(g2
g3
(dp192
S'summary_detail'
p193
g1
(g2
g3
(dp194
g9
S'http://mspaintadventures.com/rss/rss.xml'
p195
sg11
S'text/html'
p196
sg13
Nsg14
V
stRp197
sg50
g37
((I2011
I1
I31
I1
I31
I39
I0
I31
I0
t(dtRp198
sg18
(lp199
g1
(g2
g3
(dp200
g21
Vhttp://www.mspaintadventures.com/?s=6&p=005303
p201
sg11
g23
sg24
g25
stRp202
asg27
V01/30/11 : John: Examine contents.
p203
sg36
VSun, 30 Jan 2011 18:31:39 -0700
p204
sg58
V
sg59
I00
sS'title_detail'
p205
g1
(g2
g3
(dp206
g9
S'http://mspaintadventures.com/rss/rss.xml'
p207
sg11
S'text/plain'
p208
sg13
Nsg14
g203
stRp209
sg28
g201
sg65
(lp210
g90
aV*
asg69
V
stRp211
ag1
(g2
g3
(dp212
S'summary_detail'
p213
g1
(g2
g3
(dp214
g9
S'http://mspaintadventures.com/rss/rss.xml'
p215
sg11
S'text/html'
p216
sg13
Nsg14
V
stRp217
sg50
g37
((I2011
I1
I31
I1
I29
I23
I0
I31
I0
t(dtRp218
sg18
(lp219
g1
(g2
g3
(dp220
g21
Vhttp://www.mspaintadventures.com/?s=6&p=005302
p221
sg11
g23
sg24
g25
stRp222
asg27
V01/30/11 : John: Empty wallet.
p223
sg36
VSun, 30 Jan 2011 18:29:23 -0700
p224
sg58
V
sg59
I00
sS'title_detail'
p225
g1
(g2
g3
(dp226
g9
S'http://mspaintadventures.com/rss/rss.xml'
p227
sg11
S'text/plain'
p228
sg13
Nsg14
g223
stRp229
sg28
g221
sg65
(lp230
g90
aV*
asg69
V
stRp231
ag1
(g2
g3
(dp232
S'summary_detail'
p233
g1
(g2
g3
(dp234
g9
S'http://mspaintadventures.com/rss/rss.xml'
p235
sg11
S'text/html'
p236
sg13
Nsg14
V
stRp237
sg50
g37
((I2011
I1
I30
I22
I30
I35
I6
I30
I0
t(dtRp238
sg18
(lp239
g1
(g2
g3
(dp240
g21
Vhttp://www.mspaintadventures.com/?s=6&p=005301
p241
sg11
g23
sg24
g25
stRp242
asg27
V01/30/11 : WV?: IMBIBE LIKE THE WIND.
p243
sg36
VSun, 30 Jan 2011 15:30:35 -0700
p244
sg58
V
sg59
I00
sS'title_detail'
p245
g1
(g2
g3
(dp246
g9
S'http://mspaintadventures.com/rss/rss.xml'
p247
sg11
S'text/plain'
p248
sg13
Nsg14
g243
stRp249
sg28
g241
sg65
(lp250
g90
aV*
asg69
V
stRp251
ag1
(g2
g3
(dp252
S'summary_detail'
p253
g1
(g2
g3
(dp254
g9
S'http://mspaintadventures.com/rss/rss.xml'
p255
sg11
S'text/html'
p256
sg13
Nsg14
V
stRp257
sg50
g37
((I2011
I1
I30
I21
I44
I39
I6
I30
I0
t(dtRp258
sg18
(lp259
g1
(g2
g3
(dp260
g21
Vhttp://www.mspaintadventures.com/?s=6&p=005300
p261
sg11
g23
sg24
g25
stRp262
asg27
V01/30/11 : ==>
p263
sg36
VSun, 30 Jan 2011 14:44:39 -0700
p264
sg58
V
sg59
I00
sS'title_detail'
p265
g1
(g2
g3
(dp266
g9
S'http://mspaintadventures.com/rss/rss.xml'
p267
sg11
S'text/plain'
p268
sg13
Nsg14
g263
stRp269
sg28
g261
sg65
(lp270
g90
aV*
asg69
V
stRp271
ag1
(g2
g3
(dp272
S'summary_detail'
p273
g1
(g2
g3
(dp274
g9
S'http://mspaintadventures.com/rss/rss.xml'
p275
sg11
S'text/html'
p276
sg13
Nsg14
V
stRp277
sg50
g37
((I2011
I1
I30
I21
I44
I18
I6
I30
I0
t(dtRp278
sg18
(lp279
g1
(g2
g3
(dp280
g21
Vhttp://www.mspaintadventures.com/?s=6&p=005299
p281
sg11
g23
sg24
g25
stRp282
asg27
V01/30/11 : WV?: Inspect windy boy's treasure.
p283
sg36
VSun, 30 Jan 2011 14:44:18 -0700
p284
sg58
V
sg59
I00
sS'title_detail'
p285
g1
(g2
g3
(dp286
g9
S'http://mspaintadventures.com/rss/rss.xml'
p287
sg11
S'text/plain'
p288
sg13
Nsg14
g283
stRp289
sg28
g281
sg65
(lp290
g90
aV*
asg69
V
stRp291
ag1
(g2
g3
(dp292
S'summary_detail'
p293
g1
(g2
g3
(dp294
g9
S'http://mspaintadventures.com/rss/rss.xml'
p295
sg11
S'text/html'
p296
sg13
Nsg14
V
stRp297
sg50
g37
((I2011
I1
I30
I19
I47
I9
I6
I30
I0
t(dtRp298
sg18
(lp299
g1
(g2
g3
(dp300
g21
Vhttp://www.mspaintadventures.com/?s=6&p=005298
p301
sg11
g23
sg24
g25
stRp302
asg27
V01/30/11 : John: Check contents of wallet.
p303
sg36
VSun, 30 Jan 2011 12:47:09 -0700
p304
sg58
V
sg59
I00
sS'title_detail'
p305
g1
(g2
g3
(dp306
g9
S'http://mspaintadventures.com/rss/rss.xml'
p307
sg11
S'text/plain'
p308
sg13
Nsg14
g303
stRp309
sg28
g301
sg65
(lp310
g90
aV*
asg69
V
stRp311
ag1
(g2
g3
(dp312
S'summary_detail'
p313
g1
(g2
g3
(dp314
g9
S'http://mspaintadventures.com/rss/rss.xml'
p315
sg11
S'text/html'
p316
sg13
Nsg14
V
stRp317
sg50
g37
((I2011
I1
I30
I19
I45
I4
I6
I30
I0
t(dtRp318
sg18
(lp319
g1
(g2
g3
(dp320
g21
Vhttp://www.mspaintadventures.com/?s=6&p=005297
p321
sg11
g23
sg24
g25
stRp322
asg27
V01/30/11 : John: Become overwhelmed with responsibility.
p323
sg36
VSun, 30 Jan 2011 12:45:04 -0700
p324
sg58
V
sg59
I00
sS'title_detail'
p325
g1
(g2
g3
(dp326
g9
S'http://mspaintadventures.com/rss/rss.xml'
p327
sg11
S'text/plain'
p328
sg13
Nsg14
g323
stRp329
sg28
g321
sg65
(lp330
g90
aV*
asg69
V
stRp331
ag1
(g2
g3
(dp332
S'summary_detail'
p333
g1
(g2
g3
(dp334
g9
S'http://mspaintadventures.com/rss/rss.xml'
p335
sg11
S'text/html'
p336
sg13
Nsg14
V
stRp337
sg50
g37
((I2011
I1
I30
I17
I53
I19
I6
I30
I0
t(dtRp338
sg18
(lp339
g1
(g2
g3
(dp340
g21
Vhttp://www.mspaintadventures.com/?s=6&p=005296
p341
sg11
g23
sg24
g25
stRp342
asg27
V01/30/11 : John: Read note.
p343
sg36
VSun, 30 Jan 2011 10:53:19 -0700
p344
sg58
V
sg59
I00
sS'title_detail'
p345
g1
(g2
g3
(dp346
g9
S'http://mspaintadventures.com/rss/rss.xml'
p347
sg11
S'text/plain'
p348
sg13
Nsg14
g343
stRp349
sg28
g341
sg65
(lp350
g90
aV*
asg69
V
stRp351
ag1
(g2
g3
(dp352
S'summary_detail'
p353
g1
(g2
g3
(dp354
g9
S'http://mspaintadventures.com/rss/rss.xml'
p355
sg11
S'text/html'
p356
sg13
Nsg14
V
stRp357
sg50
g37
((I2011
I1
I30
I17
I52
I51
I6
I30
I0
t(dtRp358
sg18
(lp359
g1
(g2
g3
(dp360
g21
Vhttp://www.mspaintadventures.com/?s=6&p=005295
p361
sg11
g23
sg24
g25
stRp362
asg27
V01/30/11 : John: Take wallet.
p363
sg36
VSun, 30 Jan 2011 10:52:51 -0700
p364
sg58
V
sg59
I00
sS'title_detail'
p365
g1
(g2
g3
(dp366
g9
S'http://mspaintadventures.com/rss/rss.xml'
p367
sg11
S'text/plain'
p368
sg13
Nsg14
g363
stRp369
sg28
g361
sg65
(lp370
g90
aV*
asg69
V
stRp371
ag1
(g2
g3
(dp372
S'summary_detail'
p373
g1
(g2
g3
(dp374
g9
S'http://mspaintadventures.com/rss/rss.xml'
p375
sg11
S'text/html'
p376
sg13
Nsg14
V
stRp377
sg50
g37
((I2011
I1
I30
I17
I51
I39
I6
I30
I0
t(dtRp378
sg18
(lp379
g1
(g2
g3
(dp380
g21
Vhttp://www.mspaintadventures.com/?s=6&p=005294
p381
sg11
g23
sg24
g25
stRp382
asg27
V01/30/11 : John: Snap out of it.
p383
sg36
VSun, 30 Jan 2011 10:51:39 -0700
p384
sg58
V
sg59
I00
sS'title_detail'
p385
g1
(g2
g3
(dp386
g9
S'http://mspaintadventures.com/rss/rss.xml'
p387
sg11
S'text/plain'
p388
sg13
Nsg14
g383
stRp389
sg28
g381
sg65
(lp390
g90
aV*
asg69
V
stRp391
ag1
(g2
g3
(dp392
S'summary_detail'
p393
g1
(g2
g3
(dp394
g9
S'http://mspaintadventures.com/rss/rss.xml'
p395
sg11
S'text/html'
p396
sg13
Nsg14
V
stRp397
sg50
g37
((I2011
I1
I30
I17
I7
I23
I6
I30
I0
t(dtRp398
sg18
(lp399
g1
(g2
g3
(dp400
g21
Vhttp://www.mspaintadventures.com/?s=6&p=005293
p401
sg11
g23
sg24
g25
stRp402
asg27
V01/30/11 : John: Behold puffy oracle.
p403
sg36
VSun, 30 Jan 2011 10:07:23 -0700
p404
sg58
V
sg59
I00
sS'title_detail'
p405
g1
(g2
g3
(dp406
g9
S'http://mspaintadventures.com/rss/rss.xml'
p407
sg11
S'text/plain'
p408
sg13
Nsg14
g403
stRp409
sg28
g401
sg65
(lp410
g90
aV*
asg69
V
stRp411
ag1
(g2
g3
(dp412
S'summary_detail'
p413
g1
(g2
g3
(dp414
g9
S'http://mspaintadventures.com/rss/rss.xml'
p415
sg11
S'text/html'
p416
sg13
Nsg14
V
stRp417
sg50
g37
((I2011
I1
I30
I15
I39
I48
I6
I30
I0
t(dtRp418
sg18
(lp419
g1
(g2
g3
(dp420
g21
Vhttp://www.mspaintadventures.com/?s=6&p=005292
p421
sg11
g23
sg24
g25
stRp422
asg27
V01/30/11 : ==>
p423
sg36
VSun, 30 Jan 2011 08:39:48 -0700
p424
sg58
V
sg59
I00
sS'title_detail'
p425
g1
(g2
g3
(dp426
g9
S'http://mspaintadventures.com/rss/rss.xml'
p427
sg11
S'text/plain'
p428
sg13
Nsg14
g423
stRp429
sg28
g421
sg65
(lp430
g90
aV*
asg69
V
stRp431
ag1
(g2
g3
(dp432
S'summary_detail'
p433
g1
(g2
g3
(dp434
g9
S'http://mspaintadventures.com/rss/rss.xml'
p435
sg11
S'text/html'
p436
sg13
Nsg14
V
stRp437
sg50
g37
((I2011
I1
I28
I20
I14
I7
I4
I28
I0
t(dtRp438
sg18
(lp439
g1
(g2
g3
(dp440
g21
Vhttp://www.mspaintadventures.com/?s=6&p=005291
p441
sg11
g23
sg24
g25
stRp442
asg27
V01/28/11 : ==>
p443
sg36
VFri, 28 Jan 2011 13:14:07 -0700
p444
sg58
V
sg59
I00
sS'title_detail'
p445
g1
(g2
g3
(dp446
g9
S'http://mspaintadventures.com/rss/rss.xml'
p447
sg11
S'text/plain'
p448
sg13
Nsg14
g443
stRp449
sg28
g441
sg65
(lp450
g90
aV*
asg69
V
stRp451
ag1
(g2
g3
(dp452
S'summary_detail'
p453
g1
(g2
g3
(dp454
g9
S'http://mspaintadventures.com/rss/rss.xml'
p455
sg11
S'text/html'
p456
sg13
Nsg14
V
stRp457
sg50
g37
((I2011
I1
I28
I20
I13
I26
I4
I28
I0
t(dtRp458
sg18
(lp459
g1
(g2
g3
(dp460
g21
Vhttp://www.mspaintadventures.com/?s=6&p=005290
p461
sg11
g23
sg24
g25
stRp462
asg27
V01/28/11 : ==>
p463
sg36
VFri, 28 Jan 2011 13:13:26 -0700
p464
sg58
V
sg59
I00
sS'title_detail'
p465
g1
(g2
g3
(dp466
g9
S'http://mspaintadventures.com/rss/rss.xml'
p467
sg11
S'text/plain'
p468
sg13
Nsg14
g463
stRp469
sg28
g461
sg65
(lp470
g90
aV*
asg69
V
stRp471
ag1
(g2
g3
(dp472
S'summary_detail'
p473
g1
(g2
g3
(dp474
g9
S'http://mspaintadventures.com/rss/rss.xml'
p475
sg11
S'text/html'
p476
sg13
Nsg14
V
stRp477
sg50
g37
((I2011
I1
I28
I20
I13
I3
I4
I28
I0
t(dtRp478
sg18
(lp479
g1
(g2
g3
(dp480
g21
Vhttp://www.mspaintadventures.com/?s=6&p=005289
p481
sg11
g23
sg24
g25
stRp482
asg27
V01/28/11 : AH: Revive.
p483
sg36
VFri, 28 Jan 2011 13:13:03 -0700
p484
sg58
V
sg59
I00
sS'title_detail'
p485
g1
(g2
g3
(dp486
g9
S'http://mspaintadventures.com/rss/rss.xml'
p487
sg11
S'text/plain'
p488
sg13
Nsg14
g483
stRp489
sg28
g481
sg65
(lp490
g90
aV*
asg69
V
stRp491
ag1
(g2
g3
(dp492
S'summary_detail'
p493
g1
(g2
g3
(dp494
g9
S'http://mspaintadventures.com/rss/rss.xml'
p495
sg11
S'text/html'
p496
sg13
Nsg14
V
stRp497
sg50
g37
((I2011
I1
I28
I20
I12
I25
I4
I28
I0
t(dtRp498
sg18
(lp499
g1
(g2
g3
(dp500
g21
Vhttp://www.mspaintadventures.com/?s=6&p=005288
p501
sg11
g23
sg24
g25
stRp502
asg27
V01/28/11 : ==>
p503
sg36
VFri, 28 Jan 2011 13:12:25 -0700
p504
sg58
V
sg59
I00
sS'title_detail'
p505
g1
(g2
g3
(dp506
g9
S'http://mspaintadventures.com/rss/rss.xml'
p507
sg11
S'text/plain'
p508
sg13
Nsg14
g503
stRp509
sg28
g501
sg65
(lp510
g90
aV*
asg69
V
stRp511
ag1
(g2
g3
(dp512
S'summary_detail'
p513
g1
(g2
g3
(dp514
g9
S'http://mspaintadventures.com/rss/rss.xml'
p515
sg11
S'text/html'
p516
sg13
Nsg14
V
stRp517
sg50
g37
((I2011
I1
I28
I20
I10
I49
I4
I28
I0
t(dtRp518
sg18
(lp519
g1
(g2
g3
(dp520
g21
Vhttp://www.mspaintadventures.com/?s=6&p=005287
p521
sg11
g23
sg24
g25
stRp522
asg27
V01/28/11 : ==>
p523
sg36
VFri, 28 Jan 2011 13:10:49 -0700
p524
sg58
V
sg59
I00
sS'title_detail'
p525
g1
(g2
g3
(dp526
g9
S'http://mspaintadventures.com/rss/rss.xml'
p527
sg11
S'text/plain'
p528
sg13
Nsg14
g523
stRp529
sg28
g521
sg65
(lp530
g90
aV*
asg69
V
stRp531
ag1
(g2
g3
(dp532
S'summary_detail'
p533
g1
(g2
g3
(dp534
g9
S'http://mspaintadventures.com/rss/rss.xml'
p535
sg11
S'text/html'
p536
sg13
Nsg14
V
stRp537
sg50
g37
((I2011
I1
I28
I20
I10
I24
I4
I28
I0
t(dtRp538
sg18
(lp539
g1
(g2
g3
(dp540
g21
Vhttp://www.mspaintadventures.com/?s=6&p=005286
p541
sg11
g23
sg24
g25
stRp542
asg27
V01/28/11 : Rufio: Make him pay.
p543
sg36
VFri, 28 Jan 2011 13:10:24 -0700
p544
sg58
V
sg59
I00
sS'title_detail'
p545
g1
(g2
g3
(dp546
g9
S'http://mspaintadventures.com/rss/rss.xml'
p547
sg11
S'text/plain'
p548
sg13
Nsg14
g543
stRp549
sg28
g541
sg65
(lp550
g90
aV*
asg69
V
stRp551
ag1
(g2
g3
(dp552
S'summary_detail'
p553
g1
(g2
g3
(dp554
g9
S'http://mspaintadventures.com/rss/rss.xml'
p555
sg11
S'text/html'
p556
sg13
Nsg14
V
stRp557
sg50
g37
((I2011
I1
I28
I17
I23
I56
I4
I28
I0
t(dtRp558
sg18
(lp559
g1
(g2
g3
(dp560
g21
Vhttp://www.mspaintadventures.com/?s=6&p=005285
p561
sg11
g23
sg24
g25
stRp562
asg27
V01/28/11 : ==>
p563
sg36
VFri, 28 Jan 2011 10:23:56 -0700
p564
sg58
V
sg59
I00
sS'title_detail'
p565
g1
(g2
g3
(dp566
g9
S'http://mspaintadventures.com/rss/rss.xml'
p567
sg11
S'text/plain'
p568
sg13
Nsg14
g563
stRp569
sg28
g561
sg65
(lp570
g90
aV*
asg69
V
stRp571
ag1
(g2
g3
(dp572
S'summary_detail'
p573
g1
(g2
g3
(dp574
g9
S'http://mspaintadventures.com/rss/rss.xml'
p575
sg11
S'text/html'
p576
sg13
Nsg14
V
stRp577
sg50
g37
((I2011
I1
I28
I6
I30
I0
I4
I28
I0
t(dtRp578
sg18
(lp579
g1
(g2
g3
(dp580
g21
Vhttp://www.mspaintadventures.com/?s=6&p=005284
p581
sg11
g23
sg24
g25
stRp582
asg27
V01/27/11 : Karkat and Terezi: Revive.
p583
sg36
VThu, 27 Jan 2011 23:30:00 -0700
p584
sg58
V
sg59
I00
sS'title_detail'
p585
g1
(g2
g3
(dp586
g9
S'http://mspaintadventures.com/rss/rss.xml'
p587
sg11
S'text/plain'
p588
sg13
Nsg14
g583
stRp589
sg28
g581
sg65
(lp590
g90
aV*
asg69
V
stRp591
ag1
(g2
g3
(dp592
S'summary_detail'
p593
g1
(g2
g3
(dp594
g9
S'http://mspaintadventures.com/rss/rss.xml'
p595
sg11
S'text/html'
p596
sg13
Nsg14
V
stRp597
sg50
g37
((I2011
I1
I28
I1
I37
I0
I4
I28
I0
t(dtRp598
sg18
(lp599
g1
(g2
g3
(dp600
g21
Vhttp://www.mspaintadventures.com/?s=6&p=005283
p601
sg11
g23
sg24
g25
stRp602
asg27
V01/27/11 : ==>
p603
sg36
VThu, 27 Jan 2011 18:37:00 -0700
p604
sg58
V
sg59
I00
sS'title_detail'
p605
g1
(g2
g3
(dp606
g9
S'http://mspaintadventures.com/rss/rss.xml'
p607
sg11
S'text/plain'
p608
sg13
Nsg14
g603
stRp609
sg28
g601
sg65
(lp610
g90
aV*
asg69
V
stRp611
ag1
(g2
g3
(dp612
S'summary_detail'
p613
g1
(g2
g3
(dp614
g9
S'http://mspaintadventures.com/rss/rss.xml'
p615
sg11
S'text/html'
p616
sg13
Nsg14
V
stRp617
sg50
g37
((I2011
I1
I28
I1
I36
I47
I4
I28
I0
t(dtRp618
sg18
(lp619
g1
(g2
g3
(dp620
g21
Vhttp://www.mspaintadventures.com/?s=6&p=005282
p621
sg11
g23
sg24
g25
stRp622
asg27
V01/27/11 : ==>
p623
sg36
VThu, 27 Jan 2011 18:36:47 -0700
p624
sg58
V
sg59
I00
sS'title_detail'
p625
g1
(g2
g3
(dp626
g9
S'http://mspaintadventures.com/rss/rss.xml'
p627
sg11
S'text/plain'
p628
sg13
Nsg14
g623
stRp629
sg28
g621
sg65
(lp630
g90
aV*
asg69
V
stRp631
ag1
(g2
g3
(dp632
S'summary_detail'
p633
g1
(g2
g3
(dp634
g9
S'http://mspaintadventures.com/rss/rss.xml'
p635
sg11
S'text/html'
p636
sg13
Nsg14
V
stRp637
sg50
g37
((I2011
I1
I28
I1
I36
I39
I4
I28
I0
t(dtRp638
sg18
(lp639
g1
(g2
g3
(dp640
g21
Vhttp://www.mspaintadventures.com/?s=6&p=005281
p641
sg11
g23
sg24
g25
stRp642
asg27
V01/27/11 : ==>
p643
sg36
VThu, 27 Jan 2011 18:36:39 -0700
p644
sg58
V
sg59
I00
sS'title_detail'
p645
g1
(g2
g3
(dp646
g9
S'http://mspaintadventures.com/rss/rss.xml'
p647
sg11
S'text/plain'
p648
sg13
Nsg14
g643
stRp649
sg28
g641
sg65
(lp650
g90
aV*
asg69
V
stRp651
ag1
(g2
g3
(dp652
S'summary_detail'
p653
g1
(g2
g3
(dp654
g9
S'http://mspaintadventures.com/rss/rss.xml'
p655
sg11
S'text/html'
p656
sg13
Nsg14
V
stRp657
sg50
g37
((I2011
I1
I27
I20
I19
I9
I3
I27
I0
t(dtRp658
sg18
(lp659
g1
(g2
g3
(dp660
g21
Vhttp://www.mspaintadventures.com/?s=6&p=005280
p661
sg11
g23
sg24
g25
stRp662
asg27
V01/27/11 : ==>
p663
sg36
VThu, 27 Jan 2011 13:19:09 -0700
p664
sg58
V
sg59
I00
sS'title_detail'
p665
g1
(g2
g3
(dp666
g9
S'http://mspaintadventures.com/rss/rss.xml'
p667
sg11
S'text/plain'
p668
sg13
Nsg14
g663
stRp669
sg28
g661
sg65
(lp670
g90
aV*
asg69
V
stRp671
ag1
(g2
g3
(dp672
S'summary_detail'
p673
g1
(g2
g3
(dp674
g9
S'http://mspaintadventures.com/rss/rss.xml'
p675
sg11
S'text/html'
p676
sg13
Nsg14
V
stRp677
sg50
g37
((I2011
I1
I27
I20
I19
I0
I3
I27
I0
t(dtRp678
sg18
(lp679
g1
(g2
g3
(dp680
g21
Vhttp://www.mspaintadventures.com/?s=6&p=005279
p681
sg11
g23
sg24
g25
stRp682
asg27
V01/27/11 : ==>
p683
sg36
VThu, 27 Jan 2011 13:19:00 -0700
p684
sg58
V
sg59
I00
sS'title_detail'
p685
g1
(g2
g3
(dp686
g9
S'http://mspaintadventures.com/rss/rss.xml'
p687
sg11
S'text/plain'
p688
sg13
Nsg14
g683
stRp689
sg28
g681
sg65
(lp690
g90
aV*
asg69
V
stRp691
ag1
(g2
g3
(dp692
S'summary_detail'
p693
g1
(g2
g3
(dp694
g9
S'http://mspaintadventures.com/rss/rss.xml'
p695
sg11
S'text/html'
p696
sg13
Nsg14
V
stRp697
sg50
g37
((I2011
I1
I27
I20
I18
I39
I3
I27
I0
t(dtRp698
sg18
(lp699
g1
(g2
g3
(dp700
g21
Vhttp://www.mspaintadventures.com/?s=6&p=005278
p701
sg11
g23
sg24
g25
stRp702
asg27
V01/27/11 : Terezi: Prepare to revive.
p703
sg36
VThu, 27 Jan 2011 13:18:39 -0700
p704
sg58
V
sg59
I00
sS'title_detail'
p705
g1
(g2
g3
(dp706
g9
S'http://mspaintadventures.com/rss/rss.xml'
p707
sg11
S'text/plain'
p708
sg13
Nsg14
g703
stRp709
sg28
g701
sg65
(lp710
g90
aV*
asg69
V
stRp711
ag1
(g2
g3
(dp712
S'summary_detail'
p713
g1
(g2
g3
(dp714
g9
S'http://mspaintadventures.com/rss/rss.xml'
p715
sg11
S'text/html'
p716
sg13
Nsg14
V
stRp717
sg50
g37
((I2011
I1
I27
I18
I32
I14
I3
I27
I0
t(dtRp718
sg18
(lp719
g1
(g2
g3
(dp720
g21
Vhttp://www.mspaintadventures.com/?s=6&p=005277
p721
sg11
g23
sg24
g25
stRp722
asg27
V01/27/11 : ==>
p723
sg36
VThu, 27 Jan 2011 11:32:14 -0700
p724
sg58
V
sg59
I00
sS'title_detail'
p725
g1
(g2
g3
(dp726
g9
S'http://mspaintadventures.com/rss/rss.xml'
p727
sg11
S'text/plain'
p728
sg13
Nsg14
g723
stRp729
sg28
g721
sg65
(lp730
g90
aV*
asg69
V
stRp731
ag1
(g2
g3
(dp732
S'summary_detail'
p733
g1
(g2
g3
(dp734
g9
S'http://mspaintadventures.com/rss/rss.xml'
p735
sg11
S'text/html'
p736
sg13
Nsg14
V
stRp737
sg50
g37
((I2011
I1
I27
I18
I30
I2
I3
I27
I0
t(dtRp738
sg18
(lp739
g1
(g2
g3
(dp740
g21
Vhttp://www.mspaintadventures.com/?s=6&p=005276
p741
sg11
g23
sg24
g25
stRp742
asg27
V01/27/11 : Terezi: Get medical report.
p743
sg36
VThu, 27 Jan 2011 11:30:02 -0700
p744
sg58
V
sg59
I00
sS'title_detail'
p745
g1
(g2
g3
(dp746
g9
S'http://mspaintadventures.com/rss/rss.xml'
p747
sg11
S'text/plain'
p748
sg13
Nsg14
g743
stRp749
sg28
g741
sg65
(lp750
g90
aV*
asg69
V
stRp751
ag1
(g2
g3
(dp752
S'summary_detail'
p753
g1
(g2
g3
(dp754
g9
S'http://mspaintadventures.com/rss/rss.xml'
p755
sg11
S'text/html'
p756
sg13
Nsg14
V
stRp757
sg50
g37
((I2011
I1
I27
I17
I46
I27
I3
I27
I0
t(dtRp758
sg18
(lp759
g1
(g2
g3
(dp760
g21
Vhttp://www.mspaintadventures.com/?s=6&p=005275
p761
sg11
g23
sg24
g25
stRp762
asg27
V01/27/11 : ==>
p763
sg36
VThu, 27 Jan 2011 10:46:27 -0700
p764
sg58
V
sg59
I00
sS'title_detail'
p765
g1
(g2
g3
(dp766
g9
S'http://mspaintadventures.com/rss/rss.xml'
p767
sg11
S'text/plain'
p768
sg13
Nsg14
g763
stRp769
sg28
g761
sg65
(lp770
g90
aV*
asg69
V
stRp771
ag1
(g2
g3
(dp772
S'summary_detail'
p773
g1
(g2
g3
(dp774
g9
S'http://mspaintadventures.com/rss/rss.xml'
p775
sg11
S'text/html'
p776
sg13
Nsg14
V
stRp777
sg50
g37
((I2011
I1
I27
I17
I46
I14
I3
I27
I0
t(dtRp778
sg18
(lp779
g1
(g2
g3
(dp780
g21
Vhttp://www.mspaintadventures.com/?s=6&p=005274
p781
sg11
g23
sg24
g25
stRp782
asg27
V01/27/11 : ==>
p783
sg36
VThu, 27 Jan 2011 10:46:14 -0700
p784
sg58
V
sg59
I00
sS'title_detail'
p785
g1
(g2
g3
(dp786
g9
S'http://mspaintadventures.com/rss/rss.xml'
p787
sg11
S'text/plain'
p788
sg13
Nsg14
g783
stRp789
sg28
g781
sg65
(lp790
g90
aV*
asg69
V
stRp791
ag1
(g2
g3
(dp792
S'summary_detail'
p793
g1
(g2
g3
(dp794
g9
S'http://mspaintadventures.com/rss/rss.xml'
p795
sg11
S'text/html'
p796
sg13
Nsg14
V
stRp797
sg50
g37
((I2011
I1
I27
I17
I45
I50
I3
I27
I0
t(dtRp798
sg18
(lp799
g1
(g2
g3
(dp800
g21
Vhttp://www.mspaintadventures.com/?s=6&p=005273
p801
sg11
g23
sg24
g25
stRp802
asg27
V01/27/11 : ==>
p803
sg36
VThu, 27 Jan 2011 10:45:50 -0700
p804
sg58
V
sg59
I00
sS'title_detail'
p805
g1
(g2
g3
(dp806
g9
S'http://mspaintadventures.com/rss/rss.xml'
p807
sg11
S'text/plain'
p808
sg13
Nsg14
g803
stRp809
sg28
g801
sg65
(lp810
g90
aV*
asg69
V
stRp811
ag1
(g2
g3
(dp812
S'summary_detail'
p813
g1
(g2
g3
(dp814
g9
S'http://mspaintadventures.com/rss/rss.xml'
p815
sg11
S'text/html'
p816
sg13
Nsg14
V
stRp817
sg50
g37
((I2011
I1
I27
I17
I44
I57
I3
I27
I0
t(dtRp818
sg18
(lp819
g1
(g2
g3
(dp820
g21
Vhttp://www.mspaintadventures.com/?s=6&p=005272
p821
sg11
g23
sg24
g25
stRp822
asg27
V01/27/11 : ==>
p823
sg36
VThu, 27 Jan 2011 10:44:57 -0700
p824
sg58
V
sg59
I00
sS'title_detail'
p825
g1
(g2
g3
(dp826
g9
S'http://mspaintadventures.com/rss/rss.xml'
p827
sg11
S'text/plain'
p828
sg13
Nsg14
g823
stRp829
sg28
g821
sg65
(lp830
g90
aV*
asg69
V
stRp831
ag1
(g2
g3
(dp832
S'summary_detail'
p833
g1
(g2
g3
(dp834
g9
S'http://mspaintadventures.com/rss/rss.xml'
p835
sg11
S'text/html'
p836
sg13
Nsg14
V
stRp837
sg50
g37
((I2011
I1
I27
I5
I21
I22
I3
I27
I0
t(dtRp838
sg18
(lp839
g1
(g2
g3
(dp840
g21
Vhttp://www.mspaintadventures.com/?s=6&p=005271
p841
sg11
g23
sg24
g25
stRp842
asg27
V01/26/11 : Terezi: Dust for prints.
p843
sg36
VWed, 26 Jan 2011 22:21:22 -0700
p844
sg58
V
sg59
I00
sS'title_detail'
p845
g1
(g2
g3
(dp846
g9
S'http://mspaintadventures.com/rss/rss.xml'
p847
sg11
S'text/plain'
p848
sg13
Nsg14
g843
stRp849
sg28
g841
sg65
(lp850
g90
aV*
asg69
V
stRp851
asS'canto_update'
p852
F1296519901.473974
sS'headers'
p853
(dp854
S'content-length'
p855
S'9977'
p856
sS'x-varnish'
p857
S'2358158881'
p858
sS'via'
p859
S'1.1 varnish'
p860
sS'age'
p861
S'0'
sS'server'
p862
S'Apache/2.2.8 (Fedora)'
p863
sS'last-modified'
p864
S'Mon, 31 Jan 2011 20:16:28 GMT'
p865
sS'connection'
p866
S'close'
p867
sS'etag'
p868
S'"2080b0-26f9-49b2a17425f00"'
p869
sS'date'
p870
S'Mon, 31 Jan 2011 20:37:21 GMT'
p871
sS'content-type'
p872
S'text/xml'
p873
ssg21
S'http://mspaintadventures.com/rss/rss.xml'
p874
sS'version'
p875
S'rss20'
p876
sg65
(lp877
sS'etag'
p878
g869
sS'namespaces'
p879
(dp880
sS'canto_version'
p881
(I0
I7
I9
tp882
stRp883
.