ccopy_reg
_reconstructor
p1
(cfeedparser
FeedParserDict
p2
c__builtin__
dict
p3
(dp4
S'feed'
p5
g1
(g2
g3
(dp6
S'lastbuilddate'
p7
VMon, 14 Feb 2011 06:02:14 -0500
p8
sS'updated'
p9
VMon, 14 Feb 2011 06:02:14 -0500
p10
sS'subtitle'
p11
VThe latest quotes from http://www.xkcdb.com
p12
sS'updated_parsed'
p13
ctime
struct_time
p14
((I2011
I2
I14
I11
I2
I14
I0
I45
I0
t(dtRp15
sS'language'
p16
Ven-us
p17
sS'author'
p18
Vrss@peeron.com
p19
sS'publisher'
p20
Vwebmaster@peeron.com
p21
sS'links'
p22
(lp23
g1
(g2
g3
(dp24
S'href'
p25
Vhttp://www.xkcdb.com/
p26
sS'type'
p27
S'text/html'
p28
sS'rel'
p29
S'alternate'
p30
stRp31
asS'subtitle_detail'
p32
g1
(g2
g3
(dp33
S'base'
p34
S'http://peeron.com/tickers/xkcdb.xml'
p35
sg27
S'text/html'
p36
sS'value'
p37
g12
sg16
NstRp38
sS'title_detail'
p39
g1
(g2
g3
(dp40
g34
S'http://peeron.com/tickers/xkcdb.xml'
p41
sg27
S'text/plain'
p42
sg37
VThe latest XKCD quote database entries
p43
sg16
NstRp44
sS'link'
p45
g26
sS'ttl'
p46
V360
p47
sS'title'
p48
g43
sS'author_detail'
p49
g1
(g2
g3
(dp50
S'name'
p51
V
sS'email'
p52
g19
stRp53
sS'publisher_detail'
p54
g1
(g2
g3
(dp55
g51
V
sg52
g21
stRp56
stRp57
sS'status'
p58
I200
sg9
g14
((I2011
I2
I14
I11
I5
I14
I0
I45
I0
t(dtRp59
sS'version'
p60
S'rss20'
p61
sS'encoding'
p62
S'utf-8'
p63
sS'bozo'
p64
I0
sS'canto_version'
p65
(I0
I7
I9
tp66
sS'canto_update'
p67
F1297684105.606256
sS'headers'
p68
(dp69
S'content-length'
p70
S'51621'
p71
sS'accept-ranges'
p72
S'bytes'
p73
sS'server'
p74
S'Apache/2.2.14'
p75
sS'last-modified'
p76
S'Mon, 14 Feb 2011 11:05:14 GMT'
p77
sS'connection'
p78
S'close'
p79
sS'etag'
p80
S'"35efb9-c9a5-49c3c05ac6e80"'
p81
sS'date'
p82
S'Mon, 14 Feb 2011 11:48:29 GMT'
p83
sS'content-type'
p84
S'application/xml'
p85
ssS'etag'
p86
g81
sS'canto_state'
p87
(lp88
sg25
S'http://peeron.com/tickers/xkcdb.xml'
p89
sS'namespaces'
p90
(dp91
sS'entries'
p92
(lp93
g1
(g2
g3
(dp94
S'summary_detail'
p95
g1
(g2
g3
(dp96
g34
S'http://peeron.com/tickers/xkcdb.xml'
p97
sg27
S'text/html'
p98
sg37
V<span class="quote">&lt;shoofle&gt; guys um<br /> &lt;shoofle&gt; my mp3 player ded<br /> &lt;Seth&gt; :O<br /> &lt;shoofle&gt; my emotional state is in severe distress if it stays in this state<br /> &lt;shoofle&gt; what do I do?<br /> &lt;Bucket&gt; Drink heavily!<br /> &lt;Seth&gt; ^</span>\u000a<br /><br /><a href="http://www.xkcdb.com/?&upvote=8149#8149">++</a> | <a href="http://www.xkcdb.com/?&downvote=8149#8149">--</a>
p99
sg16
NstRp100
sg13
g14
((I2011
I2
I14
I8
I2
I3
I0
I45
I0
t(dtRp101
sg22
(lp102
g1
(g2
g3
(dp103
g25
Vhttp://www.xkcdb.com/?8149
p104
sg27
g28
sg29
g30
stRp105
asg18
V"shoofle, Seth, Bucket" <rss@peeron.com>
p106
sg48
VQuote #8149
p107
sg9
VMon, 14 Feb 2011 03:02:03  -0500
p108
sS'summary'
p109
g99
sS'guidislink'
p110
I01
sS'title_detail'
p111
g1
(g2
g3
(dp112
g34
S'http://peeron.com/tickers/xkcdb.xml'
p113
sg27
S'text/plain'
p114
sg37
g107
sg16
NstRp115
sg45
g104
sg87
(lp116
VThe latest XKCD quote database entries
p117
aV*
aS'read'
p118
asS'author_detail'
p119
g1
(g2
g3
(dp120
g51
V"shoofle, Seth, Bucket" <>
p121
sg52
Vrss@peeron.com
p122
stRp123
sS'id'
p124
Vhttp://www.xkcdb.com/?8149
p125
stRp126
ag1
(g2
g3
(dp127
S'summary_detail'
p128
g1
(g2
g3
(dp129
g34
S'http://peeron.com/tickers/xkcdb.xml'
p130
sg27
S'text/html'
p131
sg37
V<span class="quote">&lt; Ahrotahntee&gt; botsnack<br /> &lt; Bucket&gt; botsnack is <a href="http://tinyurl.com/botsnack">http://tinyurl.com/botsnack</a><br /> &lt; billygoat&gt; :D<br /> &lt; flyingferret&gt; :D<br /> &lt; Parabox&gt; :D<br /> &lt; Caffeine&gt; :D<br /> &lt; tankgunk&gt; :D<br /> &lt; terran&gt; :D<br /> &lt; Himerius&gt; :D<br /> &lt; Ahrotahntee&gt; :D<br /> &lt; Jikan&gt; :D<br /> -!- Ahrotahntee changed the topic of #xkcd to: It's :D Hour<br /> &lt; Rena&gt; :D<br /> &lt; bbqq&gt; :D<br /> &lt; terran&gt; ruined it<br /> &lt; bbqq&gt; agreed.<br /> &lt; Bucket&gt; A-envy.<br /> &lt; Parabox&gt; A-lust.<br /> &lt; Jikan&gt; A-fail<br /> &lt; Ahrotahntee&gt; A-lways<br /> &lt; Caffeine&gt; fuck you good sir, Ahrontahntee.<br /> &lt; Caffeine&gt; FUGS.<br /> &lt; Himerius&gt; A-lphabet<br /> &lt; Ahrotahntee&gt; rofl<br /> -!- tankgunk changed the topic of #xkcd to: :D hour, over in 30 seconds.</span>\u000a<br /><br /><a href="http://www.xkcdb.com/?&upvote=8148#8148">++</a> | <a href="http://www.xkcdb.com/?&downvote=8148#8148">--</a>
p132
sg16
NstRp133
sg13
g14
((I2011
I2
I13
I14
I2
I8
I6
I44
I0
t(dtRp134
sg22
(lp135
g1
(g2
g3
(dp136
g25
Vhttp://www.xkcdb.com/?8148
p137
sg27
g28
sg29
g30
stRp138
asg18
V"Ahrotahntee, Caffeine, Bucket, Himerius, Jikan, Parabox, bbqq, terran, Rena, billygoat, flyingferret, tankgunk" <rss@peeron.com>
p139
sg48
VQuote #8148
p140
sg9
VSun, 13 Feb 2011 09:02:08  -0500
p141
sg109
g132
sg110
I01
sS'title_detail'
p142
g1
(g2
g3
(dp143
g34
S'http://peeron.com/tickers/xkcdb.xml'
p144
sg27
S'text/plain'
p145
sg37
g140
sg16
NstRp146
sg45
g137
sg87
(lp147
VThe latest XKCD quote database entries
p148
aV*
aS'read'
p149
asS'author_detail'
p150
g1
(g2
g3
(dp151
g51
V"Ahrotahntee, Caffeine, Bucket, Himerius, Jikan, Parabox, bbqq, terran, Rena, billygoat, flyingferret, tankgunk" <>
p152
sg52
Vrss@peeron.com
p153
stRp154
sg124
Vhttp://www.xkcdb.com/?8148
p155
stRp156
ag1
(g2
g3
(dp157
S'summary_detail'
p158
g1
(g2
g3
(dp159
g34
S'http://peeron.com/tickers/xkcdb.xml'
p160
sg27
S'text/html'
p161
sg37
V<span class="quote">&lt;&amp;Randall&gt; Bucket: minecraft?<br /> &lt; Bucket&gt; You mean mineCRACK.<br /> &lt;&amp;Randall&gt; Bucket: xkcd minecraft server<br /> &lt; Bucket&gt; I don't know<br /> &lt;&amp;Randall&gt; Bucket: I made you and I can destroy you.<br /> &lt; Bucket&gt; How does that make you feel, Randall?<br /> &lt;&amp;Randall&gt; Powerful! ... but sad. :(</span>\u000a<br /><br /><a href="http://www.xkcdb.com/?&upvote=8146#8146">++</a> | <a href="http://www.xkcdb.com/?&downvote=8146#8146">--</a>
p162
sg16
NstRp163
sg13
g14
((I2011
I2
I12
I4
I2
I3
I5
I43
I0
t(dtRp164
sg22
(lp165
g1
(g2
g3
(dp166
g25
Vhttp://www.xkcdb.com/?8146
p167
sg27
g28
sg29
g30
stRp168
asg18
V"Randall, Bucket" <rss@peeron.com>
p169
sg48
VQuote #8146
p170
sg9
VFri, 11 Feb 2011 23:02:03  -0500
p171
sg109
g162
sg110
I01
sS'title_detail'
p172
g1
(g2
g3
(dp173
g34
S'http://peeron.com/tickers/xkcdb.xml'
p174
sg27
S'text/plain'
p175
sg37
g170
sg16
NstRp176
sg45
g167
sg87
(lp177
VThe latest XKCD quote database entries
p178
aV*
aS'read'
p179
asS'author_detail'
p180
g1
(g2
g3
(dp181
g51
V"Randall, Bucket" <>
p182
sg52
Vrss@peeron.com
p183
stRp184
sg124
Vhttp://www.xkcdb.com/?8146
p185
stRp186
ag1
(g2
g3
(dp187
S'summary_detail'
p188
g1
(g2
g3
(dp189
g34
S'http://peeron.com/tickers/xkcdb.xml'
p190
sg27
S'text/html'
p191
sg37
V<span class="quote">&lt;paratus&gt; i think on valentine's day i might go out to a store or something and find a random sad-looking pretty girl and ask her to dinner. because why the fuck not<br /> &lt;julian&gt; paratus: Because she'll reject you and you'll feel like shit?<br /> &lt;YQM&gt; Feeling like shit is 50% of being a guy<br /> &lt;YQM&gt; The other 50% is thinking &quot;Fuck it, at least I have a penis&quot;</span>\u000a<br /><br /><a href="http://www.xkcdb.com/?&upvote=8145#8145">++</a> | <a href="http://www.xkcdb.com/?&downvote=8145#8145">--</a>
p192
sg16
NstRp193
sg13
g14
((I2011
I2
I12
I4
I2
I3
I5
I43
I0
t(dtRp194
sg22
(lp195
g1
(g2
g3
(dp196
g25
Vhttp://www.xkcdb.com/?8145
p197
sg27
g28
sg29
g30
stRp198
asg18
V"YQM, julian, paratus" <rss@peeron.com>
p199
sg48
VQuote #8145
p200
sg9
VFri, 11 Feb 2011 23:02:03  -0500
p201
sg109
V<span class="quote">&lt;paratus&gt; i think on valentine's day i might go out to a store or something and find a random sad-looking pretty girl and ask her to dinner. because why the fuck not<br /> &lt;julian&gt; paratus: Because she'll reject you and you'll feel like shit?<br /> &lt;YQM&gt; Feeling like shit is 50\u005c% of being a guy<br /> &lt;YQM&gt; The other 50\u005c% is thinking &quot;Fuck it, at least I have a penis&quot;</span>\u000a<br /><br /><a href="http://www.xkcdb.com/?&upvote=8145#8145">++</a> | <a href="http://www.xkcdb.com/?&downvote=8145#8145">--</a>
p202
sg110
I01
sS'title_detail'
p203
g1
(g2
g3
(dp204
g34
S'http://peeron.com/tickers/xkcdb.xml'
p205
sg27
S'text/plain'
p206
sg37
g200
sg16
NstRp207
sg45
g197
sg87
(lp208
g178
aV*
ag179
asS'author_detail'
p209
g1
(g2
g3
(dp210
g51
V"YQM, julian, paratus" <>
p211
sg52
Vrss@peeron.com
p212
stRp213
sg124
Vhttp://www.xkcdb.com/?8145
p214
stRp215
ag1
(g2
g3
(dp216
S'summary_detail'
p217
g1
(g2
g3
(dp218
g34
S'http://peeron.com/tickers/xkcdb.xml'
p219
sg27
S'text/html'
p220
sg37
V<span class="quote">&lt;McAfreak&gt; &quot;She's a secret agent. He's an admitted Nazi. Toghether, they fight Anonymous!&quot;<br /> &lt;fantasyprone&gt; yes, I remember<br /> &lt;McAfreak&gt; although it wouldn't be that epic of a movie to fight Anonymous<br /> &lt;McAfreak&gt; except maybe in an abstract sense<br /> &lt;fantasyprone&gt; but then the big Twist will happen when it turns out that I AM ANONYMOUS<br /> &lt;fantasyprone&gt; and I double-cross the double-crossers<br /> &lt;fantasyprone&gt; and then it turns out that I am secretly<br /> &lt;fantasyprone&gt; a man<br /> &lt;sheepbat&gt; dun dun dun<br /> &lt;Vespers&gt; I'd watch that movie<br /> &lt;McAfreak&gt; and then it will turn out that I'm actually a woman!<br /> &lt;McAfreak&gt; we'd create a robot furby<br /> &lt;fantasyprone&gt; and then the movie turns into a porno?<br /> &lt;McAfreak&gt; nah, a romantic comedy<br /> &lt;fantasyprone&gt; a porny romantic comedy<br /> &lt;Frowardd&gt; sounds wonderful<br /> &lt;Frowardd&gt; there really should be more plot porn<br /> &lt;McAfreak&gt; lol, the porn identity<br /> &lt;McAfreak&gt; I'd kill a member of Anonymous and put on that &quot;V for Vendetta&quot; mask that's so commonly used to represent them<br /> &lt;fantasyprone&gt; and then there would be hot masked sex<br /> &lt;McAfreak&gt; would you be wearing a mask too?<br /> &lt;McAfreak&gt; and then Julian would cut us a deal to reveal the IP addresses, email addresses, and personal information of all members of Anonymous<br /> &lt;fantasyprone&gt; no, but then halfway through you would take off the mask and reveal that you were actually me<br /> &lt;fantasyprone&gt; and I would take off my face to reveal a mask<br /> &lt;McAfreak&gt; and THEN Julian reveals the information<br /> &lt;fantasyprone&gt; yeah, that'll do<br /> &lt;McAfreak&gt; just because we scared the shit outta him<br /> &lt;fantasyprone&gt; someone call Spielberg<br /> &lt;McAfreak&gt; oh, this will definitely be a box office hit<br /> &lt;McAfreak&gt; &quot;Anonymous&quot; - coming to theatres near you<br /> &lt;McAfreak&gt; actually, Anonymous *would* be a pretty good movie title for just an actual action hacking movie<br /> &lt;Frowardd&gt; anonymous are the hipsters of the internet<br /> &lt;Frowardd&gt; they spend time whining about and at everything, and generally are useless<br /> &lt;fantasyprone&gt; I kind of want to make this movie now though<br /> &lt;Frowardd&gt; yet somehow think they are of some importance to society<br /> &lt;Scouto2&gt; Frowardd: This comparison is so very, very appropriate<br /> &lt;Frowardd&gt; and are a self inclusive self loving group<br /> &lt;DarkLoad&gt; and at a constant middling speed<br /> &lt;fantasyprone&gt; like Mr and Mrs Smith meets the Matrix<br /> &lt;McAfreak&gt; with porn<br /> &lt;McAfreak&gt; and then we'd both turn out to be Tyler Durden<br /> &lt;Frowardd&gt; whoa whoa whoa<br /> &lt;Frowardd&gt; that<br /> &lt;Frowardd&gt; no.<br /> &lt;fantasyprone&gt; hot<br /> &lt;fantasyprone&gt; I should find some Tyler Durden/Tyler Durden porn<br /> &lt;fantasyprone&gt; awwwwwww yeah<br /> &lt;Frowardd&gt; we don't do that, kids. we don't take something nice and turn it into an action movie franchise<br /> &lt;McAfreak&gt; if there's not any, remember rule 34 of the internet<br /> &lt;fantasyprone&gt; that's what I'm relying on</span>\u000a<br /><br /><a href="http://www.xkcdb.com/?&upvote=8142#8142">++</a> | <a href="http://www.xkcdb.com/?&downvote=8142#8142">--</a>
p221
sg16
NstRp222
sg13
g14
((I2011
I2
I11
I10
I2
I2
I4
I42
I0
t(dtRp223
sg22
(lp224
g1
(g2
g3
(dp225
g25
Vhttp://www.xkcdb.com/?8142
p226
sg27
g28
sg29
g30
stRp227
asg18
V"McAfreak, fantasyprone, Frowardd, DarkLoad, Scouto2, Vespers, sheepbat" <rss@peeron.com>
p228
sg48
VQuote #8142
p229
sg9
VFri, 11 Feb 2011 05:02:02  -0500
p230
sg109
g221
sg110
I01
sS'title_detail'
p231
g1
(g2
g3
(dp232
g34
S'http://peeron.com/tickers/xkcdb.xml'
p233
sg27
S'text/plain'
p234
sg37
g229
sg16
NstRp235
sg45
g226
sg87
(lp236
VThe latest XKCD quote database entries
p237
aV*
aS'read'
p238
asS'author_detail'
p239
g1
(g2
g3
(dp240
g51
V"McAfreak, fantasyprone, Frowardd, DarkLoad, Scouto2, Vespers, sheepbat" <>
p241
sg52
Vrss@peeron.com
p242
stRp243
sg124
Vhttp://www.xkcdb.com/?8142
p244
stRp245
ag1
(g2
g3
(dp246
S'summary_detail'
p247
g1
(g2
g3
(dp248
g34
S'http://peeron.com/tickers/xkcdb.xml'
p249
sg27
S'text/html'
p250
sg37
V<span class="quote">&lt;Beale&gt; The moon<br /> &lt;Bucket&gt; I don't believe in the moon, I think it's just the back of the sun.<br /> &lt;drey&gt; Bucket: you are stupid<br /> &lt;Bucket&gt; drey: I already had it that way</span>\u000a<br /><br /><a href="http://www.xkcdb.com/?&upvote=8140#8140">++</a> | <a href="http://www.xkcdb.com/?&downvote=8140#8140">--</a>
p251
sg16
NstRp252
sg13
g14
((I2011
I2
I9
I7
I2
I5
I2
I40
I0
t(dtRp253
sg22
(lp254
g1
(g2
g3
(dp255
g25
Vhttp://www.xkcdb.com/?8140
p256
sg27
g28
sg29
g30
stRp257
asg18
V"Bucket, Beale, drey" <rss@peeron.com>
p258
sg48
VQuote #8140
p259
sg9
VWed, 09 Feb 2011 02:02:05  -0500
p260
sg109
g251
sg110
I01
sS'title_detail'
p261
g1
(g2
g3
(dp262
g34
S'http://peeron.com/tickers/xkcdb.xml'
p263
sg27
S'text/plain'
p264
sg37
g259
sg16
NstRp265
sg45
g256
sg87
(lp266
VThe latest XKCD quote database entries
p267
aV*
aS'read'
p268
asS'author_detail'
p269
g1
(g2
g3
(dp270
g51
V"Bucket, Beale, drey" <>
p271
sg52
Vrss@peeron.com
p272
stRp273
sg124
Vhttp://www.xkcdb.com/?8140
p274
stRp275
ag1
(g2
g3
(dp276
S'summary_detail'
p277
g1
(g2
g3
(dp278
g34
S'http://peeron.com/tickers/xkcdb.xml'
p279
sg27
S'text/html'
p280
sg37
V<span class="quote">&lt; genewitch&gt; 5 ounces of pure alcohol will FUCK ANY HUMAN BEING UP.<br /> &lt; genewitch&gt; and not like a little bit<br /> &lt; genewitch&gt; like oh teehee i drunk dialed<br /> &lt; genewitch&gt; no like FUCK YOU PIG I AM DRIVING TO MEXICOOOOOOOOOOOOOO<br /> &lt; genewitch&gt; and you're in a shopping cart</span>\u000a<br /><br /><a href="http://www.xkcdb.com/?&upvote=8139#8139">++</a> | <a href="http://www.xkcdb.com/?&downvote=8139#8139">--</a>
p281
sg16
NstRp282
sg13
g14
((I2011
I2
I7
I16
I2
I10
I0
I38
I0
t(dtRp283
sg22
(lp284
g1
(g2
g3
(dp285
g25
Vhttp://www.xkcdb.com/?8139
p286
sg27
g28
sg29
g30
stRp287
asg18
V"genewitch" <rss@peeron.com>
p288
sg48
VQuote #8139
p289
sg9
VMon, 07 Feb 2011 11:02:10  -0500
p290
sg109
g281
sg110
I01
sS'title_detail'
p291
g1
(g2
g3
(dp292
g34
S'http://peeron.com/tickers/xkcdb.xml'
p293
sg27
S'text/plain'
p294
sg37
g289
sg16
NstRp295
sg45
g286
sg87
(lp296
VThe latest XKCD quote database entries
p297
aV*
aS'read'
p298
asS'author_detail'
p299
g1
(g2
g3
(dp300
g51
V"genewitch" <>
p301
sg52
Vrss@peeron.com
p302
stRp303
sg124
Vhttp://www.xkcdb.com/?8139
p304
stRp305
ag1
(g2
g3
(dp306
S'summary_detail'
p307
g1
(g2
g3
(dp308
g34
S'http://peeron.com/tickers/xkcdb.xml'
p309
sg27
S'text/html'
p310
sg37
V<span class="quote">* Obsidian throws Selig into bucket<br /> * Obsidian puts a lid on Bucket<br /> * Bucket traps Obsidian inside<br /> &lt;Obsidian&gt; wait what how the hell</span>\u000a<br /><br /><a href="http://www.xkcdb.com/?&upvote=8137#8137">++</a> | <a href="http://www.xkcdb.com/?&downvote=8137#8137">--</a>
p311
sg16
NstRp312
sg13
g14
((I2011
I2
I7
I5
I2
I10
I0
I38
I0
t(dtRp313
sg22
(lp314
g1
(g2
g3
(dp315
g25
Vhttp://www.xkcdb.com/?8137
p316
sg27
g28
sg29
g30
stRp317
asg18
V"Obsidian" <rss@peeron.com>
p318
sg48
VQuote #8137
p319
sg9
VMon, 07 Feb 2011 00:02:10  -0500
p320
sg109
g311
sg110
I01
sS'title_detail'
p321
g1
(g2
g3
(dp322
g34
S'http://peeron.com/tickers/xkcdb.xml'
p323
sg27
S'text/plain'
p324
sg37
g319
sg16
NstRp325
sg45
g316
sg87
(lp326
VThe latest XKCD quote database entries
p327
aV*
aS'read'
p328
asS'author_detail'
p329
g1
(g2
g3
(dp330
g51
V"Obsidian" <>
p331
sg52
Vrss@peeron.com
p332
stRp333
sg124
Vhttp://www.xkcdb.com/?8137
p334
stRp335
ag1
(g2
g3
(dp336
S'summary_detail'
p337
g1
(g2
g3
(dp338
g34
S'http://peeron.com/tickers/xkcdb.xml'
p339
sg27
S'text/html'
p340
sg37
V<span class="quote">&lt;@snark&gt; <a href="http://en.wikipedia.org/wiki/Wikipedia:No_angry_mastodons">http://en.wikipedia.org/wiki/Wikipedia:No_angry_mastodons</a> This one I might actually start linking for enraged denizens<br /> &lt;@snark&gt; &quot;You appear to be reacting to a non-existent mastodon. Maybe you should take a breather and then come back and re-examine things&quot;<br /> &lt;Aberro&gt; snark, BUT HE WAS THERE, I SAW 'IM WITH ME OWN TWO EYES. I HAD TO FIGHT OR HE'DA GOT ME<br /> * billygoat sets mode: +b *!Abarrow@*.lightspeed.dybhfl.sbcglobal.net<br /> * Aberro was kicked by billygoat (5-minute autokill)<br /> &lt;Bucket&gt; &Atilde;&cent;&acirc;&#132;&cent;&Acirc;&ordf; Another one bites the dust! &Atilde;&cent;&acirc;&#132;&cent;&Acirc;&ordf;<br /> &lt;@snark&gt; no, that was a goat</span>\u000a<br /><br /><a href="http://www.xkcdb.com/?&upvote=8136#8136">++</a> | <a href="http://www.xkcdb.com/?&downvote=8136#8136">--</a>
p341
sg16
NstRp342
sg13
g14
((I2011
I2
I6
I10
I2
I7
I6
I37
I0
t(dtRp343
sg22
(lp344
g1
(g2
g3
(dp345
g25
Vhttp://www.xkcdb.com/?8136
p346
sg27
g28
sg29
g30
stRp347
asg18
V"snark, Aberro, Bucket" <rss@peeron.com>
p348
sg48
VQuote #8136
p349
sg9
VSun, 06 Feb 2011 05:02:07  -0500
p350
sg109
g341
sg110
I01
sS'title_detail'
p351
g1
(g2
g3
(dp352
g34
S'http://peeron.com/tickers/xkcdb.xml'
p353
sg27
S'text/plain'
p354
sg37
g349
sg16
NstRp355
sg45
g346
sg87
(lp356
VThe latest XKCD quote database entries
p357
aV*
aS'read'
p358
asS'author_detail'
p359
g1
(g2
g3
(dp360
g51
V"snark, Aberro, Bucket" <>
p361
sg52
Vrss@peeron.com
p362
stRp363
sg124
Vhttp://www.xkcdb.com/?8136
p364
stRp365
ag1
(g2
g3
(dp366
S'summary_detail'
p367
g1
(g2
g3
(dp368
g34
S'http://peeron.com/tickers/xkcdb.xml'
p369
sg27
S'text/html'
p370
sg37
V<span class="quote">&lt;afuzzyduck&gt; so how's people/things?<br /> &lt;natjo&gt; i wouldn't mind getting whipped by a hot girl but i'll hold off on being thrown from a moving vehicle</span>\u000a<br /><br /><a href="http://www.xkcdb.com/?&upvote=8135#8135">++</a> | <a href="http://www.xkcdb.com/?&downvote=8135#8135">--</a>
p371
sg16
NstRp372
sg13
g14
((I2011
I2
I6
I0
I2
I8
I6
I37
I0
t(dtRp373
sg22
(lp374
g1
(g2
g3
(dp375
g25
Vhttp://www.xkcdb.com/?8135
p376
sg27
g28
sg29
g30
stRp377
asg18
V"afuzzyduck, natjo" <rss@peeron.com>
p378
sg48
VQuote #8135
p379
sg9
VSat, 05 Feb 2011 19:02:08  -0500
p380
sg109
g371
sg110
I01
sS'title_detail'
p381
g1
(g2
g3
(dp382
g34
S'http://peeron.com/tickers/xkcdb.xml'
p383
sg27
S'text/plain'
p384
sg37
g379
sg16
NstRp385
sg45
g376
sg87
(lp386
g357
aV*
ag358
asS'author_detail'
p387
g1
(g2
g3
(dp388
g51
V"afuzzyduck, natjo" <>
p389
sg52
Vrss@peeron.com
p390
stRp391
sg124
Vhttp://www.xkcdb.com/?8135
p392
stRp393
ag1
(g2
g3
(dp394
S'summary_detail'
p395
g1
(g2
g3
(dp396
g34
S'http://peeron.com/tickers/xkcdb.xml'
p397
sg27
S'text/html'
p398
sg37
V<span class="quote">&lt;DarkLoad&gt; what is wrong with me<br /> &lt;Bucket&gt; You're pregnant.<br /> &lt;njsg&gt; DarkLoad: congrats!!!<br /> &lt;Bucket&gt; Why yes, I am pregnant!</span>\u000a<br /><br /><a href="http://www.xkcdb.com/?&upvote=8134#8134">++</a> | <a href="http://www.xkcdb.com/?&downvote=8134#8134">--</a>
p399
sg16
NstRp400
sg13
g14
((I2011
I2
I4
I3
I2
I5
I4
I35
I0
t(dtRp401
sg22
(lp402
g1
(g2
g3
(dp403
g25
Vhttp://www.xkcdb.com/?8134
p404
sg27
g28
sg29
g30
stRp405
asg18
V"Bucket, DarkLoad, njsg" <rss@peeron.com>
p406
sg48
VQuote #8134
p407
sg9
VThu, 03 Feb 2011 22:02:05  -0500
p408
sg109
g399
sg110
I01
sS'title_detail'
p409
g1
(g2
g3
(dp410
g34
S'http://peeron.com/tickers/xkcdb.xml'
p411
sg27
S'text/plain'
p412
sg37
g407
sg16
NstRp413
sg45
g404
sg87
(lp414
VThe latest XKCD quote database entries
p415
aV*
aS'read'
p416
asS'author_detail'
p417
g1
(g2
g3
(dp418
g51
V"Bucket, DarkLoad, njsg" <>
p419
sg52
Vrss@peeron.com
p420
stRp421
sg124
Vhttp://www.xkcdb.com/?8134
p422
stRp423
ag1
(g2
g3
(dp424
S'summary_detail'
p425
g1
(g2
g3
(dp426
g34
S'http://peeron.com/tickers/xkcdb.xml'
p427
sg27
S'text/html'
p428
sg37
V<span class="quote">&lt; logic&gt; Oh man, I just got a friend request from a guy I used to know at school aaaages ago.<br /> &lt; logic&gt; This guy was missing almost half of one arm<br /> &lt; logic&gt; But he was just the nicest guy<br /> &lt; logic&gt; I mean, sure - he couldn't start a round of applause<br /> &lt; logic&gt; but he was just a really nice guy<br /> &lt; logic&gt; Girls always said he could do with one hand what many couldn't do with two<br /> &lt; logic&gt; Inspirational chap<br /> &lt; logic&gt; I'll never forget old stumpy.<br /> &gt;&gt;&gt; stump has joined #xkcd<br /> &lt; logic&gt; ...</span>\u000a<br /><br /><a href="http://www.xkcdb.com/?&upvote=8132#8132">++</a> | <a href="http://www.xkcdb.com/?&downvote=8132#8132">--</a>
p429
sg16
NstRp430
sg13
g14
((I2011
I2
I2
I17
I2
I11
I2
I33
I0
t(dtRp431
sg22
(lp432
g1
(g2
g3
(dp433
g25
Vhttp://www.xkcdb.com/?8132
p434
sg27
g28
sg29
g30
stRp435
asg18
V"logic" <rss@peeron.com>
p436
sg48
VQuote #8132
p437
sg9
VWed, 02 Feb 2011 12:02:11  -0500
p438
sg109
g429
sg110
I01
sS'title_detail'
p439
g1
(g2
g3
(dp440
g34
S'http://peeron.com/tickers/xkcdb.xml'
p441
sg27
S'text/plain'
p442
sg37
g437
sg16
NstRp443
sg45
g434
sg87
(lp444
VThe latest XKCD quote database entries
p445
aV*
aS'read'
p446
asS'author_detail'
p447
g1
(g2
g3
(dp448
g51
V"logic" <>
p449
sg52
Vrss@peeron.com
p450
stRp451
sg124
Vhttp://www.xkcdb.com/?8132
p452
stRp453
ag1
(g2
g3
(dp454
S'summary_detail'
p455
g1
(g2
g3
(dp456
g34
S'http://peeron.com/tickers/xkcdb.xml'
p457
sg27
S'text/html'
p458
sg37
V<span class="quote">&lt;mysss&gt; with whom I have an unfinished game of IRC correspondance chess<br /> &lt;mysss&gt; which, btw, is the best way to play chess ever<br /> &lt;coaxmetal&gt; Knight to 17Q<br /> &lt;Brooklynxman&gt; King me. BINGO!<br /> &lt;mysss&gt; you sunk my star destroyer!<br /> &lt;coaxmetal&gt; Knight takes battleship, do not pass go, do not collect 200$<br /> &lt;vebyast&gt; I cast magic missile at the Red Queen.<br /> &lt;dinosplosion&gt; I seduce black's kobold<br /> &lt;ReishGaluta&gt; My Hungry Hippo devours your pawn. That's 4-in-a-row.<br /> &lt;Brooklynxman&gt; full house, I checkmate your ace of spades<br /> &lt;ReishGaluta&gt; My knight chases away your black pawn, and I steal a wood from your hand.<br /> &lt;coaxmetal&gt; Ok, I get 3 wheat and 2 stone this turn, so I roll 3D20's and change the color to Green. Uno.<br /> &lt;paratus&gt; knight to queen's rook seven. touchdown.<br /> &lt;ReishGaluta&gt; Go fish.<br /> * Bucket somehow manages to strangle himself with the fishing wire<br /> &lt;dinosplosion&gt; I see your knight, and raise you a Charizard. CHEAT.<br /> &lt;coaxmetal&gt; Queen evolves into Col. Mustard<br /> &lt;Brooklynxman&gt; base's loaded, out of mana, 4th quarter, and 2 rooks in the pocket<br /> &lt;coaxmetal&gt; I see your bet with a 6-pool<br /> &lt;vebyast&gt; &quot;Give me ten seconds to finish promoting my straights to flushes and I'll be right there to help out with the zerglings.&quot;<br /> &lt;coaxmetal&gt; actually, I don't play zerg<br /> &lt;ReishGaluta&gt; Black Bishop. Corner Pocket.<br /> &lt;coaxmetal&gt; Rook takes the flag. FINISH HIM.<br /> &lt;Brooklynxman&gt; I have a pair of 2's. I role to bluff<br /> * ReishGaluta rolls three 6's and conquers all of Asia. Yahtzee!<br /> &lt;vebyast&gt; &quot;D5&quot;. &quot;That's a hit, so white pawn takes black bishop and you get a monster kill.&quot;<br /> * Brooklynxman invades via yakutusk, sacraficing 3 pawns and a battleship<br /> &lt;ReishGaluta&gt; strike 3, my bowler takes your pins. Headshot.<br /> &lt;Stereo&gt; hang on, i've got a full house! snap!<br /> &lt;ReishGaluta&gt; We're running low on supply centers! I'm sending my destroyer out rupee hunting.<br /> &lt;Stereo&gt; the last marine is dancing a jig in the blood of slain rooks! uno!<br /> &lt;Stereo&gt; show me the way to go... home<br /> &lt;vebyast&gt; I'm going to tap my full house for three hearts and two spades, then spend one of the hearts to get out of jail free and the rest to call the top hat in the middle pocket.<br /> &lt;ReishGaluta&gt; cheater<br /> &lt;ReishGaluta&gt; you can't tap a full house for 3 hearts and 2 spades.<br /> &lt;Stereo&gt; not unless you're sitting on a double decker<br /> &lt;Stereo&gt; in the middle of berlin, in 1942<br /> &lt;coaxmetal&gt; Zealot to B3, spends 3 bricks and 2 wheat to spawn Boardwalk Ave. Critical hit.<br /> &lt;ReishGaluta&gt; I thought we were playing under Paris conventions!<br /> &lt;ReishGaluta&gt; that explicitly disallows double-decking, and board-sliding.<br /> * ReishGaluta grabs the Calvinball and goes home.<br /> &lt;Stereo&gt; home may be base, but you can't score that way<br /> &lt;ReishGaluta&gt; depends who's home<br /> &lt;Stereo&gt; anyway, you can board slide if the top hat's in the middle pocket, and you've got a spare sheep<br /> &lt;Stereo&gt; you just have to sacrifice a can of soup to the salvation army<br /> &lt;Stereo&gt; and pray on soulcake tuesday<br /> &lt;coaxmetal&gt; If you bamboozle the Calimari, You can take Marinaris valley without spending any sick leave<br /> * Lorvan uses 2 Venus Djinn to summon Ramses, one of the pyramids is destroyed<br /> &lt;Stereo&gt; then it's a clean sweep! i load 3 second edition dogeared copies of Harry Potter into the mousecapult, three parcheesi tokens advance on The Red Dragon, and kaput!<br /> &lt; coaxmetal&gt; I am just making stuff up now</span>\u000a<br /><br /><a href="http://www.xkcdb.com/?&upvote=8131#8131">++</a> | <a href="http://www.xkcdb.com/?&downvote=8131#8131">--</a>
p459
sg16
NstRp460
sg13
g14
((I2011
I2
I1
I17
I2
I6
I1
I32
I0
t(dtRp461
sg22
(lp462
g1
(g2
g3
(dp463
g25
Vhttp://www.xkcdb.com/?8131
p464
sg27
g28
sg29
g30
stRp465
asg18
V"ReishGaluta, Stereo, coaxmetal, Brooklynxman, vebyast, mysss, dinosplosion, paratus" <rss@peeron.com>
p466
sg48
VQuote #8131
p467
sg9
VTue, 01 Feb 2011 12:02:06  -0500
p468
sg109
g459
sg110
I01
sS'title_detail'
p469
g1
(g2
g3
(dp470
g34
S'http://peeron.com/tickers/xkcdb.xml'
p471
sg27
S'text/plain'
p472
sg37
g467
sg16
NstRp473
sg45
g464
sg87
(lp474
VThe latest XKCD quote database entries
p475
aV*
aS'read'
p476
asS'author_detail'
p477
g1
(g2
g3
(dp478
g51
V"ReishGaluta, Stereo, coaxmetal, Brooklynxman, vebyast, mysss, dinosplosion, paratus" <>
p479
sg52
Vrss@peeron.com
p480
stRp481
sg124
Vhttp://www.xkcdb.com/?8131
p482
stRp483
ag1
(g2
g3
(dp484
S'summary_detail'
p485
g1
(g2
g3
(dp486
g34
S'http://peeron.com/tickers/xkcdb.xml'
p487
sg27
S'text/html'
p488
sg37
V<span class="quote">Scouto2 gives bucket the location, speed, and rotation of a specific electron.<br /> * Bucket now contains the location, speed, and rotation of a specific electron.<br /> &lt;alSeen&gt; exactly<br /> &lt;Bucket&gt; Shit! You just collapsed the waveform!<br /> * nazgjunk gives bucket a heisenberg compensator<br /> * Bucket is now carrying a heisenberg compensator, but dropped the location, speed, and rotation of a specific electron.<br /> &lt;nazgjunk&gt; ...<br /> &lt;Bucket&gt; [There is the sound of distant drums.]<br /> &lt;Login&gt; my head essploded.</span>\u000a<br /><br /><a href="http://www.xkcdb.com/?&upvote=8130#8130">++</a> | <a href="http://www.xkcdb.com/?&downvote=8130#8130">--</a>
p489
sg16
NstRp490
sg13
g14
((I2011
I2
I1
I8
I2
I8
I1
I32
I0
t(dtRp491
sg22
(lp492
g1
(g2
g3
(dp493
g25
Vhttp://www.xkcdb.com/?8130
p494
sg27
g28
sg29
g30
stRp495
asg18
V"Bucket, Login, alSeen, nazgjunk" <rss@peeron.com>
p496
sg48
VQuote #8130
p497
sg9
VTue, 01 Feb 2011 03:02:08  -0500
p498
sg109
g489
sg110
I01
sS'title_detail'
p499
g1
(g2
g3
(dp500
g34
S'http://peeron.com/tickers/xkcdb.xml'
p501
sg27
S'text/plain'
p502
sg37
g497
sg16
NstRp503
sg45
g494
sg87
(lp504
VThe latest XKCD quote database entries
p505
aV*
aS'read'
p506
asS'author_detail'
p507
g1
(g2
g3
(dp508
g51
V"Bucket, Login, alSeen, nazgjunk" <>
p509
sg52
Vrss@peeron.com
p510
stRp511
sg124
Vhttp://www.xkcdb.com/?8130
p512
stRp513
ag1
(g2
g3
(dp514
S'summary_detail'
p515
g1
(g2
g3
(dp516
g34
S'http://peeron.com/tickers/xkcdb.xml'
p517
sg27
S'text/html'
p518
sg37
V<span class="quote">&lt;Scouto2&gt; Actually, Crysis at full settings will destroy your computer.<br /> &lt;Scouto2&gt; Okay, channel: Storytime<br /> &lt;Scouto2&gt; Once upon a time, one of my friends went to the state-run governor school<br /> &lt;Scouto2&gt; He had a friend who had brought a laptop. Now, this poor machine had bad specs, and could barely run Windows XP.<br /> &lt;Scouto2&gt; One day, his friend and him had an idea, a horribly aweful, wonderful idea.<br /> &lt;Scouto2&gt; They would run Crysis at full settings on this ancient machine.<br /> &lt;Scouto2&gt; They installed it onto an external hard drive (the poor machine had not enough space).<br /> &lt;Scouto2&gt; They ran it, and lo and behold, the main menu came up. They turned the settings up to the max.<br /> &lt;Scouto2&gt; They started it in the morning, and it loaded the level all day.<br /> &lt;Scouto2&gt; At 5PM, the level appeared, and they pressed &quot;W&quot; to step forwards.<br /> &lt;Scouto2&gt; It took a half-hour to render that first step, but it was beautiful. It was as if they were witnessing creation itself on that poor machine.<br /> &lt;Scouto2&gt; Then, suddenly, the screen went blank, and a crackle was heard.<br /> &lt;Scouto2&gt; Blue smoke poored out, and the machine died.<br /> &lt;Scouto2&gt; END</span>\u000a<br /><br /><a href="http://www.xkcdb.com/?&upvote=8128#8128">++</a> | <a href="http://www.xkcdb.com/?&downvote=8128#8128">--</a>
p519
sg16
NstRp520
sg13
g14
((I2011
I1
I31
I3
I1
I2
I0
I31
I0
t(dtRp521
sg22
(lp522
g1
(g2
g3
(dp523
g25
Vhttp://www.xkcdb.com/?8128
p524
sg27
g28
sg29
g30
stRp525
asg18
V"Scouto2" <rss@peeron.com>
p526
sg48
VQuote #8128
p527
sg9
VSun, 30 Jan 2011 22:01:02  -0500
p528
sg109
g519
sg110
I01
sS'title_detail'
p529
g1
(g2
g3
(dp530
g34
S'http://peeron.com/tickers/xkcdb.xml'
p531
sg27
S'text/plain'
p532
sg37
g527
sg16
NstRp533
sg45
g524
sg87
(lp534
VThe latest XKCD quote database entries
p535
aV*
aS'read'
p536
asS'author_detail'
p537
g1
(g2
g3
(dp538
g51
V"Scouto2" <>
p539
sg52
Vrss@peeron.com
p540
stRp541
sg124
Vhttp://www.xkcdb.com/?8128
p542
stRp543
ag1
(g2
g3
(dp544
S'summary_detail'
p545
g1
(g2
g3
(dp546
g34
S'http://peeron.com/tickers/xkcdb.xml'
p547
sg27
S'text/html'
p548
sg37
V<span class="quote">&lt;@khmer&gt; the new foreman is being shown around the gigantic underground warehouse by his brother, the freight elevator operator, who got him the job. they pass by the refrigeration unit as the elevator is descending the many floors to the bottom of the warehouse, and a blast of frigid air hits them both. <br /> &lt;@khmer&gt; the foreman knows he is underqualified and fundamentally irresponsible, and his substance abuse problem has lost him plenty of jobs, but his brother wanted to give him another chance<br /> &lt;@khmer&gt; the foreman feels the blast of cool air like the breath of a watchful god, poised to smite him should he betray his kin another time<br /> &lt;@khmer&gt; &quot;what was that blast of air&quot;, he says gingerly to his stoic brother<br /> &lt;@khmer&gt; his brother says &quot;that's the refrigeration unit, on the 4th floor.&quot;<br /> &lt;@khmer&gt; a long and uncomfortable silence passes between the two brothers<br /> &lt;@khmer&gt; both of them feeling the weight of expectation upon their shoulders<br /> &lt;@khmer&gt; tacitly, the foreman feels his brother's mounting disgust with his lack of preparation. he knew this was a food warehouse. he knew there would be refrigeration. but it had slipped his mind.<br /> &lt;@khmer&gt; every moment, every motion feels like a cringe. he loves his brother and is grateful for the second chance, but he doesn't have the words<br /> &lt;@khmer&gt; he was taught not to use the words<br /> &lt;@khmer&gt; he was taught to turn up the television or to leave and go buy mom a pack of dunhills<br /> &lt;@khmer&gt; his brother got all the luck anyway, all of the good fortune and all of the second chances<br /> &lt;@khmer&gt; and despite his mother's blatant favoritism, his congenital scoliosis, the chain of foolish devotions to soulless women, the learning disability<br /> &lt;@khmer&gt; he still found himself feeling ashamed, though he had accomplished more in a material sense than his brother--the precise kind of sense that all his loved ones told him was the only sense that matters<br /> &lt;@khmer&gt; his emotions collapse into themselves, their complex miasma balling up into a black shame<br /> &lt;@khmer&gt; he forgets that his brother might love him, and knows in the bleak center of it all that he must go through the motions<br /> &lt;@khmer&gt; the elevator inches lower, passing by the refrigeration unit<br /> &lt;@khmer&gt; the elevator operator looks at the new foreman, at his image in the wrecked spirit, at his blood in the dust<br /> &lt;@khmer&gt; the silence of longing and voiceless love and anger and fear and regret<br /> &lt;@khmer&gt; he can think of nothing to say about the refrigeration unit, but knows that his brother is expecting comment, and he would do anything to escape the deafening silence<br /> &lt;@khmer&gt; the silence of longing and voiceless love and anger and fear and regret<br /> &lt;@khmer&gt; so as the blast of icy air relents, over the creak of the elevator, he says<br /> &lt;@khmer&gt; &quot;cool story, bro.&quot;</span>\u000a<br /><br /><a href="http://www.xkcdb.com/?&upvote=8121#8121">++</a> | <a href="http://www.xkcdb.com/?&downvote=8121#8121">--</a>
p549
sg16
NstRp550
sg13
g14
((I2011
I1
I30
I19
I1
I4
I6
I30
I0
t(dtRp551
sg22
(lp552
g1
(g2
g3
(dp553
g25
Vhttp://www.xkcdb.com/?8121
p554
sg27
g28
sg29
g30
stRp555
asg18
V"khmer" <rss@peeron.com>
p556
sg48
VQuote #8121
p557
sg9
VSun, 30 Jan 2011 14:01:04  -0500
p558
sg109
g549
sg110
I01
sS'title_detail'
p559
g1
(g2
g3
(dp560
g34
S'http://peeron.com/tickers/xkcdb.xml'
p561
sg27
S'text/plain'
p562
sg37
g557
sg16
NstRp563
sg45
g554
sg87
(lp564
VThe latest XKCD quote database entries
p565
aV*
aVnew
p566
aS'read'
p567
asS'author_detail'
p568
g1
(g2
g3
(dp569
g51
V"khmer" <>
p570
sg52
Vrss@peeron.com
p571
stRp572
sg124
Vhttp://www.xkcdb.com/?8121
p573
stRp574
ag1
(g2
g3
(dp575
S'summary_detail'
p576
g1
(g2
g3
(dp577
g34
S'http://peeron.com/tickers/xkcdb.xml'
p578
sg27
S'text/html'
p579
sg37
V<span class="quote">&lt;unbibium&gt; though our local cast's RHPS preshows still use the phrase &quot;every time you masturbate, God kills a kitten.&quot;<br /> &lt;unbibium&gt; &quot;and every time God masturbates, Chuck Norris kills a lion.&quot;<br /> &lt;xingped&gt; ....What does God do when a kitten masturbates?</span>\u000a<br /><br /><a href="http://www.xkcdb.com/?&upvote=8120#8120">++</a> | <a href="http://www.xkcdb.com/?&downvote=8120#8120">--</a>
p580
sg16
NstRp581
sg13
g14
((I2011
I1
I29
I11
I1
I4
I5
I29
I0
t(dtRp582
sg22
(lp583
g1
(g2
g3
(dp584
g25
Vhttp://www.xkcdb.com/?8120
p585
sg27
g28
sg29
g30
stRp586
asg18
V"unbibium, xingped" <rss@peeron.com>
p587
sg48
VQuote #8120
p588
sg9
VSat, 29 Jan 2011 06:01:04  -0500
p589
sg109
g580
sg110
I01
sS'title_detail'
p590
g1
(g2
g3
(dp591
g34
S'http://peeron.com/tickers/xkcdb.xml'
p592
sg27
S'text/plain'
p593
sg37
g588
sg16
NstRp594
sg45
g585
sg87
(lp595
g565
aV*
ag566
aS'read'
p596
asS'author_detail'
p597
g1
(g2
g3
(dp598
g51
V"unbibium, xingped" <>
p599
sg52
Vrss@peeron.com
p600
stRp601
sg124
Vhttp://www.xkcdb.com/?8120
p602
stRp603
ag1
(g2
g3
(dp604
S'summary_detail'
p605
g1
(g2
g3
(dp606
g34
S'http://peeron.com/tickers/xkcdb.xml'
p607
sg27
S'text/html'
p608
sg37
V<span class="quote">&lt;khmer&gt; &quot;yeah, i'll take the furry yiff bondage?&quot;<br /> &lt;khmer&gt; &quot;i said FURRY YIFF B--god, i hate these drive thru things&quot;<br /> &lt;khmer&gt; &quot;WHY AYE EFF EFF&quot;<br /> &lt;khmer&gt; &quot;WITH, please.&quot;<br /> &lt;khmer&gt; &quot;i'm never coming to this chick-fil-a again&quot;<br /> &lt;crodgers&gt; i want to see someone try and fit a furry dominatrix through a drive through window</span>\u000a<br /><br /><a href="http://www.xkcdb.com/?&upvote=8119#8119">++</a> | <a href="http://www.xkcdb.com/?&downvote=8119#8119">--</a>
p609
sg16
NstRp610
sg13
g14
((I2011
I1
I29
I1
I1
I8
I5
I29
I0
t(dtRp611
sg22
(lp612
g1
(g2
g3
(dp613
g25
Vhttp://www.xkcdb.com/?8119
p614
sg27
g28
sg29
g30
stRp615
asg18
V"khmer, crodgers" <rss@peeron.com>
p616
sg48
VQuote #8119
p617
sg9
VFri, 28 Jan 2011 20:01:08  -0500
p618
sg109
g609
sg110
I01
sS'title_detail'
p619
g1
(g2
g3
(dp620
g34
S'http://peeron.com/tickers/xkcdb.xml'
p621
sg27
S'text/plain'
p622
sg37
g617
sg16
NstRp623
sg45
g614
sg87
(lp624
g565
aV*
ag566
ag596
asS'author_detail'
p625
g1
(g2
g3
(dp626
g51
V"khmer, crodgers" <>
p627
sg52
Vrss@peeron.com
p628
stRp629
sg124
Vhttp://www.xkcdb.com/?8119
p630
stRp631
ag1
(g2
g3
(dp632
S'summary_detail'
p633
g1
(g2
g3
(dp634
g34
S'http://peeron.com/tickers/xkcdb.xml'
p635
sg27
S'text/html'
p636
sg37
V<span class="quote">&lt;cuddlefish&gt; Dear amazon: I'm not gay. Stop suggesting sex toys to me.<br /> &lt;Nougatti&gt; sex toys: it's a gay thing<br /> &lt;towo&gt; cuddlefish: Check why they're suggested.<br /> &lt;baslisks&gt; hey, homosexuals aren't the only ones who use sex toys<br /> &lt;cuddlefish&gt; towo: Because I bou.... wait what<br /> &lt;cuddlefish&gt; towo: &quot;Fantasy Egg for Him&quot;, suggested because I bought... welding goggles.<br /> &lt;cuddlefish&gt; what the FUCK<br /> &lt;cuddlefish&gt; how are those things POSSIBLY related..<br /> &lt;cuddlefish&gt; who welds during sex<br /> &lt;Burstaholic&gt; I'll join your I-beams, baby</span>\u000a<br /><br /><a href="http://www.xkcdb.com/?&upvote=8117#8117">++</a> | <a href="http://www.xkcdb.com/?&downvote=8117#8117">--</a>
p637
sg16
NstRp638
sg13
g14
((I2011
I1
I28
I9
I1
I4
I4
I28
I0
t(dtRp639
sg22
(lp640
g1
(g2
g3
(dp641
g25
Vhttp://www.xkcdb.com/?8117
p642
sg27
g28
sg29
g30
stRp643
asg18
V"cuddlefish, Burstaholic, Nougatti, baslisks, towo" <rss@peeron.com>
p644
sg48
VQuote #8117
p645
sg9
VFri, 28 Jan 2011 04:01:04  -0500
p646
sg109
g637
sg110
I01
sS'title_detail'
p647
g1
(g2
g3
(dp648
g34
S'http://peeron.com/tickers/xkcdb.xml'
p649
sg27
S'text/plain'
p650
sg37
g645
sg16
NstRp651
sg45
g642
sg87
(lp652
VThe latest XKCD quote database entries
p653
aV*
aVnew
p654
aS'read'
p655
asS'author_detail'
p656
g1
(g2
g3
(dp657
g51
V"cuddlefish, Burstaholic, Nougatti, baslisks, towo" <>
p658
sg52
Vrss@peeron.com
p659
stRp660
sg124
Vhttp://www.xkcdb.com/?8117
p661
stRp662
ag1
(g2
g3
(dp663
S'summary_detail'
p664
g1
(g2
g3
(dp665
g34
S'http://peeron.com/tickers/xkcdb.xml'
p666
sg27
S'text/html'
p667
sg37
V<span class="quote">&lt; logic&gt; TO MUCH COFFEE<br /> &lt; logic&gt; BEEN UP SINCE 6 AM<br /> &lt; logic&gt; DUE TO AN ERROR FOUND IN rest.sleep<br /> &lt; logic&gt; at 0x0000E780<br /> &lt; Flibberdy&gt; logic: &quot;child process spawned&quot;?<br /> &lt; logic&gt; Flibberdy: yeah, it's called 'bodilyFunctions.needWee'<br /> &lt; Saturn&gt; logic: 0x5ADFACE</span>\u000a<br /><br /><a href="http://www.xkcdb.com/?&upvote=8116#8116">++</a> | <a href="http://www.xkcdb.com/?&downvote=8116#8116">--</a>
p668
sg16
NstRp669
sg13
g14
((I2011
I1
I27
I17
I1
I3
I3
I27
I0
t(dtRp670
sg22
(lp671
g1
(g2
g3
(dp672
g25
Vhttp://www.xkcdb.com/?8116
p673
sg27
g28
sg29
g30
stRp674
asg18
V"logic, Flibberdy, Saturn" <rss@peeron.com>
p675
sg48
VQuote #8116
p676
sg9
VThu, 27 Jan 2011 12:01:03  -0500
p677
sg109
g668
sg110
I01
sS'title_detail'
p678
g1
(g2
g3
(dp679
g34
S'http://peeron.com/tickers/xkcdb.xml'
p680
sg27
S'text/plain'
p681
sg37
g676
sg16
NstRp682
sg45
g673
sg87
(lp683
VThe latest XKCD quote database entries
p684
aV*
aVnew
p685
aS'read'
p686
asS'author_detail'
p687
g1
(g2
g3
(dp688
g51
V"logic, Flibberdy, Saturn" <>
p689
sg52
Vrss@peeron.com
p690
stRp691
sg124
Vhttp://www.xkcdb.com/?8116
p692
stRp693
ag1
(g2
g3
(dp694
S'summary_detail'
p695
g1
(g2
g3
(dp696
g34
S'http://peeron.com/tickers/xkcdb.xml'
p697
sg27
S'text/html'
p698
sg37
V<span class="quote">&lt;asarkar&gt; flyingferret: Hey, can you answer this vague question for me?<br /> &lt;flyingferret&gt; I'm ... actually not sure. There are good arguments for both.</span>\u000a<br /><br /><a href="http://www.xkcdb.com/?&upvote=8110#8110">++</a> | <a href="http://www.xkcdb.com/?&downvote=8110#8110">--</a>
p699
sg16
NstRp700
sg13
g14
((I2011
I1
I26
I5
I1
I6
I2
I26
I0
t(dtRp701
sg22
(lp702
g1
(g2
g3
(dp703
g25
Vhttp://www.xkcdb.com/?8110
p704
sg27
g28
sg29
g30
stRp705
asg18
V"asarkar, flyingferret" <rss@peeron.com>
p706
sg48
VQuote #8110
p707
sg9
VWed, 26 Jan 2011 00:01:06  -0500
p708
sg109
g699
sg110
I01
sS'title_detail'
p709
g1
(g2
g3
(dp710
g34
S'http://peeron.com/tickers/xkcdb.xml'
p711
sg27
S'text/plain'
p712
sg37
g707
sg16
NstRp713
sg45
g704
sg87
(lp714
VThe latest XKCD quote database entries
p715
aV*
aVnew
p716
aS'read'
p717
asS'author_detail'
p718
g1
(g2
g3
(dp719
g51
V"asarkar, flyingferret" <>
p720
sg52
Vrss@peeron.com
p721
stRp722
sg124
Vhttp://www.xkcdb.com/?8110
p723
stRp724
ag1
(g2
g3
(dp725
S'summary_detail'
p726
g1
(g2
g3
(dp727
g34
S'http://peeron.com/tickers/xkcdb.xml'
p728
sg27
S'text/html'
p729
sg37
V<span class="quote">&lt;kalivha&gt; I hate some people here<br /> &lt;kalivha&gt; I especially hate mister &quot;I'm REALLY fucking physically attractive but have to be a racist fucking cunt&quot;<br /> &lt;kalivha&gt; I don't want to be attracted to an idiot like that<br /> &lt;nazgjunk&gt; kalivha: eh, you're attracted to his body.<br /> &lt;nazgjunk&gt; Learn to separate it from the rest of him ;)<br /> &lt;nazgjunk&gt; not... literally</span>\u000a<br /><br /><a href="http://www.xkcdb.com/?&upvote=8107#8107">++</a> | <a href="http://www.xkcdb.com/?&downvote=8107#8107">--</a>
p730
sg16
NstRp731
sg13
g14
((I2011
I1
I25
I8
I1
I7
I1
I25
I0
t(dtRp732
sg22
(lp733
g1
(g2
g3
(dp734
g25
Vhttp://www.xkcdb.com/?8107
p735
sg27
g28
sg29
g30
stRp736
asg18
V"kalivha, nazgjunk" <rss@peeron.com>
p737
sg48
VQuote #8107
p738
sg9
VTue, 25 Jan 2011 03:01:07  -0500
p739
sg109
g730
sg110
I01
sS'title_detail'
p740
g1
(g2
g3
(dp741
g34
S'http://peeron.com/tickers/xkcdb.xml'
p742
sg27
S'text/plain'
p743
sg37
g738
sg16
NstRp744
sg45
g735
sg87
(lp745
VThe latest XKCD quote database entries
p746
aV*
aVnew
p747
aS'read'
p748
asS'author_detail'
p749
g1
(g2
g3
(dp750
g51
V"kalivha, nazgjunk" <>
p751
sg52
Vrss@peeron.com
p752
stRp753
sg124
Vhttp://www.xkcdb.com/?8107
p754
stRp755
ag1
(g2
g3
(dp756
S'summary_detail'
p757
g1
(g2
g3
(dp758
g34
S'http://peeron.com/tickers/xkcdb.xml'
p759
sg27
S'text/html'
p760
sg37
V<span class="quote">&lt;Frowardd&gt; HERSEY<br /> &lt;Frowardd&gt; er<br /> &lt;Frowardd&gt; HERESY<br /> &lt;Bucket&gt; That's what He said!<br /> &lt;@relsqui&gt; HERSHEY<br /> &lt;sheepbat&gt; HERSHEY<br /> &lt;Ranzear&gt; HERSHEY!<br /> &lt;Bucket&gt; Hersheticum delicium, post om nom nom choclatam!<br /> &lt;Bucket&gt; Hersheticum delicium, post om nom nom choclatam!<br /> &lt;Bucket&gt; Hersheticum delicium, post om nom nom choclatam!</span>\u000a<br /><br /><a href="http://www.xkcdb.com/?&upvote=8106#8106">++</a> | <a href="http://www.xkcdb.com/?&downvote=8106#8106">--</a>
p761
sg16
NstRp762
sg13
g14
((I2011
I1
I25
I8
I1
I7
I1
I25
I0
t(dtRp763
sg22
(lp764
g1
(g2
g3
(dp765
g25
Vhttp://www.xkcdb.com/?8106
p766
sg27
g28
sg29
g30
stRp767
asg18
V"Bucket, Frowardd, Ranzear, relsqui, sheepbat" <rss@peeron.com>
p768
sg48
VQuote #8106
p769
sg9
VTue, 25 Jan 2011 03:01:07  -0500
p770
sg109
g761
sg110
I01
sS'title_detail'
p771
g1
(g2
g3
(dp772
g34
S'http://peeron.com/tickers/xkcdb.xml'
p773
sg27
S'text/plain'
p774
sg37
g769
sg16
NstRp775
sg45
g766
sg87
(lp776
g746
aV*
ag747
ag748
asS'author_detail'
p777
g1
(g2
g3
(dp778
g51
V"Bucket, Frowardd, Ranzear, relsqui, sheepbat" <>
p779
sg52
Vrss@peeron.com
p780
stRp781
sg124
Vhttp://www.xkcdb.com/?8106
p782
stRp783
ag1
(g2
g3
(dp784
S'summary_detail'
p785
g1
(g2
g3
(dp786
g34
S'http://peeron.com/tickers/xkcdb.xml'
p787
sg27
S'text/html'
p788
sg37
V<span class="quote">&lt;spooky&gt; does anyone know anything about setting up a home studio primarily for electronic music (a few synths, keyboards, etc?)<br /> &lt;Bucket&gt; No, but if you hum a few bars I can fake it</span>\u000a<br /><br /><a href="http://www.xkcdb.com/?&upvote=8105#8105">++</a> | <a href="http://www.xkcdb.com/?&downvote=8105#8105">--</a>
p789
sg16
NstRp790
sg13
g14
((I2011
I1
I24
I3
I1
I6
I0
I24
I0
t(dtRp791
sg22
(lp792
g1
(g2
g3
(dp793
g25
Vhttp://www.xkcdb.com/?8105
p794
sg27
g28
sg29
g30
stRp795
asg18
V"Bucket, spooky" <rss@peeron.com>
p796
sg48
VQuote #8105
p797
sg9
VSun, 23 Jan 2011 22:01:06  -0500
p798
sg109
g789
sg110
I01
sS'title_detail'
p799
g1
(g2
g3
(dp800
g34
S'http://peeron.com/tickers/xkcdb.xml'
p801
sg27
S'text/plain'
p802
sg37
g797
sg16
NstRp803
sg45
g794
sg87
(lp804
VThe latest XKCD quote database entries
p805
aV*
aVnew
p806
aS'read'
p807
asS'author_detail'
p808
g1
(g2
g3
(dp809
g51
V"Bucket, spooky" <>
p810
sg52
Vrss@peeron.com
p811
stRp812
sg124
Vhttp://www.xkcdb.com/?8105
p813
stRp814
ag1
(g2
g3
(dp815
S'summary_detail'
p816
g1
(g2
g3
(dp817
g34
S'http://peeron.com/tickers/xkcdb.xml'
p818
sg27
S'text/html'
p819
sg37
V<span class="quote">&lt; phthano&gt; kalivha: Eww. At the &quot;U&quot;, not the pedophilia.<br /> &lt; cuddlefish&gt; Bucket, phthano is cool with pedophilia<br /> &lt; Bucket&gt; cuddlefish: Your mom is cool with pedophilia!<br /> &lt; cuddlefish&gt; ...<br /> &lt; cuddlefish&gt; ...<br /> &lt; cuddlefish&gt; ...<br /> * Aberro high-fives Bucket<br /> * Bucket high-fives your mom</span>\u000a<br /><br /><a href="http://www.xkcdb.com/?&upvote=8104#8104">++</a> | <a href="http://www.xkcdb.com/?&downvote=8104#8104">--</a>
p820
sg16
NstRp821
sg13
g14
((I2011
I1
I24
I3
I1
I6
I0
I24
I0
t(dtRp822
sg22
(lp823
g1
(g2
g3
(dp824
g25
Vhttp://www.xkcdb.com/?8104
p825
sg27
g28
sg29
g30
stRp826
asg18
V"cuddlefish, Bucket, phthano" <rss@peeron.com>
p827
sg48
VQuote #8104
p828
sg9
VSun, 23 Jan 2011 22:01:06  -0500
p829
sg109
g820
sg110
I01
sS'title_detail'
p830
g1
(g2
g3
(dp831
g34
S'http://peeron.com/tickers/xkcdb.xml'
p832
sg27
S'text/plain'
p833
sg37
g828
sg16
NstRp834
sg45
g825
sg87
(lp835
g805
aV*
ag806
ag807
asS'author_detail'
p836
g1
(g2
g3
(dp837
g51
V"cuddlefish, Bucket, phthano" <>
p838
sg52
Vrss@peeron.com
p839
stRp840
sg124
Vhttp://www.xkcdb.com/?8104
p841
stRp842
ag1
(g2
g3
(dp843
S'summary_detail'
p844
g1
(g2
g3
(dp845
g34
S'http://peeron.com/tickers/xkcdb.xml'
p846
sg27
S'text/html'
p847
sg37
V<span class="quote">&lt; Frowardd&gt; oh, I know why i'm being dull and uncreative<br /> &lt; Frowardd&gt; my hair is boring!<br /> &lt; quickhand&gt; Frowardd: That's what I assumed.<br /> &lt; Frowardd&gt; BLOW DRYER<br /> &lt; Frowardd&gt; HAIR GEL<br /> &lt; Frowardd&gt; BRUSH<br /> &lt; Frowardd&gt; SERIOUS POMAAAAAAAADE<br /> &lt; Frowardd&gt; BY YOUR POWERS COMBINED I AM<br /> &lt; nazgjunk&gt; fucking hot!<br /> &lt; Frowardd&gt; Johnny Depp in that one movie where he plays opposite traci lords and it's ridiculous</span>\u000a<br /><br /><a href="http://www.xkcdb.com/?&upvote=8103#8103">++</a> | <a href="http://www.xkcdb.com/?&downvote=8103#8103">--</a>
p848
sg16
NstRp849
sg13
g14
((I2011
I1
I23
I20
I1
I10
I6
I23
I0
t(dtRp850
sg22
(lp851
g1
(g2
g3
(dp852
g25
Vhttp://www.xkcdb.com/?8103
p853
sg27
g28
sg29
g30
stRp854
asg18
V"Frowardd, nazgjunk, quickhand" <rss@peeron.com>
p855
sg48
VQuote #8103
p856
sg9
VSun, 23 Jan 2011 15:01:10  -0500
p857
sg109
g848
sg110
I01
sS'title_detail'
p858
g1
(g2
g3
(dp859
g34
S'http://peeron.com/tickers/xkcdb.xml'
p860
sg27
S'text/plain'
p861
sg37
g856
sg16
NstRp862
sg45
g853
sg87
(lp863
g805
aV*
ag806
ag807
asS'author_detail'
p864
g1
(g2
g3
(dp865
g51
V"Frowardd, nazgjunk, quickhand" <>
p866
sg52
Vrss@peeron.com
p867
stRp868
sg124
Vhttp://www.xkcdb.com/?8103
p869
stRp870
ag1
(g2
g3
(dp871
S'summary_detail'
p872
g1
(g2
g3
(dp873
g34
S'http://peeron.com/tickers/xkcdb.xml'
p874
sg27
S'text/html'
p875
sg37
V<span class="quote">* Ahrotahntee steals something from Bucket<br /> * Bucket wonders where Rena butter went.<br /> * Ahrotahntee drops it immediately<br /> * Ahrotahntee washes his hands<br /> &lt;fic_kitty&gt; O.o<br /> &lt;Ahrotahntee&gt; pickpocketing bucket is always a risk</span>\u000a<br /><br /><a href="http://www.xkcdb.com/?&upvote=8102#8102">++</a> | <a href="http://www.xkcdb.com/?&downvote=8102#8102">--</a>
p876
sg16
NstRp877
sg13
g14
((I2011
I1
I23
I20
I1
I10
I6
I23
I0
t(dtRp878
sg22
(lp879
g1
(g2
g3
(dp880
g25
Vhttp://www.xkcdb.com/?8102
p881
sg27
g28
sg29
g30
stRp882
asg18
V"Ahrotahntee, fic_kitty" <rss@peeron.com>
p883
sg48
VQuote #8102
p884
sg9
VSun, 23 Jan 2011 15:01:10  -0500
p885
sg109
g876
sg110
I01
sS'title_detail'
p886
g1
(g2
g3
(dp887
g34
S'http://peeron.com/tickers/xkcdb.xml'
p888
sg27
S'text/plain'
p889
sg37
g884
sg16
NstRp890
sg45
g881
sg87
(lp891
g805
aV*
ag806
ag807
asS'author_detail'
p892
g1
(g2
g3
(dp893
g51
V"Ahrotahntee, fic_kitty" <>
p894
sg52
Vrss@peeron.com
p895
stRp896
sg124
Vhttp://www.xkcdb.com/?8102
p897
stRp898
ag1
(g2
g3
(dp899
S'summary_detail'
p900
g1
(g2
g3
(dp901
g34
S'http://peeron.com/tickers/xkcdb.xml'
p902
sg27
S'text/html'
p903
sg37
V<span class="quote">&lt;Boyle&gt; Basically you start a motion to begin fucking, debate about it for a while, put it up to a vote, but you have to add in some incentives to get the other side to agree to the sex, define what sex is and how long it'll take, the oversight that will be involved and all that. This is parlimentary sex. Or marriage.</span>\u000a<br /><br /><a href="http://www.xkcdb.com/?&upvote=8101#8101">++</a> | <a href="http://www.xkcdb.com/?&downvote=8101#8101">--</a>
p904
sg16
NstRp905
sg13
g14
((I2011
I1
I22
I11
I1
I5
I5
I22
I0
t(dtRp906
sg22
(lp907
g1
(g2
g3
(dp908
g25
Vhttp://www.xkcdb.com/?8101
p909
sg27
g28
sg29
g30
stRp910
asg18
V"Boyle" <rss@peeron.com>
p911
sg48
VQuote #8101
p912
sg9
VSat, 22 Jan 2011 06:01:05  -0500
p913
sg109
g904
sg110
I01
sS'title_detail'
p914
g1
(g2
g3
(dp915
g34
S'http://peeron.com/tickers/xkcdb.xml'
p916
sg27
S'text/plain'
p917
sg37
g912
sg16
NstRp918
sg45
g909
sg87
(lp919
g805
aV*
ag806
ag807
asS'author_detail'
p920
g1
(g2
g3
(dp921
g51
V"Boyle" <>
p922
sg52
Vrss@peeron.com
p923
stRp924
sg124
Vhttp://www.xkcdb.com/?8101
p925
stRp926
ag1
(g2
g3
(dp927
S'summary_detail'
p928
g1
(g2
g3
(dp929
g34
S'http://peeron.com/tickers/xkcdb.xml'
p930
sg27
S'text/html'
p931
sg37
V<span class="quote">* Burstaholic gives bucket jarate<br /> * Bucket hands Burstaholic the magical lesbian babies of Milla Jovovich and Angelina Jolie in exchange for jarate<br /> &lt;Burstaholic&gt; damn<br /> &lt;Burstaholic&gt; good trade<br /> &lt;Bucket&gt; At least I still have jarate</span>\u000a<br /><br /><a href="http://www.xkcdb.com/?&upvote=8100#8100">++</a> | <a href="http://www.xkcdb.com/?&downvote=8100#8100">--</a>
p932
sg16
NstRp933
sg13
g14
((I2011
I1
I21
I20
I1
I4
I4
I21
I0
t(dtRp934
sg22
(lp935
g1
(g2
g3
(dp936
g25
Vhttp://www.xkcdb.com/?8100
p937
sg27
g28
sg29
g30
stRp938
asg18
V"Burstaholic, Bucket" <rss@peeron.com>
p939
sg48
VQuote #8100
p940
sg9
VFri, 21 Jan 2011 15:01:04  -0500
p941
sg109
g932
sg110
I01
sS'title_detail'
p942
g1
(g2
g3
(dp943
g34
S'http://peeron.com/tickers/xkcdb.xml'
p944
sg27
S'text/plain'
p945
sg37
g940
sg16
NstRp946
sg45
g937
sg87
(lp947
g805
aV*
ag806
ag807
asS'author_detail'
p948
g1
(g2
g3
(dp949
g51
V"Burstaholic, Bucket" <>
p950
sg52
Vrss@peeron.com
p951
stRp952
sg124
Vhttp://www.xkcdb.com/?8100
p953
stRp954
ag1
(g2
g3
(dp955
S'summary_detail'
p956
g1
(g2
g3
(dp957
g34
S'http://peeron.com/tickers/xkcdb.xml'
p958
sg27
S'text/html'
p959
sg37
V<span class="quote">&lt;Seth&gt; flyingferret, am I bad at not procrastinating?<br /> &lt;flyingferret&gt; Absolutely not.<br /> &lt;Seth&gt; wait...<br /> &lt;Seth&gt; too many negatives</span>\u000a<br /><br /><a href="http://www.xkcdb.com/?&upvote=8098#8098">++</a> | <a href="http://www.xkcdb.com/?&downvote=8098#8098">--</a>
p960
sg16
NstRp961
sg13
g14
((I2011
I1
I21
I20
I1
I4
I4
I21
I0
t(dtRp962
sg22
(lp963
g1
(g2
g3
(dp964
g25
Vhttp://www.xkcdb.com/?8098
p965
sg27
g28
sg29
g30
stRp966
asg18
V"Seth, flyingferret" <rss@peeron.com>
p967
sg48
VQuote #8098
p968
sg9
VFri, 21 Jan 2011 15:01:04  -0500
p969
sg109
g960
sg110
I01
sS'title_detail'
p970
g1
(g2
g3
(dp971
g34
S'http://peeron.com/tickers/xkcdb.xml'
p972
sg27
S'text/plain'
p973
sg37
g968
sg16
NstRp974
sg45
g965
sg87
(lp975
g805
aV*
ag806
ag807
asS'author_detail'
p976
g1
(g2
g3
(dp977
g51
V"Seth, flyingferret" <>
p978
sg52
Vrss@peeron.com
p979
stRp980
sg124
Vhttp://www.xkcdb.com/?8098
p981
stRp982
ag1
(g2
g3
(dp983
S'summary_detail'
p984
g1
(g2
g3
(dp985
g34
S'http://peeron.com/tickers/xkcdb.xml'
p986
sg27
S'text/html'
p987
sg37
V<span class="quote">-!- willzzz88 [~willzzz88@AEF96DB5.71431C55.CE5DCA8B.IP] has joined #xkcd<br /> &lt; willzzz88&gt; holy shit was salt a good movie<br /> &lt; sudonotplease&gt; No.</span>\u000a<br /><br /><a href="http://www.xkcdb.com/?&upvote=8097#8097">++</a> | <a href="http://www.xkcdb.com/?&downvote=8097#8097">--</a>
p988
sg16
NstRp989
sg13
g14
((I2011
I1
I21
I7
I1
I4
I4
I21
I0
t(dtRp990
sg22
(lp991
g1
(g2
g3
(dp992
g25
Vhttp://www.xkcdb.com/?8097
p993
sg27
g28
sg29
g30
stRp994
asg18
V"sudonotplease, willzzz88" <rss@peeron.com>
p995
sg48
VQuote #8097
p996
sg9
VFri, 21 Jan 2011 02:01:04  -0500
p997
sg109
g988
sg110
I01
sS'title_detail'
p998
g1
(g2
g3
(dp999
g34
S'http://peeron.com/tickers/xkcdb.xml'
p1000
sg27
S'text/plain'
p1001
sg37
g996
sg16
NstRp1002
sg45
g993
sg87
(lp1003
g805
aV*
ag806
ag807
asS'author_detail'
p1004
g1
(g2
g3
(dp1005
g51
V"sudonotplease, willzzz88" <>
p1006
sg52
Vrss@peeron.com
p1007
stRp1008
sg124
Vhttp://www.xkcdb.com/?8097
p1009
stRp1010
ag1
(g2
g3
(dp1011
S'summary_detail'
p1012
g1
(g2
g3
(dp1013
g34
S'http://peeron.com/tickers/xkcdb.xml'
p1014
sg27
S'text/html'
p1015
sg37
V<span class="quote">* axwithovum hugs NMcCoy<br /> * NMcCoy returns the hug.<br /> &lt;NMcCoy&gt; Reciprocates, that is; I'm not trying to get a refund for it or anything.</span>\u000a<br /><br /><a href="http://www.xkcdb.com/?&upvote=8095#8095">++</a> | <a href="http://www.xkcdb.com/?&downvote=8095#8095">--</a>
p1016
sg16
NstRp1017
sg13
g14
((I2011
I1
I20
I23
I1
I5
I3
I20
I0
t(dtRp1018
sg22
(lp1019
g1
(g2
g3
(dp1020
g25
Vhttp://www.xkcdb.com/?8095
p1021
sg27
g28
sg29
g30
stRp1022
asg18
V"NMcCoy" <rss@peeron.com>
p1023
sg48
VQuote #8095
p1024
sg9
VThu, 20 Jan 2011 18:01:05  -0500
p1025
sg109
g1016
sg110
I01
sS'title_detail'
p1026
g1
(g2
g3
(dp1027
g34
S'http://peeron.com/tickers/xkcdb.xml'
p1028
sg27
S'text/plain'
p1029
sg37
g1024
sg16
NstRp1030
sg45
g1021
sg87
(lp1031
g805
aV*
ag806
ag807
asS'author_detail'
p1032
g1
(g2
g3
(dp1033
g51
V"NMcCoy" <>
p1034
sg52
Vrss@peeron.com
p1035
stRp1036
sg124
Vhttp://www.xkcdb.com/?8095
p1037
stRp1038
ag1
(g2
g3
(dp1039
S'summary_detail'
p1040
g1
(g2
g3
(dp1041
g34
S'http://peeron.com/tickers/xkcdb.xml'
p1042
sg27
S'text/html'
p1043
sg37
V<span class="quote">&lt;Ian&gt; I introduced my mother to fellatio tonight<br /> &lt;Ian&gt; The term<br /> &lt;Ian&gt; not the<br /> &lt;Ian&gt; actual<br /> &lt;Ian&gt; fuck<br /> &lt;Ian&gt; ^ intended as a swear, but surprisingly relevant</span>\u000a<br /><br /><a href="http://www.xkcdb.com/?&upvote=8094#8094">++</a> | <a href="http://www.xkcdb.com/?&downvote=8094#8094">--</a>
p1044
sg16
NstRp1045
sg13
g14
((I2011
I1
I20
I4
I1
I3
I3
I20
I0
t(dtRp1046
sg22
(lp1047
g1
(g2
g3
(dp1048
g25
Vhttp://www.xkcdb.com/?8094
p1049
sg27
g28
sg29
g30
stRp1050
asg18
V"Ian" <rss@peeron.com>
p1051
sg48
VQuote #8094
p1052
sg9
VWed, 19 Jan 2011 23:01:03  -0500
p1053
sg109
g1044
sg110
I01
sS'title_detail'
p1054
g1
(g2
g3
(dp1055
g34
S'http://peeron.com/tickers/xkcdb.xml'
p1056
sg27
S'text/plain'
p1057
sg37
g1052
sg16
NstRp1058
sg45
g1049
sg87
(lp1059
g805
aV*
ag806
ag807
asS'author_detail'
p1060
g1
(g2
g3
(dp1061
g51
V"Ian" <>
p1062
sg52
Vrss@peeron.com
p1063
stRp1064
sg124
Vhttp://www.xkcdb.com/?8094
p1065
stRp1066
ag1
(g2
g3
(dp1067
S'summary_detail'
p1068
g1
(g2
g3
(dp1069
g34
S'http://peeron.com/tickers/xkcdb.xml'
p1070
sg27
S'text/html'
p1071
sg37
V<span class="quote">&lt; logic&gt; Ok, so I was at this party about a week ago, for my friend's birthday<br /> &lt; logic&gt; and there was this guy with a deck of cards who'd clearly just learned a magic trick and was doing it to EVERHYONE<br /> &lt; sudonotplease&gt; logic: A lot of stuff seems to have happened at this party.<br /> &lt; logic&gt; And it was pissing me off, so i asked for the deck and springed it a couple of times, fanned it and just fooled around with some false cuts<br /> &lt; logic&gt; sudonotplease: it was a good party<br /> &lt; logic&gt; And then i gave it back to him<br /> &lt; logic&gt; and this girl i had been talking to asked if i did tricks<br /> &lt; logic&gt; and figuring the best way to stop any crap magician from doing tricks is to do one better than he could do, I agreed to do just one trick<br /> &lt; sudonotplease&gt; logic: You magic?<br /> &lt; logic&gt; So I let her shuffle the deck, and when she gave it back to me, I just took a quick look at the top card <br /> &lt; Duo&gt; he illusions.<br /> &lt; logic&gt; Anyway, it happened to be the Queen of Diamonds<br /> &lt; logic&gt; anyone who knows anything about magic knows this is a really easy card to mental-force on girls<br /> &lt; logic&gt; So I just asked her what card she was thinking of<br /> &lt; logic&gt; And perfectly on cue, she says &quot;Queen of Diamonds&quot; - I turn the card around and amazement occurs<br /> &lt; logic&gt; unfortunately, instead of taking this as a trick, she takes it as proof of me being pyschic<br /> * sudonotplease knows nothing about magic, but now this!<br /> &lt; logic&gt; Anyway - so this girl starts asking me questions, to which I'm saying left right and centre &quot;no, not psychic&quot;<br /> &lt; logic&gt; And she just asks me to guess her star sign<br /> &lt; logic&gt; I pull Taurus out of the air, which she proclaims to everyone is right<br /> &lt; Seth&gt; logic: O.o<br /> &lt; logic&gt; Anyway, after asking me more questions she becomes UTTERLY CONVINCED that I am psychic<br /> &lt; Seth&gt; logic: woah<br /> &lt; logic&gt; She asks me if I have any advice for her<br /> &lt; logic&gt; And I tell her that she should go get tested<br /> &lt; logic&gt; I really didn't think that through, but I meant it as a flippant comment<br /> &lt; Seth&gt; logic: turns out, she has HIV?<br /> &lt; logic&gt; Seth: Pregnant.<br /> &lt; sudonotplease&gt; OH SHIIIIIT<br /> &lt; Seth&gt; logic: damn<br /> &lt; Duo&gt; hahaha<br /> &lt; Freudian&gt; Ahahaha</span>\u000a<br /><br /><a href="http://www.xkcdb.com/?&upvote=8092#8092">++</a> | <a href="http://www.xkcdb.com/?&downvote=8092#8092">--</a>
p1072
sg16
NstRp1073
sg13
g14
((I2011
I1
I20
I4
I1
I3
I3
I20
I0
t(dtRp1074
sg22
(lp1075
g1
(g2
g3
(dp1076
g25
Vhttp://www.xkcdb.com/?8092
p1077
sg27
g28
sg29
g30
stRp1078
asg18
V"logic, Seth, sudonotplease, Duo, Freudian" <rss@peeron.com>
p1079
sg48
VQuote #8092
p1080
sg9
VWed, 19 Jan 2011 23:01:03  -0500
p1081
sg109
g1072
sg110
I01
sS'title_detail'
p1082
g1
(g2
g3
(dp1083
g34
S'http://peeron.com/tickers/xkcdb.xml'
p1084
sg27
S'text/plain'
p1085
sg37
g1080
sg16
NstRp1086
sg45
g1077
sg87
(lp1087
g805
aV*
ag806
ag807
asS'author_detail'
p1088
g1
(g2
g3
(dp1089
g51
V"logic, Seth, sudonotplease, Duo, Freudian" <>
p1090
sg52
Vrss@peeron.com
p1091
stRp1092
sg124
Vhttp://www.xkcdb.com/?8092
p1093
stRp1094
ag1
(g2
g3
(dp1095
S'summary_detail'
p1096
g1
(g2
g3
(dp1097
g34
S'http://peeron.com/tickers/xkcdb.xml'
p1098
sg27
S'text/html'
p1099
sg37
V<span class="quote">&lt; logic&gt; You know, I think this story would have been more culturally relevant if it'd happened a couple of years ago<br /> &lt; logic&gt; But I saw a couple of models having a catfight at an after-party for a fashion show<br /> &lt; logic&gt; And one of them said<br /> &lt; logic&gt; &quot;What is that you're meant to be wearing? That's not fashion!&quot;<br /> &lt; logic&gt; And the other shouted<br /> &lt; logic&gt; &quot;Fashion? THIS IS PRADA!&quot; and slapped her in the face.</span>\u000a<br /><br /><a href="http://www.xkcdb.com/?&upvote=8091#8091">++</a> | <a href="http://www.xkcdb.com/?&downvote=8091#8091">--</a>
p1100
sg16
NstRp1101
sg13
g14
((I2011
I1
I19
I3
I1
I6
I2
I19
I0
t(dtRp1102
sg22
(lp1103
g1
(g2
g3
(dp1104
g25
Vhttp://www.xkcdb.com/?8091
p1105
sg27
g28
sg29
g30
stRp1106
asg18
V"logic" <rss@peeron.com>
p1107
sg48
VQuote #8091
p1108
sg9
VTue, 18 Jan 2011 22:01:06  -0500
p1109
sg109
g1100
sg110
I01
sS'title_detail'
p1110
g1
(g2
g3
(dp1111
g34
S'http://peeron.com/tickers/xkcdb.xml'
p1112
sg27
S'text/plain'
p1113
sg37
g1108
sg16
NstRp1114
sg45
g1105
sg87
(lp1115
g805
aV*
ag806
ag807
asS'author_detail'
p1116
g1
(g2
g3
(dp1117
g51
V"logic" <>
p1118
sg52
Vrss@peeron.com
p1119
stRp1120
sg124
Vhttp://www.xkcdb.com/?8091
p1121
stRp1122
ag1
(g2
g3
(dp1123
S'summary_detail'
p1124
g1
(g2
g3
(dp1125
g34
S'http://peeron.com/tickers/xkcdb.xml'
p1126
sg27
S'text/html'
p1127
sg37
V<span class="quote">&lt;NoobSauce&gt; ferret: graham<br /> &lt;flyingferret&gt; What xkcd Means: <a href="http://xkcd.com/207">http://xkcd.com/207</a> (&quot;... function with Graham's number as the ...&quot;)<br /> &lt;@snark&gt; graham: ferret<br /> &lt;@snark&gt; WHY IS GRAHAM NOT ALLOWED TO RESPOND<br /> &lt;paratus&gt; snark: he's dead<br /> &lt;Bucket&gt; \u005co/<br /> &lt;@snark&gt; I QUESTION THE AUTHORITY OF THIS CHANNEL<br /> &lt;paratus&gt; i question your authority<br /> &lt;@snark&gt; me too<br /> &lt;Bucket&gt; Me three!<br /> &lt;@snark&gt; motion passed<br /> * ChanServ sets mode: -o snark</span>\u000a<br /><br /><a href="http://www.xkcdb.com/?&upvote=8090#8090">++</a> | <a href="http://www.xkcdb.com/?&downvote=8090#8090">--</a>
p1128
sg16
NstRp1129
sg13
g14
((I2011
I1
I18
I20
I1
I8
I1
I18
I0
t(dtRp1130
sg22
(lp1131
g1
(g2
g3
(dp1132
g25
Vhttp://www.xkcdb.com/?8090
p1133
sg27
g28
sg29
g30
stRp1134
asg18
V"snark, Bucket, paratus, NoobSauce, flyingferret" <rss@peeron.com>
p1135
sg48
VQuote #8090
p1136
sg9
VTue, 18 Jan 2011 15:01:08  -0500
p1137
sg109
V<span class="quote">&lt;NoobSauce&gt; ferret: graham<br /> &lt;flyingferret&gt; What xkcd Means: <a href="http://xkcd.com/207">http://xkcd.com/207</a> (&quot;... function with Graham's number as the ...&quot;)<br /> &lt;@snark&gt; graham: ferret<br /> &lt;@snark&gt; WHY IS GRAHAM NOT ALLOWED TO RESPOND<br /> &lt;paratus&gt; snark: he's dead<br /> &lt;Bucket&gt; \u005c\u005co/<br /> &lt;@snark&gt; I QUESTION THE AUTHORITY OF THIS CHANNEL<br /> &lt;paratus&gt; i question your authority<br /> &lt;@snark&gt; me too<br /> &lt;Bucket&gt; Me three!<br /> &lt;@snark&gt; motion passed<br /> * ChanServ sets mode: -o snark</span>\u000a<br /><br /><a href="http://www.xkcdb.com/?&upvote=8090#8090">++</a> | <a href="http://www.xkcdb.com/?&downvote=8090#8090">--</a>
p1138
sg110
I01
sS'title_detail'
p1139
g1
(g2
g3
(dp1140
g34
S'http://peeron.com/tickers/xkcdb.xml'
p1141
sg27
S'text/plain'
p1142
sg37
g1136
sg16
NstRp1143
sg45
g1133
sg87
(lp1144
g805
aV*
ag806
ag807
asS'author_detail'
p1145
g1
(g2
g3
(dp1146
g51
V"snark, Bucket, paratus, NoobSauce, flyingferret" <>
p1147
sg52
Vrss@peeron.com
p1148
stRp1149
sg124
Vhttp://www.xkcdb.com/?8090
p1150
stRp1151
ag1
(g2
g3
(dp1152
S'summary_detail'
p1153
g1
(g2
g3
(dp1154
g34
S'http://peeron.com/tickers/xkcdb.xml'
p1155
sg27
S'text/html'
p1156
sg37
V<span class="quote">&lt;PHDS&gt; I can do this all night<br /> &lt;Corynne&gt; that's what he said.<br /> &lt;Corynne&gt; But he was wrong.<br /> &lt;Corynne&gt; Because he was a premature ejaculator.<br /> &lt;Duo&gt; Corynne, I'm sorry you had to experience a premature ejaculator. <br /> &lt;Corynne&gt; Duo, I'm sorry I slept with you too..</span>\u000a<br /><br /><a href="http://www.xkcdb.com/?&upvote=8089#8089">++</a> | <a href="http://www.xkcdb.com/?&downvote=8089#8089">--</a>
p1157
sg16
NstRp1158
sg13
g14
((I2011
I1
I18
I20
I1
I8
I1
I18
I0
t(dtRp1159
sg22
(lp1160
g1
(g2
g3
(dp1161
g25
Vhttp://www.xkcdb.com/?8089
p1162
sg27
g28
sg29
g30
stRp1163
asg18
V"Corynne, Duo, PHDS" <rss@peeron.com>
p1164
sg48
VQuote #8089
p1165
sg9
VTue, 18 Jan 2011 15:01:08  -0500
p1166
sg109
g1157
sg110
I01
sS'title_detail'
p1167
g1
(g2
g3
(dp1168
g34
S'http://peeron.com/tickers/xkcdb.xml'
p1169
sg27
S'text/plain'
p1170
sg37
g1165
sg16
NstRp1171
sg45
g1162
sg87
(lp1172
g805
aV*
ag806
ag807
asS'author_detail'
p1173
g1
(g2
g3
(dp1174
g51
V"Corynne, Duo, PHDS" <>
p1175
sg52
Vrss@peeron.com
p1176
stRp1177
sg124
Vhttp://www.xkcdb.com/?8089
p1178
stRp1179
ag1
(g2
g3
(dp1180
S'summary_detail'
p1181
g1
(g2
g3
(dp1182
g34
S'http://peeron.com/tickers/xkcdb.xml'
p1183
sg27
S'text/html'
p1184
sg37
V<span class="quote">&lt;Knife&gt; Tron, have you ever been kicked out of a seminar about drugs?<br /> &lt;Tron&gt; I fight for the users</span>\u000a<br /><br /><a href="http://www.xkcdb.com/?&upvote=8088#8088">++</a> | <a href="http://www.xkcdb.com/?&downvote=8088#8088">--</a>
p1185
sg16
NstRp1186
sg13
g14
((I2011
I1
I18
I20
I1
I8
I1
I18
I0
t(dtRp1187
sg22
(lp1188
g1
(g2
g3
(dp1189
g25
Vhttp://www.xkcdb.com/?8088
p1190
sg27
g28
sg29
g30
stRp1191
asg18
V"Knife, Tron" <rss@peeron.com>
p1192
sg48
VQuote #8088
p1193
sg9
VTue, 18 Jan 2011 15:01:08  -0500
p1194
sg109
g1185
sg110
I01
sS'title_detail'
p1195
g1
(g2
g3
(dp1196
g34
S'http://peeron.com/tickers/xkcdb.xml'
p1197
sg27
S'text/plain'
p1198
sg37
g1193
sg16
NstRp1199
sg45
g1190
sg87
(lp1200
g805
aV*
ag806
ag807
asS'author_detail'
p1201
g1
(g2
g3
(dp1202
g51
V"Knife, Tron" <>
p1203
sg52
Vrss@peeron.com
p1204
stRp1205
sg124
Vhttp://www.xkcdb.com/?8088
p1206
stRp1207
ag1
(g2
g3
(dp1208
S'summary_detail'
p1209
g1
(g2
g3
(dp1210
g34
S'http://peeron.com/tickers/xkcdb.xml'
p1211
sg27
S'text/html'
p1212
sg37
V<span class="quote">&lt;&amp;snark&gt; so there was a post on reddit where someone was answering a question about &quot;why do I never get any upvotes&quot; with a long, well thought out paragraph basically to the effect of &quot;The way to get upvotes is to simply contribute thoughtfully when you have something to contribute, and stay away from karma-seeking one-liners.&quot;<br /> &lt;&amp;snark&gt; I replied to that post with &quot;AND MY AXE!&quot;<br /> &lt;&amp;snark&gt; my post has twice as many upvotes as the thoughtful post</span>\u000a<br /><br /><a href="http://www.xkcdb.com/?&upvote=8087#8087">++</a> | <a href="http://www.xkcdb.com/?&downvote=8087#8087">--</a>
p1213
sg16
NstRp1214
sg13
g14
((I2011
I1
I16
I10
I1
I12
I6
I16
I0
t(dtRp1215
sg22
(lp1216
g1
(g2
g3
(dp1217
g25
Vhttp://www.xkcdb.com/?8087
p1218
sg27
g28
sg29
g30
stRp1219
asg18
V"snark" <rss@peeron.com>
p1220
sg48
VQuote #8087
p1221
sg9
VSun, 16 Jan 2011 05:01:12  -0500
p1222
sg109
g1213
sg110
I01
sS'title_detail'
p1223
g1
(g2
g3
(dp1224
g34
S'http://peeron.com/tickers/xkcdb.xml'
p1225
sg27
S'text/plain'
p1226
sg37
g1221
sg16
NstRp1227
sg45
g1218
sg87
(lp1228
g805
aV*
ag806
ag807
asS'author_detail'
p1229
g1
(g2
g3
(dp1230
g51
V"snark" <>
p1231
sg52
Vrss@peeron.com
p1232
stRp1233
sg124
Vhttp://www.xkcdb.com/?8087
p1234
stRp1235
ag1
(g2
g3
(dp1236
S'summary_detail'
p1237
g1
(g2
g3
(dp1238
g34
S'http://peeron.com/tickers/xkcdb.xml'
p1239
sg27
S'text/html'
p1240
sg37
V<span class="quote">* Scouto2 gives bucket bucket<br /> &lt;Bucket&gt; RECURSION ERROR. CANNOT COMPUTE<br /> &lt;Scouto2&gt; ...<br /> * Scouto2 gives bucket bucke&Acirc;&shy;t<br /> * Bucket hands Scouto2 a good smack in exchange for bucke&Acirc;&shy;t</span>\u000a<br /><br /><a href="http://www.xkcdb.com/?&upvote=8086#8086">++</a> | <a href="http://www.xkcdb.com/?&downvote=8086#8086">--</a>
p1241
sg16
NstRp1242
sg13
g14
((I2011
I1
I16
I10
I1
I12
I6
I16
I0
t(dtRp1243
sg22
(lp1244
g1
(g2
g3
(dp1245
g25
Vhttp://www.xkcdb.com/?8086
p1246
sg27
g28
sg29
g30
stRp1247
asg18
V"Bucket, Scouto2" <rss@peeron.com>
p1248
sg48
VQuote #8086
p1249
sg9
VSun, 16 Jan 2011 05:01:12  -0500
p1250
sg109
g1241
sg110
I01
sS'title_detail'
p1251
g1
(g2
g3
(dp1252
g34
S'http://peeron.com/tickers/xkcdb.xml'
p1253
sg27
S'text/plain'
p1254
sg37
g1249
sg16
NstRp1255
sg45
g1246
sg87
(lp1256
g805
aV*
ag806
ag807
asS'author_detail'
p1257
g1
(g2
g3
(dp1258
g51
V"Bucket, Scouto2" <>
p1259
sg52
Vrss@peeron.com
p1260
stRp1261
sg124
Vhttp://www.xkcdb.com/?8086
p1262
stRp1263
ag1
(g2
g3
(dp1264
S'summary_detail'
p1265
g1
(g2
g3
(dp1266
g34
S'http://peeron.com/tickers/xkcdb.xml'
p1267
sg27
S'text/html'
p1268
sg37
V<span class="quote">&lt;Spork&gt; According to Wolfram|Alpha, my BAC is .25! :D</span>\u000a<br /><br /><a href="http://www.xkcdb.com/?&upvote=8085#8085">++</a> | <a href="http://www.xkcdb.com/?&downvote=8085#8085">--</a>
p1269
sg16
NstRp1270
sg13
g14
((I2011
I1
I15
I17
I1
I4
I5
I15
I0
t(dtRp1271
sg22
(lp1272
g1
(g2
g3
(dp1273
g25
Vhttp://www.xkcdb.com/?8085
p1274
sg27
g28
sg29
g30
stRp1275
asg18
V"Spork" <rss@peeron.com>
p1276
sg48
VQuote #8085
p1277
sg9
VSat, 15 Jan 2011 12:01:04  -0500
p1278
sg109
g1269
sg110
I01
sS'title_detail'
p1279
g1
(g2
g3
(dp1280
g34
S'http://peeron.com/tickers/xkcdb.xml'
p1281
sg27
S'text/plain'
p1282
sg37
g1277
sg16
NstRp1283
sg45
g1274
sg87
(lp1284
g805
aV*
ag806
ag807
asS'author_detail'
p1285
g1
(g2
g3
(dp1286
g51
V"Spork" <>
p1287
sg52
Vrss@peeron.com
p1288
stRp1289
sg124
Vhttp://www.xkcdb.com/?8085
p1290
stRp1291
ag1
(g2
g3
(dp1292
S'summary_detail'
p1293
g1
(g2
g3
(dp1294
g34
S'http://peeron.com/tickers/xkcdb.xml'
p1295
sg27
S'text/html'
p1296
sg37
V<span class="quote">&lt;maxh&gt; How about everyone just take some drugs so we stop arguing?<br /> * Seth gives Bucket some drugs<br /> * Bucket drops one dollar and thirty-one cents and takes some drugs.<br /> &lt;sudonotplease&gt; Seth: You gotta sell for more.</span>\u000a<br /><br /><a href="http://www.xkcdb.com/?&upvote=8084#8084">++</a> | <a href="http://www.xkcdb.com/?&downvote=8084#8084">--</a>
p1297
sg16
NstRp1298
sg13
g14
((I2011
I1
I15
I17
I1
I4
I5
I15
I0
t(dtRp1299
sg22
(lp1300
g1
(g2
g3
(dp1301
g25
Vhttp://www.xkcdb.com/?8084
p1302
sg27
g28
sg29
g30
stRp1303
asg18
V"maxh, sudonotplease" <rss@peeron.com>
p1304
sg48
VQuote #8084
p1305
sg9
VSat, 15 Jan 2011 12:01:04  -0500
p1306
sg109
g1297
sg110
I01
sS'title_detail'
p1307
g1
(g2
g3
(dp1308
g34
S'http://peeron.com/tickers/xkcdb.xml'
p1309
sg27
S'text/plain'
p1310
sg37
g1305
sg16
NstRp1311
sg45
g1302
sg87
(lp1312
g805
aV*
ag806
ag807
asS'author_detail'
p1313
g1
(g2
g3
(dp1314
g51
V"maxh, sudonotplease" <>
p1315
sg52
Vrss@peeron.com
p1316
stRp1317
sg124
Vhttp://www.xkcdb.com/?8084
p1318
stRp1319
ag1
(g2
g3
(dp1320
S'summary_detail'
p1321
g1
(g2
g3
(dp1322
g34
S'http://peeron.com/tickers/xkcdb.xml'
p1323
sg27
S'text/html'
p1324
sg37
V<span class="quote">&lt;roverbat&gt; I live near an old nuclear reactor<br /> &lt;roverbat&gt; there's nothing wrong with me<br /> &lt;roverbat&gt; &lt;moos&gt;<br /> &lt;iva|phone&gt; roverbat, how do you explain your wings then?<br /> &lt;roverbat&gt; they go up and down, iva|phone</span>\u000a<br /><br /><a href="http://www.xkcdb.com/?&upvote=8083#8083">++</a> | <a href="http://www.xkcdb.com/?&downvote=8083#8083">--</a>
p1325
sg16
NstRp1326
sg13
g14
((I2011
I1
I14
I20
I1
I8
I4
I14
I0
t(dtRp1327
sg22
(lp1328
g1
(g2
g3
(dp1329
g25
Vhttp://www.xkcdb.com/?8083
p1330
sg27
g28
sg29
g30
stRp1331
asg18
V"roverbat" <rss@peeron.com>
p1332
sg48
VQuote #8083
p1333
sg9
VFri, 14 Jan 2011 15:01:08  -0500
p1334
sg109
g1325
sg110
I01
sS'title_detail'
p1335
g1
(g2
g3
(dp1336
g34
S'http://peeron.com/tickers/xkcdb.xml'
p1337
sg27
S'text/plain'
p1338
sg37
g1333
sg16
NstRp1339
sg45
g1330
sg87
(lp1340
g805
aV*
ag806
ag807
asS'author_detail'
p1341
g1
(g2
g3
(dp1342
g51
V"roverbat" <>
p1343
sg52
Vrss@peeron.com
p1344
stRp1345
sg124
Vhttp://www.xkcdb.com/?8083
p1346
stRp1347
ag1
(g2
g3
(dp1348
S'summary_detail'
p1349
g1
(g2
g3
(dp1350
g34
S'http://peeron.com/tickers/xkcdb.xml'
p1351
sg27
S'text/html'
p1352
sg37
V<span class="quote">&lt;Frowardd&gt; i know khmer, it sucks. i'm a taurus now<br /> &lt;Frowardd&gt; i've always hated taurus, on principle, and now i am one<br /> &lt;Frowardd&gt; i have become that which i hate<br /> &lt;Frowardd&gt; on the plus side this explains why as of the new year, i'm suddenly more outgoing and less internally focused</span>\u000a<br /><br /><a href="http://www.xkcdb.com/?&upvote=8082#8082">++</a> | <a href="http://www.xkcdb.com/?&downvote=8082#8082">--</a>
p1353
sg16
NstRp1354
sg13
g14
((I2011
I1
I14
I20
I1
I8
I4
I14
I0
t(dtRp1355
sg22
(lp1356
g1
(g2
g3
(dp1357
g25
Vhttp://www.xkcdb.com/?8082
p1358
sg27
g28
sg29
g30
stRp1359
asg18
V"Frowardd" <rss@peeron.com>
p1360
sg48
VQuote #8082
p1361
sg9
VFri, 14 Jan 2011 15:01:08  -0500
p1362
sg109
g1353
sg110
I01
sS'title_detail'
p1363
g1
(g2
g3
(dp1364
g34
S'http://peeron.com/tickers/xkcdb.xml'
p1365
sg27
S'text/plain'
p1366
sg37
g1361
sg16
NstRp1367
sg45
g1358
sg87
(lp1368
g805
aV*
ag806
ag807
asS'author_detail'
p1369
g1
(g2
g3
(dp1370
g51
V"Frowardd" <>
p1371
sg52
Vrss@peeron.com
p1372
stRp1373
sg124
Vhttp://www.xkcdb.com/?8082
p1374
stRp1375
ag1
(g2
g3
(dp1376
S'summary_detail'
p1377
g1
(g2
g3
(dp1378
g34
S'http://peeron.com/tickers/xkcdb.xml'
p1379
sg27
S'text/html'
p1380
sg37
V<span class="quote">&lt;Rena&gt; oh god<br /> &lt;Rena&gt; I was just drawing one of those trollface comics<br /> &lt;Autoharpy&gt; Heh<br /> &lt;Rena&gt; so I had a big Gimp window open where I'm drawing it<br /> &lt;Rena&gt; and then I open trollface.jpg...<br /> &lt;matlock&gt; and it's huuuge?<br /> &lt;Rena&gt; it pops up exactly like this: <a href="http://imgh.us/gimptroll.jpg">http://imgh.us/gimptroll.jpg</a> (NSFW)</span>\u000a<br /><br /><a href="http://www.xkcdb.com/?&upvote=8081#8081">++</a> | <a href="http://www.xkcdb.com/?&downvote=8081#8081">--</a>
p1381
sg16
NstRp1382
sg13
g14
((I2011
I1
I14
I10
I1
I11
I4
I14
I0
t(dtRp1383
sg22
(lp1384
g1
(g2
g3
(dp1385
g25
Vhttp://www.xkcdb.com/?8081
p1386
sg27
g28
sg29
g30
stRp1387
asg18
V"Rena, Autoharpy, matlock" <rss@peeron.com>
p1388
sg48
VQuote #8081
p1389
sg9
VFri, 14 Jan 2011 05:01:11  -0500
p1390
sg109
g1381
sg110
I01
sS'title_detail'
p1391
g1
(g2
g3
(dp1392
g34
S'http://peeron.com/tickers/xkcdb.xml'
p1393
sg27
S'text/plain'
p1394
sg37
g1389
sg16
NstRp1395
sg45
g1386
sg87
(lp1396
g805
aV*
ag806
ag807
asS'author_detail'
p1397
g1
(g2
g3
(dp1398
g51
V"Rena, Autoharpy, matlock" <>
p1399
sg52
Vrss@peeron.com
p1400
stRp1401
sg124
Vhttp://www.xkcdb.com/?8081
p1402
stRp1403
ag1
(g2
g3
(dp1404
S'summary_detail'
p1405
g1
(g2
g3
(dp1406
g34
S'http://peeron.com/tickers/xkcdb.xml'
p1407
sg27
S'text/html'
p1408
sg37
V<span class="quote">&lt;paul|agosti&gt;Poe: no wait, definitely actually attracted to bots<br /> &lt;Poe&gt; ...<br /> &lt;Bucket&gt; [khmer silently removes his pants.]<br /> &lt;paul|agosti&gt; see<br /> &lt;paul|agosti&gt; sexy</span>\u000a<br /><br /><a href="http://www.xkcdb.com/?&upvote=8080#8080">++</a> | <a href="http://www.xkcdb.com/?&downvote=8080#8080">--</a>
p1409
sg16
NstRp1410
sg13
g14
((I2011
I1
I13
I11
I1
I5
I3
I13
I0
t(dtRp1411
sg22
(lp1412
g1
(g2
g3
(dp1413
g25
Vhttp://www.xkcdb.com/?8080
p1414
sg27
g28
sg29
g30
stRp1415
asg18
V"Bucket, Poe" <rss@peeron.com>
p1416
sg48
VQuote #8080
p1417
sg9
VThu, 13 Jan 2011 06:01:05  -0500
p1418
sg109
g1409
sg110
I01
sS'title_detail'
p1419
g1
(g2
g3
(dp1420
g34
S'http://peeron.com/tickers/xkcdb.xml'
p1421
sg27
S'text/plain'
p1422
sg37
g1417
sg16
NstRp1423
sg45
g1414
sg87
(lp1424
g805
aV*
ag806
ag807
asS'author_detail'
p1425
g1
(g2
g3
(dp1426
g51
V"Bucket, Poe" <>
p1427
sg52
Vrss@peeron.com
p1428
stRp1429
sg124
Vhttp://www.xkcdb.com/?8080
p1430
stRp1431
ag1
(g2
g3
(dp1432
S'summary_detail'
p1433
g1
(g2
g3
(dp1434
g34
S'http://peeron.com/tickers/xkcdb.xml'
p1435
sg27
S'text/html'
p1436
sg37
V<span class="quote">*** Bucket quit (Ping timeout) bucket@irc.peeron.com <br /> &lt;tankgunk&gt;: Dammit, bucket, you have to give two weeks notice before you quit.</span>\u000a<br /><br /><a href="http://www.xkcdb.com/?&upvote=8079#8079">++</a> | <a href="http://www.xkcdb.com/?&downvote=8079#8079">--</a>
p1437
sg16
NstRp1438
sg13
g14
((I2011
I1
I13
I11
I1
I5
I3
I13
I0
t(dtRp1439
sg22
(lp1440
g1
(g2
g3
(dp1441
g25
Vhttp://www.xkcdb.com/?8079
p1442
sg27
g28
sg29
g30
stRp1443
asg18
V"tankgunk" <rss@peeron.com>
p1444
sg48
VQuote #8079
p1445
sg9
VThu, 13 Jan 2011 06:01:05  -0500
p1446
sg109
g1437
sg110
I01
sS'title_detail'
p1447
g1
(g2
g3
(dp1448
g34
S'http://peeron.com/tickers/xkcdb.xml'
p1449
sg27
S'text/plain'
p1450
sg37
g1445
sg16
NstRp1451
sg45
g1442
sg87
(lp1452
g805
aV*
ag806
ag807
asS'author_detail'
p1453
g1
(g2
g3
(dp1454
g51
V"tankgunk" <>
p1455
sg52
Vrss@peeron.com
p1456
stRp1457
sg124
Vhttp://www.xkcdb.com/?8079
p1458
stRp1459
ag1
(g2
g3
(dp1460
S'summary_detail'
p1461
g1
(g2
g3
(dp1462
g34
S'http://peeron.com/tickers/xkcdb.xml'
p1463
sg27
S'text/html'
p1464
sg37
V<span class="quote">&lt;polemon&gt; my foot hurts<br /> &lt;polemon&gt; i probably twisted it while puking or something<br /> &lt;heero&gt; good thing you didn't have diarrhoea, you could've broken your neck</span>\u000a<br /><br /><a href="http://www.xkcdb.com/?&upvote=8077#8077">++</a> | <a href="http://www.xkcdb.com/?&downvote=8077#8077">--</a>
p1465
sg16
NstRp1466
sg13
g14
((I2011
I1
I12
I21
I1
I9
I2
I12
I0
t(dtRp1467
sg22
(lp1468
g1
(g2
g3
(dp1469
g25
Vhttp://www.xkcdb.com/?8077
p1470
sg27
g28
sg29
g30
stRp1471
asg18
V"polemon, heero" <rss@peeron.com>
p1472
sg48
VQuote #8077
p1473
sg9
VWed, 12 Jan 2011 16:01:09  -0500
p1474
sg109
g1465
sg110
I01
sS'title_detail'
p1475
g1
(g2
g3
(dp1476
g34
S'http://peeron.com/tickers/xkcdb.xml'
p1477
sg27
S'text/plain'
p1478
sg37
g1473
sg16
NstRp1479
sg45
g1470
sg87
(lp1480
g805
aV*
ag806
ag807
asS'author_detail'
p1481
g1
(g2
g3
(dp1482
g51
V"polemon, heero" <>
p1483
sg52
Vrss@peeron.com
p1484
stRp1485
sg124
Vhttp://www.xkcdb.com/?8077
p1486
stRp1487
ag1
(g2
g3
(dp1488
S'summary_detail'
p1489
g1
(g2
g3
(dp1490
g34
S'http://peeron.com/tickers/xkcdb.xml'
p1491
sg27
S'text/html'
p1492
sg37
V<span class="quote">&lt;@Lhyzz&gt; Glench: but. but. but. I AM TOO DISTRACTED <br /> &lt;@Glench&gt; Lhyzz: that's ok, I wrote this fantastic new dark room app that takes away your main source of distraction...I call it<br /> ! Lhyzz was kicked from #xkcd by Glench [/kick!]<br /><br /> ...<br /><br /> &lt;@Lhyzz&gt; Now I am mad that I didn't notice I was kicked for four whole minutes because I was reading your ridiculous comics &gt;:(<br /> &lt;@Lhyzz&gt; Oh, and<br /> ! Glench was kicked from #xkcd by Lhyzz [Lhyzz]<br /> &lt;ellipsis&gt; op wars, the sequel<br /> &lt;Boyle&gt; I support the ops in this op war<br /> * tankgunk makes popcorn.<br /> ! tankgunk was kicked from #xkcd by Shrdlu [oh no, collateral damage!]<br /> ! Boyle was kicked from #xkcd by zigdon [you picked the wrong side.]</span>\u000a<br /><br /><a href="http://www.xkcdb.com/?&upvote=8076#8076">++</a> | <a href="http://www.xkcdb.com/?&downvote=8076#8076">--</a>
p1493
sg16
NstRp1494
sg13
g14
((I2011
I1
I12
I21
I1
I9
I2
I12
I0
t(dtRp1495
sg22
(lp1496
g1
(g2
g3
(dp1497
g25
Vhttp://www.xkcdb.com/?8076
p1498
sg27
g28
sg29
g30
stRp1499
asg18
V"Lhyzz, Boyle, Glench, ellipsis" <rss@peeron.com>
p1500
sg48
VQuote #8076
p1501
sg9
VWed, 12 Jan 2011 16:01:09  -0500
p1502
sg109
g1493
sg110
I01
sS'title_detail'
p1503
g1
(g2
g3
(dp1504
g34
S'http://peeron.com/tickers/xkcdb.xml'
p1505
sg27
S'text/plain'
p1506
sg37
g1501
sg16
NstRp1507
sg45
g1498
sg87
(lp1508
g805
aV*
ag806
ag807
asS'author_detail'
p1509
g1
(g2
g3
(dp1510
g51
V"Lhyzz, Boyle, Glench, ellipsis" <>
p1511
sg52
Vrss@peeron.com
p1512
stRp1513
sg124
Vhttp://www.xkcdb.com/?8076
p1514
stRp1515
ag1
(g2
g3
(dp1516
S'summary_detail'
p1517
g1
(g2
g3
(dp1518
g34
S'http://peeron.com/tickers/xkcdb.xml'
p1519
sg27
S'text/html'
p1520
sg37
V<span class="quote">Caffeine&gt; Bucket: tinychat<br /> &lt;Bucket&gt; tinychat sucks<br /> &lt;Caffeine&gt; ^ me<br /> &lt;Caffeine&gt; FUCK</span>\u000a<br /><br /><a href="http://www.xkcdb.com/?&upvote=8072#8072">++</a> | <a href="http://www.xkcdb.com/?&downvote=8072#8072">--</a>
p1521
sg16
NstRp1522
sg13
g14
((I2011
I1
I11
I0
I1
I4
I1
I11
I0
t(dtRp1523
sg22
(lp1524
g1
(g2
g3
(dp1525
g25
Vhttp://www.xkcdb.com/?8072
p1526
sg27
g28
sg29
g30
stRp1527
asg18
V"Caffeine, Bucket" <rss@peeron.com>
p1528
sg48
VQuote #8072
p1529
sg9
VMon, 10 Jan 2011 19:01:04  -0500
p1530
sg109
g1521
sg110
I01
sS'title_detail'
p1531
g1
(g2
g3
(dp1532
g34
S'http://peeron.com/tickers/xkcdb.xml'
p1533
sg27
S'text/plain'
p1534
sg37
g1529
sg16
NstRp1535
sg45
g1526
sg87
(lp1536
g805
aV*
ag806
ag807
asS'author_detail'
p1537
g1
(g2
g3
(dp1538
g51
V"Caffeine, Bucket" <>
p1539
sg52
Vrss@peeron.com
p1540
stRp1541
sg124
Vhttp://www.xkcdb.com/?8072
p1542
stRp1543
astRp1544
.