ccopy_reg
_reconstructor
p1
(cfeedparser
FeedParserDict
p2
c__builtin__
dict
p3
(dp4
S'feed'
p5
g1
(g2
g3
(dp6
S'title_detail'
p7
g1
(g2
g3
(dp8
S'base'
p9
S'http://www.reddit.com/.rss?feed=42a611421f40a232c1c9635e3141aced337fba7d&user=frozencemetery'
p10
sS'type'
p11
S'text/plain'
p12
sS'language'
p13
NsS'value'
p14
Vreddit: the voice of the internet -- news before it happens
p15
stRp16
sS'subtitle'
p17
V
sS'links'
p18
(lp19
g1
(g2
g3
(dp20
S'href'
p21
Vhttp://www.reddit.com/
p22
sg11
S'text/html'
p23
sS'rel'
p24
S'alternate'
p25
stRp26
ag1
(g2
g3
(dp27
g11
g23
sg24
g25
stRp28
asS'title'
p29
g15
sS'link'
p30
g22
sS'image'
p31
g1
(g2
g3
(dp32
g21
Vhttp://static.reddit.com/reddit.com.header.png
p33
sg30
Vhttp://www.reddit.com/
p34
sg29
Vreddit: the voice of the internet -- news before it happens
p35
stRp36
sS'subtitle_detail'
p37
g1
(g2
g3
(dp38
g9
S'http://www.reddit.com/.rss?feed=42a611421f40a232c1c9635e3141aced337fba7d&user=frozencemetery'
p39
sg11
S'text/html'
p40
sg13
Nsg14
V
stRp41
stRp42
sS'status'
p43
I200
sS'canto_version'
p44
(I0
I7
I9
tp45
sS'bozo'
p46
I0
sS'encoding'
p47
S'UTF-8'
p48
sS'canto_update'
p49
F1297684104.783977
sS'headers'
p50
(dp51
S'transfer-encoding'
p52
S'chunked'
p53
sS'set-cookie'
p54
S'reddit_first=%7B%22firsttime%22%3A%20%22first%22%7D; Domain=reddit.com; expires=Thu, 31 Dec 2037 23:59:59 GMT; Path=/'
p55
sS'vary'
p56
S'Accept-Encoding'
p57
sS'server'
p58
S"'; DROP TABLE servertypes; --"
p59
sS'connection'
p60
S'close, Transfer-Encoding'
p61
sS'pragma'
p62
S'no-cache'
p63
sS'cache-control'
p64
S'no-cache'
p65
sS'date'
p66
S'Mon, 14 Feb 2011 11:48:30 GMT'
p67
sS'content-type'
p68
S'text/xml; charset=UTF-8'
p69
ssS'version'
p70
S'rss20'
p71
sS'canto_state'
p72
(lp73
sg21
S'http://www.reddit.com/.rss?feed=42a611421f40a232c1c9635e3141aced337fba7d&user=frozencemetery'
p74
sS'namespaces'
p75
(dp76
Vmedia
p77
Vhttp://search.yahoo.com/mrss/
p78
sS'dc'
p79
Vhttp://purl.org/dc/elements/1.1/
p80
ssS'entries'
p81
(lp82
g1
(g2
g3
(dp83
S'summary_detail'
p84
g1
(g2
g3
(dp85
g9
S'http://www.reddit.com/.rss?feed=42a611421f40a232c1c9635e3141aced337fba7d&user=frozencemetery'
p86
sg11
S'text/html'
p87
sg13
Nsg14
Vsubmitted by <a href="http://www.reddit.com/user/Hicksapotamis"> Hicksapotamis </a> to <a href="http://www.reddit.com/r/worldnews/"> worldnews</a> <br /> <a href="http://english.aljazeera.net/news/africa/2011/02/201121319501679639.html">[link]</a> <a href="http://www.reddit.com/r/worldnews/comments/fkth7/citizens_of_algeria_vow_to_hold_a_protest_every/">[236 comments]</a>
p88
stRp89
sS'updated_parsed'
p90
ctime
struct_time
p91
((I2011
I2
I14
I0
I49
I40
I0
I45
I0
t(dtRp92
sg18
(lp93
g1
(g2
g3
(dp94
g21
Vhttp://www.reddit.com/r/worldnews/comments/fkth7/citizens_of_algeria_vow_to_hold_a_protest_every/
p95
sg11
g23
sg24
g25
stRp96
asg29
VCitizens of Algeria vow to hold a protest every Saturday until the government falls
p97
sS'updated'
p98
VMon, 14 Feb 2011 00:49:40 +0000
p99
sS'summary'
p100
g88
sS'guidislink'
p101
I00
sS'title_detail'
p102
g1
(g2
g3
(dp103
g9
S'http://www.reddit.com/.rss?feed=42a611421f40a232c1c9635e3141aced337fba7d&user=frozencemetery'
p104
sg11
S'text/plain'
p105
sg13
Nsg14
g97
stRp106
sg30
g95
sg72
(lp107
Vreddit: the voice of the internet -- news before it happens
p108
aV*
aS'read'
p109
asS'id'
p110
Vhttp://www.reddit.com/r/worldnews/comments/fkth7/citizens_of_algeria_vow_to_hold_a_protest_every/
p111
stRp112
ag1
(g2
g3
(dp113
S'summary_detail'
p114
g1
(g2
g3
(dp115
g9
S'http://www.reddit.com/.rss?feed=42a611421f40a232c1c9635e3141aced337fba7d&user=frozencemetery'
p116
sg11
S'text/html'
p117
sg13
Nsg14
Vsubmitted by <a href="http://www.reddit.com/user/sagres"> sagres </a> to <a href="http://www.reddit.com/r/crypto/"> crypto</a> <br /> <a href="http://csrc.nist.gov/publications/PubsDrafts.html#fips-180-4">[link]</a> <a href="http://www.reddit.com/r/crypto/comments/fl22m/sha2_standard_updated_to_support_truncation_of/">[comment]</a>
p118
stRp119
sg90
g91
((I2011
I2
I14
I10
I19
I15
I0
I45
I0
t(dtRp120
sg18
(lp121
g1
(g2
g3
(dp122
g21
Vhttp://www.reddit.com/r/crypto/comments/fl22m/sha2_standard_updated_to_support_truncation_of/
p123
sg11
g23
sg24
g25
stRp124
asg29
VSHA-2 standard updated to support truncation of 512-bit hashes
p125
sg98
VMon, 14 Feb 2011 10:19:15 +0000
p126
sg100
g118
sg101
I00
sS'title_detail'
p127
g1
(g2
g3
(dp128
g9
S'http://www.reddit.com/.rss?feed=42a611421f40a232c1c9635e3141aced337fba7d&user=frozencemetery'
p129
sg11
S'text/plain'
p130
sg13
Nsg14
g125
stRp131
sg30
g123
sg72
(lp132
Vreddit: the voice of the internet -- news before it happens
p133
aV*
aS'read'
p134
asg110
Vhttp://www.reddit.com/r/crypto/comments/fl22m/sha2_standard_updated_to_support_truncation_of/
p135
stRp136
ag1
(g2
g3
(dp137
S'summary_detail'
p138
g1
(g2
g3
(dp139
g9
S'http://www.reddit.com/.rss?feed=42a611421f40a232c1c9635e3141aced337fba7d&user=frozencemetery'
p140
sg11
S'text/html'
p141
sg13
Nsg14
Vsubmitted by <a href="http://www.reddit.com/user/ajehals"> ajehals </a> to <a href="http://www.reddit.com/r/worldnews/"> worldnews</a> <br /> <a href="http://www.abc.net.au/am/content/2011/s3137805.htm">[link]</a> <a href="http://www.reddit.com/r/worldnews/comments/fksct/from_meeting_with_bradley_from_getting_to_know/">[120 comments]</a>
p142
stRp143
sg90
g91
((I2011
I2
I13
I23
I42
I55
I6
I44
I0
t(dtRp144
sg18
(lp145
g1
(g2
g3
(dp146
g21
Vhttp://www.reddit.com/r/worldnews/comments/fksct/from_meeting_with_bradley_from_getting_to_know/
p147
sg11
g23
sg24
g25
stRp148
asg29
VFrom meeting with Bradley, from getting to know him and from watching his state degrade over time, the only conclusion I can reach is that this is torture.
p149
sg98
VSun, 13 Feb 2011 23:42:55 +0000
p150
sg100
g142
sg101
I00
sS'title_detail'
p151
g1
(g2
g3
(dp152
g9
S'http://www.reddit.com/.rss?feed=42a611421f40a232c1c9635e3141aced337fba7d&user=frozencemetery'
p153
sg11
S'text/plain'
p154
sg13
Nsg14
g149
stRp155
sg30
g147
sg72
(lp156
Vreddit: the voice of the internet -- news before it happens
p157
aV*
aS'read'
p158
asg110
Vhttp://www.reddit.com/r/worldnews/comments/fksct/from_meeting_with_bradley_from_getting_to_know/
p159
stRp160
ag1
(g2
g3
(dp161
S'summary_detail'
p162
g1
(g2
g3
(dp163
g9
S'http://www.reddit.com/.rss?feed=42a611421f40a232c1c9635e3141aced337fba7d&user=frozencemetery'
p164
sg11
S'text/html'
p165
sg13
Nsg14
Vsubmitted by <a href="http://www.reddit.com/user/r3dd173r"> r3dd173r </a> to <a href="http://www.reddit.com/r/worldnews/"> worldnews</a> <br /> <a href="http://www.nytimes.com/2011/02/14/world/europe/14italy.html?_r=1&partner=rss&emc=rss">[link]</a> <a href="http://www.reddit.com/r/worldnews/comments/fl1u0/with_signs_reading_enough_and_we_want_a_country/">[comment]</a>
p166
stRp167
sg90
g91
((I2011
I2
I14
I9
I57
I32
I0
I45
I0
t(dtRp168
sg18
(lp169
g1
(g2
g3
(dp170
g21
Vhttp://www.reddit.com/r/worldnews/comments/fl1u0/with_signs_reading_enough_and_we_want_a_country/
p171
sg11
g23
sg24
g25
stRp172
asg29
VWith signs reading \u201cEnough!\u201d and \u201cWe want a country that respects women,\u201d thousands took to the streets across Italy on Sunday in coordinated demonstrations against Prime Minister Silvio Berlusconi, but their outpouring of frustration did not look poised to bring about political change.
p173
sg98
VMon, 14 Feb 2011 09:57:32 +0000
p174
sg100
g166
sg101
I00
sS'title_detail'
p175
g1
(g2
g3
(dp176
g9
S'http://www.reddit.com/.rss?feed=42a611421f40a232c1c9635e3141aced337fba7d&user=frozencemetery'
p177
sg11
S'text/plain'
p178
sg13
Nsg14
g173
stRp179
sg30
g171
sg72
(lp180
g133
aV*
ag134
asg110
Vhttp://www.reddit.com/r/worldnews/comments/fl1u0/with_signs_reading_enough_and_we_want_a_country/
p181
stRp182
ag1
(g2
g3
(dp183
S'summary_detail'
p184
g1
(g2
g3
(dp185
g9
S'http://www.reddit.com/.rss?feed=42a611421f40a232c1c9635e3141aced337fba7d&user=frozencemetery'
p186
sg11
S'text/html'
p187
sg13
Nsg14
Vsubmitted by <a href="http://www.reddit.com/user/Kaffir"> Kaffir </a> to <a href="http://www.reddit.com/r/worldnews/"> worldnews</a> <br /> <a href="http://www.dailymail.co.uk/news/article-1356361/Shame-Britains-Muslim-schools-Secret-filming-shows-pupils-beaten.html#ixzz1DpIT5bce">[link]</a> <a href="http://www.reddit.com/r/worldnews/comments/fky0r/shame_of_britains_muslim_schools_secret_filming/">[9 comments]</a>
p188
stRp189
sg90
g91
((I2011
I2
I14
I5
I27
I12
I0
I45
I0
t(dtRp190
sg18
(lp191
g1
(g2
g3
(dp192
g21
Vhttp://www.reddit.com/r/worldnews/comments/fky0r/shame_of_britains_muslim_schools_secret_filming/
p193
sg11
g23
sg24
g25
stRp194
asg29
VShame of Britain's Muslim schools: Secret filming shows pupils beaten | Mail Online
p195
sg98
VMon, 14 Feb 2011 05:27:12 +0000
p196
sg100
g188
sg101
I00
sS'title_detail'
p197
g1
(g2
g3
(dp198
g9
S'http://www.reddit.com/.rss?feed=42a611421f40a232c1c9635e3141aced337fba7d&user=frozencemetery'
p199
sg11
S'text/plain'
p200
sg13
Nsg14
g195
stRp201
sg30
g193
sg72
(lp202
Vreddit: the voice of the internet -- news before it happens
p203
aV*
aS'read'
p204
asg110
Vhttp://www.reddit.com/r/worldnews/comments/fky0r/shame_of_britains_muslim_schools_secret_filming/
p205
stRp206
ag1
(g2
g3
(dp207
S'summary_detail'
p208
g1
(g2
g3
(dp209
g9
S'http://www.reddit.com/.rss?feed=42a611421f40a232c1c9635e3141aced337fba7d&user=frozencemetery'
p210
sg11
S'text/html'
p211
sg13
Nsg14
Vsubmitted by <a href="http://www.reddit.com/user/makanguru"> makanguru </a> to <a href="http://www.reddit.com/r/worldnews/"> worldnews</a> <br /> <a href="http://www.bbc.co.uk/news/world-asia-pacific-12445509">[link]</a> <a href="http://www.reddit.com/r/worldnews/comments/fl22t/the_heaviest_snowfall_in_more_than_a_century_on/">[7 comments]</a>
p212
stRp213
sg90
g91
((I2011
I2
I14
I10
I19
I51
I0
I45
I0
t(dtRp214
sg18
(lp215
g1
(g2
g3
(dp216
g21
Vhttp://www.reddit.com/r/worldnews/comments/fl22t/the_heaviest_snowfall_in_more_than_a_century_on/
p217
sg11
g23
sg24
g25
stRp218
asg29
VThe heaviest snowfall in more than a century on South Korea's east coast is causing widespread chaos
p219
sg98
VMon, 14 Feb 2011 10:19:51 +0000
p220
sg100
g212
sg101
I00
sS'title_detail'
p221
g1
(g2
g3
(dp222
g9
S'http://www.reddit.com/.rss?feed=42a611421f40a232c1c9635e3141aced337fba7d&user=frozencemetery'
p223
sg11
S'text/plain'
p224
sg13
Nsg14
g219
stRp225
sg30
g217
sg72
(lp226
g133
aV*
ag134
asg110
Vhttp://www.reddit.com/r/worldnews/comments/fl22t/the_heaviest_snowfall_in_more_than_a_century_on/
p227
stRp228
ag1
(g2
g3
(dp229
S'summary_detail'
p230
g1
(g2
g3
(dp231
g9
S'http://www.reddit.com/.rss?feed=42a611421f40a232c1c9635e3141aced337fba7d&user=frozencemetery'
p232
sg11
S'text/html'
p233
sg13
Nsg14
Vsubmitted by <a href="http://www.reddit.com/user/maxwellhill"> maxwellhill </a> to <a href="http://www.reddit.com/r/worldnews/"> worldnews</a> <br /> <a href="http://www.ipsnews.net/news.asp?idnews=54459">[link]</a> <a href="http://www.reddit.com/r/worldnews/comments/fkj01/egyptians_can_claim_mubaraks_stolen_billions_from/">[85 comments]</a>
p234
stRp235
sg90
g91
((I2011
I2
I13
I12
I44
I55
I6
I44
I0
t(dtRp236
sg18
(lp237
g1
(g2
g3
(dp238
g21
Vhttp://www.reddit.com/r/worldnews/comments/fkj01/egyptians_can_claim_mubaraks_stolen_billions_from/
p239
sg11
g23
sg24
g25
stRp240
asg29
VEgyptians Can Claim Mubarak\u2019s Stolen Billions: From Feb 1, Swiss law allows for money deposited in Swiss banks by Third World dictators to be reimbursed to the legitimate governments of the dictators\u2019 countries of origin (!)
p241
sg98
VSun, 13 Feb 2011 05:44:55 -0700
p242
sg100
g234
sg101
I00
sS'title_detail'
p243
g1
(g2
g3
(dp244
g9
S'http://www.reddit.com/.rss?feed=42a611421f40a232c1c9635e3141aced337fba7d&user=frozencemetery'
p245
sg11
S'text/plain'
p246
sg13
Nsg14
g241
stRp247
sg30
g239
sg72
(lp248
Vreddit: the voice of the internet -- news before it happens
p249
aV*
aS'read'
p250
asg110
Vhttp://www.reddit.com/r/worldnews/comments/fkj01/egyptians_can_claim_mubaraks_stolen_billions_from/
p251
stRp252
ag1
(g2
g3
(dp253
S'summary_detail'
p254
g1
(g2
g3
(dp255
g9
S'http://www.reddit.com/.rss?feed=42a611421f40a232c1c9635e3141aced337fba7d&user=frozencemetery'
p256
sg11
S'text/html'
p257
sg13
Nsg14
Vsubmitted by <a href="http://www.reddit.com/user/3stirsclockwise"> 3stirsclockwise </a> to <a href="http://www.reddit.com/r/worldnews/"> worldnews</a> <br /> <a href="http://www.blogfromitaly.com/mass-protests-in-italy-against-berlusconi/">[link]</a> <a href="http://www.reddit.com/r/worldnews/comments/fl0ii/mass_protests_in_italy_against_berlusconi/">[comment]</a>
p258
stRp259
sg90
g91
((I2011
I2
I14
I8
I6
I39
I0
I45
I0
t(dtRp260
sg18
(lp261
g1
(g2
g3
(dp262
g21
Vhttp://www.reddit.com/r/worldnews/comments/fl0ii/mass_protests_in_italy_against_berlusconi/
p263
sg11
g23
sg24
g25
stRp264
asg29
VMass Protests in Italy Against Berlusconi
p265
sg98
VMon, 14 Feb 2011 08:06:39 +0000
p266
sg100
g258
sg101
I00
sS'title_detail'
p267
g1
(g2
g3
(dp268
g9
S'http://www.reddit.com/.rss?feed=42a611421f40a232c1c9635e3141aced337fba7d&user=frozencemetery'
p269
sg11
S'text/plain'
p270
sg13
Nsg14
g265
stRp271
sg30
g263
sg72
(lp272
g133
aV*
ag134
asg110
Vhttp://www.reddit.com/r/worldnews/comments/fl0ii/mass_protests_in_italy_against_berlusconi/
p273
stRp274
ag1
(g2
g3
(dp275
S'summary_detail'
p276
g1
(g2
g3
(dp277
g9
S'http://www.reddit.com/.rss?feed=42a611421f40a232c1c9635e3141aced337fba7d&user=frozencemetery'
p278
sg11
S'text/html'
p279
sg13
Nsg14
Vsubmitted by <a href="http://www.reddit.com/user/boilingdeathrequest"> boilingdeathrequest </a> to <a href="http://www.reddit.com/r/worldnews/"> worldnews</a> <br /> <a href="http://www.guardian.co.uk/world/2011/feb/13/iran-opposition-demonstrations-government-warnings">[link]</a> <a href="http://www.reddit.com/r/worldnews/comments/fko1r/iran_opposition_to_hold_demonstrations_on_monday/">[15 comments]</a>
p280
stRp281
sg90
g91
((I2011
I2
I13
I19
I22
I19
I6
I44
I0
t(dtRp282
sg18
(lp283
g1
(g2
g3
(dp284
g21
Vhttp://www.reddit.com/r/worldnews/comments/fko1r/iran_opposition_to_hold_demonstrations_on_monday/
p285
sg11
g23
sg24
g25
stRp286
asg29
VIran opposition to hold demonstrations on Monday despite government warnings
p287
sg98
VSun, 13 Feb 2011 19:22:19 +0000
p288
sg100
g280
sg101
I00
sS'title_detail'
p289
g1
(g2
g3
(dp290
g9
S'http://www.reddit.com/.rss?feed=42a611421f40a232c1c9635e3141aced337fba7d&user=frozencemetery'
p291
sg11
S'text/plain'
p292
sg13
Nsg14
g287
stRp293
sg30
g285
sg72
(lp294
Vreddit: the voice of the internet -- news before it happens
p295
aV*
aS'read'
p296
asg110
Vhttp://www.reddit.com/r/worldnews/comments/fko1r/iran_opposition_to_hold_demonstrations_on_monday/
p297
stRp298
ag1
(g2
g3
(dp299
S'summary_detail'
p300
g1
(g2
g3
(dp301
g9
S'http://www.reddit.com/.rss?feed=42a611421f40a232c1c9635e3141aced337fba7d&user=frozencemetery'
p302
sg11
S'text/html'
p303
sg13
Nsg14
Vsubmitted by <a href="http://www.reddit.com/user/RTLemur89"> RTLemur89 </a> to <a href="http://www.reddit.com/r/worldnews/"> worldnews</a> <br /> <a href="http://www.bbc.co.uk/news/world-middle-east-12443678">[link]</a> <a href="http://www.reddit.com/r/worldnews/comments/fkjns/egypts_army_dissolves_parliament/">[71 comments]</a>
p304
stRp305
sg90
g91
((I2011
I2
I13
I14
I8
I58
I6
I44
I0
t(dtRp306
sg18
(lp307
g1
(g2
g3
(dp308
g21
Vhttp://www.reddit.com/r/worldnews/comments/fkjns/egypts_army_dissolves_parliament/
p309
sg11
g23
sg24
g25
stRp310
asg29
VEgypt's Army dissolves parliament
p311
sg98
VSun, 13 Feb 2011 14:08:58 +0000
p312
sg100
g304
sg101
I00
sS'title_detail'
p313
g1
(g2
g3
(dp314
g9
S'http://www.reddit.com/.rss?feed=42a611421f40a232c1c9635e3141aced337fba7d&user=frozencemetery'
p315
sg11
S'text/plain'
p316
sg13
Nsg14
g311
stRp317
sg30
g309
sg72
(lp318
g249
aV*
ag250
asg110
Vhttp://www.reddit.com/r/worldnews/comments/fkjns/egypts_army_dissolves_parliament/
p319
stRp320
ag1
(g2
g3
(dp321
S'summary_detail'
p322
g1
(g2
g3
(dp323
g9
S'http://www.reddit.com/.rss?feed=42a611421f40a232c1c9635e3141aced337fba7d&user=frozencemetery'
p324
sg11
S'text/html'
p325
sg13
Nsg14
Vsubmitted by <a href="http://www.reddit.com/user/davidreiss666"> davidreiss666 </a> to <a href="http://www.reddit.com/r/worldnews/"> worldnews</a> <br /> <a href="http://www.theglobeandmail.com/news/world/africa-mideast/yemens-police-beat-back-protesters-intent-on-overthrowing-president/article1905328/">[link]</a> <a href="http://www.reddit.com/r/worldnews/comments/fkqk1/yemens_police_beat_back_protesters_intent_on/">[7 comments]</a>
p326
stRp327
sg90
g91
((I2011
I2
I13
I21
I51
I38
I6
I44
I0
t(dtRp328
sg18
(lp329
g1
(g2
g3
(dp330
g21
Vhttp://www.reddit.com/r/worldnews/comments/fkqk1/yemens_police_beat_back_protesters_intent_on/
p331
sg11
g23
sg24
g25
stRp332
asg29
VYemen\u2019s police beat back protesters intent on overthrowing president: Police armed with sticks & daggers on Sunday beat back thousands of protesters marching through the capital in a 3rd day of demonstrations calling for political reforms & the resignation of the president.
p333
sg98
VSun, 13 Feb 2011 21:51:38 +0000
p334
sg100
g326
sg101
I00
sS'title_detail'
p335
g1
(g2
g3
(dp336
g9
S'http://www.reddit.com/.rss?feed=42a611421f40a232c1c9635e3141aced337fba7d&user=frozencemetery'
p337
sg11
S'text/plain'
p338
sg13
Nsg14
g333
stRp339
sg30
g331
sg72
(lp340
Vreddit: the voice of the internet -- news before it happens
p341
aV*
aS'read'
p342
asg110
Vhttp://www.reddit.com/r/worldnews/comments/fkqk1/yemens_police_beat_back_protesters_intent_on/
p343
stRp344
ag1
(g2
g3
(dp345
S'summary_detail'
p346
g1
(g2
g3
(dp347
g9
S'http://www.reddit.com/.rss?feed=42a611421f40a232c1c9635e3141aced337fba7d&user=frozencemetery'
p348
sg11
S'text/html'
p349
sg13
Nsg14
Vsubmitted by <a href="http://www.reddit.com/user/ajehals"> ajehals </a> to <a href="http://www.reddit.com/r/worldnews/"> worldnews</a> <br /> <a href="http://www.abc.net.au/news/stories/2011/02/14/3137816.htm?section=world">[link]</a> <a href="http://www.reddit.com/r/worldnews/comments/fkrgt/army_private_pressured_to_implicate_assange/">[47 comments]</a>
p350
stRp351
sg90
g91
((I2011
I2
I13
I22
I47
I0
I6
I44
I0
t(dtRp352
sg18
(lp353
g1
(g2
g3
(dp354
g21
Vhttp://www.reddit.com/r/worldnews/comments/fkrgt/army_private_pressured_to_implicate_assange/
p355
sg11
g23
sg24
g25
stRp356
asg29
VArmy private 'pressured to implicate Assange'
p357
sg98
VSun, 13 Feb 2011 22:47:00 +0000
p358
sg100
g350
sg101
I00
sS'title_detail'
p359
g1
(g2
g3
(dp360
g9
S'http://www.reddit.com/.rss?feed=42a611421f40a232c1c9635e3141aced337fba7d&user=frozencemetery'
p361
sg11
S'text/plain'
p362
sg13
Nsg14
g357
stRp363
sg30
g355
sg72
(lp364
Vreddit: the voice of the internet -- news before it happens
p365
aV*
aS'read'
p366
asg110
Vhttp://www.reddit.com/r/worldnews/comments/fkrgt/army_private_pressured_to_implicate_assange/
p367
stRp368
ag1
(g2
g3
(dp369
S'summary_detail'
p370
g1
(g2
g3
(dp371
g9
S'http://www.reddit.com/.rss?feed=42a611421f40a232c1c9635e3141aced337fba7d&user=frozencemetery'
p372
sg11
S'text/html'
p373
sg13
Nsg14
Vsubmitted by <a href="http://www.reddit.com/user/termite10"> termite10 </a> to <a href="http://www.reddit.com/r/worldnews/"> worldnews</a> <br /> <a href="http://www.guardian.co.uk/world/2011/feb/13/egypt-military-rejects-swift-power-handover">[link]</a> <a href="http://www.reddit.com/r/worldnews/comments/fkx1w/egypts_military_rejects_swift_transfer_of_power/">[2 comments]</a>
p374
stRp375
sg90
g91
((I2011
I2
I14
I4
I21
I31
I0
I45
I0
t(dtRp376
sg18
(lp377
g1
(g2
g3
(dp378
g21
Vhttp://www.reddit.com/r/worldnews/comments/fkx1w/egypts_military_rejects_swift_transfer_of_power/
p379
sg11
g23
sg24
g25
stRp380
asg29
VEgypt's military rejects swift transfer of power and will rule by decree
p381
sg98
VMon, 14 Feb 2011 04:21:31 +0000
p382
sg100
g374
sg101
I00
sS'title_detail'
p383
g1
(g2
g3
(dp384
g9
S'http://www.reddit.com/.rss?feed=42a611421f40a232c1c9635e3141aced337fba7d&user=frozencemetery'
p385
sg11
S'text/plain'
p386
sg13
Nsg14
g381
stRp387
sg30
g379
sg72
(lp388
g203
aV*
ag204
asg110
Vhttp://www.reddit.com/r/worldnews/comments/fkx1w/egypts_military_rejects_swift_transfer_of_power/
p389
stRp390
ag1
(g2
g3
(dp391
S'summary_detail'
p392
g1
(g2
g3
(dp393
g9
S'http://www.reddit.com/.rss?feed=42a611421f40a232c1c9635e3141aced337fba7d&user=frozencemetery'
p394
sg11
S'text/html'
p395
sg13
Nsg14
Vsubmitted by <a href="http://www.reddit.com/user/londontruthaction"> londontruthaction </a> to <a href="http://www.reddit.com/r/worldnews/"> worldnews</a> <br /> <a href="http://www.guardian.co.uk/environment/cif-green/2011/feb/10/peak-oil-saudi-reserves">[link]</a> <a href="http://www.reddit.com/r/worldnews/comments/fktnz/peak_oil_we_are_asleep_at_the_wheel_saudis_have/">[8 comments]</a>
p396
stRp397
sg90
g91
((I2011
I2
I14
I1
I2
I0
I0
I45
I0
t(dtRp398
sg18
(lp399
g1
(g2
g3
(dp400
g21
Vhttp://www.reddit.com/r/worldnews/comments/fktnz/peak_oil_we_are_asleep_at_the_wheel_saudis_have/
p401
sg11
g23
sg24
g25
stRp402
asg29
VPeak oil: We are asleep at the wheel - Saudis have overstated their oil reserves
p403
sg98
VMon, 14 Feb 2011 01:02:00 +0000
p404
sg100
g396
sg101
I00
sS'title_detail'
p405
g1
(g2
g3
(dp406
g9
S'http://www.reddit.com/.rss?feed=42a611421f40a232c1c9635e3141aced337fba7d&user=frozencemetery'
p407
sg11
S'text/plain'
p408
sg13
Nsg14
g403
stRp409
sg30
g401
sg72
(lp410
g157
aV*
ag158
asg110
Vhttp://www.reddit.com/r/worldnews/comments/fktnz/peak_oil_we_are_asleep_at_the_wheel_saudis_have/
p411
stRp412
ag1
(g2
g3
(dp413
S'summary_detail'
p414
g1
(g2
g3
(dp415
g9
S'http://www.reddit.com/.rss?feed=42a611421f40a232c1c9635e3141aced337fba7d&user=frozencemetery'
p416
sg11
S'text/html'
p417
sg13
Nsg14
Vsubmitted by <a href="http://www.reddit.com/user/Pukkelpop"> Pukkelpop </a> to <a href="http://www.reddit.com/r/worldnews/"> worldnews</a> <br /> <a href="http://english.aljazeera.net//news/africa/2011/02/20112148175219570.html">[link]</a> <a href="http://www.reddit.com/r/worldnews/comments/fl24h/algeria_to_lift_19_year_old_emergency_laws/">[comment]</a>
p418
stRp419
sg90
g91
((I2011
I2
I14
I10
I24
I53
I0
I45
I0
t(dtRp420
sg18
(lp421
g1
(g2
g3
(dp422
g21
Vhttp://www.reddit.com/r/worldnews/comments/fl24h/algeria_to_lift_19_year_old_emergency_laws/
p423
sg11
g23
sg24
g25
stRp424
asg29
VAlgeria 'to lift [19 year old] emergency laws'
p425
sg98
VMon, 14 Feb 2011 10:24:53 +0000
p426
sg100
g418
sg101
I00
sS'title_detail'
p427
g1
(g2
g3
(dp428
g9
S'http://www.reddit.com/.rss?feed=42a611421f40a232c1c9635e3141aced337fba7d&user=frozencemetery'
p429
sg11
S'text/plain'
p430
sg13
Nsg14
g425
stRp431
sg30
g423
sg72
(lp432
g133
aV*
ag134
asg110
Vhttp://www.reddit.com/r/worldnews/comments/fl24h/algeria_to_lift_19_year_old_emergency_laws/
p433
stRp434
ag1
(g2
g3
(dp435
S'summary_detail'
p436
g1
(g2
g3
(dp437
g9
S'http://www.reddit.com/.rss?feed=42a611421f40a232c1c9635e3141aced337fba7d&user=frozencemetery'
p438
sg11
S'text/html'
p439
sg13
Nsg14
Vsubmitted by <a href="http://www.reddit.com/user/makanguru"> makanguru </a> to <a href="http://www.reddit.com/r/worldnews/"> worldnews</a> <br /> <a href="http://www.bbc.co.uk/news/world-middle-east-12447225">[link]</a> <a href="http://www.reddit.com/r/worldnews/comments/fl22i/iranian_police_have_placed_opposition_leader_mir/">[2 comments]</a>
p440
stRp441
sg90
g91
((I2011
I2
I14
I10
I19
I4
I0
I45
I0
t(dtRp442
sg18
(lp443
g1
(g2
g3
(dp444
g21
Vhttp://www.reddit.com/r/worldnews/comments/fl22i/iranian_police_have_placed_opposition_leader_mir/
p445
sg11
g23
sg24
g25
stRp446
asg29
VIranian police have placed opposition leader Mir Hossein Mousavi under house arrest to block him from attending a rally in Tehran in support of the protests in Egypt
p447
sg98
VMon, 14 Feb 2011 10:19:04 +0000
p448
sg100
g440
sg101
I00
sS'title_detail'
p449
g1
(g2
g3
(dp450
g9
S'http://www.reddit.com/.rss?feed=42a611421f40a232c1c9635e3141aced337fba7d&user=frozencemetery'
p451
sg11
S'text/plain'
p452
sg13
Nsg14
g447
stRp453
sg30
g445
sg72
(lp454
g133
aV*
ag134
asg110
Vhttp://www.reddit.com/r/worldnews/comments/fl22i/iranian_police_have_placed_opposition_leader_mir/
p455
stRp456
ag1
(g2
g3
(dp457
S'summary_detail'
p458
g1
(g2
g3
(dp459
g9
S'http://www.reddit.com/.rss?feed=42a611421f40a232c1c9635e3141aced337fba7d&user=frozencemetery'
p460
sg11
S'text/html'
p461
sg13
Nsg14
Vsubmitted by <a href="http://www.reddit.com/user/fitzroy95"> fitzroy95 </a> to <a href="http://www.reddit.com/r/worldnews/"> worldnews</a> <br /> <a href="http://edition.cnn.com/2011/BUSINESS/02/13/japan.economy.third/index.html">[link]</a> <a href="http://www.reddit.com/r/worldnews/comments/fky3b/japans_economy_slips_to_third_in_world_and_chinas/">[7 comments]</a>
p462
stRp463
sg90
g91
((I2011
I2
I14
I5
I30
I43
I0
I45
I0
t(dtRp464
sg18
(lp465
g1
(g2
g3
(dp466
g21
Vhttp://www.reddit.com/r/worldnews/comments/fky3b/japans_economy_slips_to_third_in_world_and_chinas/
p467
sg11
g23
sg24
g25
stRp468
asg29
VJapan's economy slips to third in world (and China's economy is growing fast)
p469
sg98
VMon, 14 Feb 2011 05:30:43 +0000
p470
sg100
g462
sg101
I00
sS'title_detail'
p471
g1
(g2
g3
(dp472
g9
S'http://www.reddit.com/.rss?feed=42a611421f40a232c1c9635e3141aced337fba7d&user=frozencemetery'
p473
sg11
S'text/plain'
p474
sg13
Nsg14
g469
stRp475
sg30
g467
sg72
(lp476
g203
aV*
ag204
asg110
Vhttp://www.reddit.com/r/worldnews/comments/fky3b/japans_economy_slips_to_third_in_world_and_chinas/
p477
stRp478
ag1
(g2
g3
(dp479
S'summary_detail'
p480
g1
(g2
g3
(dp481
g9
S'http://www.reddit.com/.rss?feed=42a611421f40a232c1c9635e3141aced337fba7d&user=frozencemetery'
p482
sg11
S'text/html'
p483
sg13
Nsg14
Vsubmitted by <a href="http://www.reddit.com/user/bernajurema"> bernajurema </a> to <a href="http://www.reddit.com/r/worldnews/"> worldnews</a> <br /> <a href="http://latimesblogs.latimes.com/the_big_picture/2011/02/cnns-anderson-cooper-lying-liars-and-the-lying-egyptians-who-tell-them.html">[link]</a> <a href="http://www.reddit.com/r/worldnews/comments/fkm2c/anderson_cooper_egypt_coverage_criticized_by_la/">[32 comments]</a>
p484
stRp485
sg90
g91
((I2011
I2
I13
I17
I17
I52
I6
I44
I0
t(dtRp486
sg18
(lp487
g1
(g2
g3
(dp488
g21
Vhttp://www.reddit.com/r/worldnews/comments/fkm2c/anderson_cooper_egypt_coverage_criticized_by_la/
p489
sg11
g23
sg24
g25
stRp490
asg29
VAnderson Cooper Egypt coverage criticized by L.A. Times columnist James Rainey. He wished Cooper would apply the same "piercing candor" at American politicians.
p491
sg98
VSun, 13 Feb 2011 17:17:52 +0000
p492
sg100
g484
sg101
I00
sS'title_detail'
p493
g1
(g2
g3
(dp494
g9
S'http://www.reddit.com/.rss?feed=42a611421f40a232c1c9635e3141aced337fba7d&user=frozencemetery'
p495
sg11
S'text/plain'
p496
sg13
Nsg14
g491
stRp497
sg30
g489
sg72
(lp498
Vreddit: the voice of the internet -- news before it happens
p499
aV*
aS'read'
p500
asg110
Vhttp://www.reddit.com/r/worldnews/comments/fkm2c/anderson_cooper_egypt_coverage_criticized_by_la/
p501
stRp502
ag1
(g2
g3
(dp503
S'summary_detail'
p504
g1
(g2
g3
(dp505
g9
S'http://www.reddit.com/.rss?feed=42a611421f40a232c1c9635e3141aced337fba7d&user=frozencemetery'
p506
sg11
S'text/html'
p507
sg13
Nsg14
Vsubmitted by <a href="http://www.reddit.com/user/wonglik"> wonglik </a> to <a href="http://www.reddit.com/r/worldnews/"> worldnews</a> <br /> <a href="http://www.bbc.co.uk/news/business-12427321">[link]</a> <a href="http://www.reddit.com/r/worldnews/comments/fl07w/china_overtakes_japan_as_worlds_secondbiggest/">[4 comments]</a>
p508
stRp509
sg90
g91
((I2011
I2
I14
I7
I44
I3
I0
I45
I0
t(dtRp510
sg18
(lp511
g1
(g2
g3
(dp512
g21
Vhttp://www.reddit.com/r/worldnews/comments/fl07w/china_overtakes_japan_as_worlds_secondbiggest/
p513
sg11
g23
sg24
g25
stRp514
asg29
VChina overtakes Japan as world's second-biggest economy
p515
sg98
VMon, 14 Feb 2011 07:44:03 +0000
p516
sg100
g508
sg101
I00
sS'title_detail'
p517
g1
(g2
g3
(dp518
g9
S'http://www.reddit.com/.rss?feed=42a611421f40a232c1c9635e3141aced337fba7d&user=frozencemetery'
p519
sg11
S'text/plain'
p520
sg13
Nsg14
g515
stRp521
sg30
g513
sg72
(lp522
g133
aV*
ag134
asg110
Vhttp://www.reddit.com/r/worldnews/comments/fl07w/china_overtakes_japan_as_worlds_secondbiggest/
p523
stRp524
ag1
(g2
g3
(dp525
S'summary_detail'
p526
g1
(g2
g3
(dp527
g9
S'http://www.reddit.com/.rss?feed=42a611421f40a232c1c9635e3141aced337fba7d&user=frozencemetery'
p528
sg11
S'text/html'
p529
sg13
Nsg14
Vsubmitted by <a href="http://www.reddit.com/user/hazysummersky"> hazysummersky </a> to <a href="http://www.reddit.com/r/worldnews/"> worldnews</a> <br /> <a href="http://rixstep.com/1/1/20110214,00.shtml">[link]</a> <a href="http://www.reddit.com/r/worldnews/comments/fl2om/julian_assange_swedish_prime_minister_reinfeldt/">[comment]</a>
p530
stRp531
sg90
g91
((I2011
I2
I14
I11
I15
I42
I0
I45
I0
t(dtRp532
sg18
(lp533
g1
(g2
g3
(dp534
g21
Vhttp://www.reddit.com/r/worldnews/comments/fl2om/julian_assange_swedish_prime_minister_reinfeldt/
p535
sg11
g23
sg24
g25
stRp536
asg29
VJulian Assange, Swedish Prime Minister Reinfeldt and Karl Rove: interview with Brian Palmer, voted 2002 Best Lecturer by the student body of Harvard University. 'Sweden has become somewhat of a voluntary vassal state of the USA.'
p537
sg98
VMon, 14 Feb 2011 11:15:42 +0000
p538
sg100
g530
sg101
I00
sS'title_detail'
p539
g1
(g2
g3
(dp540
g9
S'http://www.reddit.com/.rss?feed=42a611421f40a232c1c9635e3141aced337fba7d&user=frozencemetery'
p541
sg11
S'text/plain'
p542
sg13
Nsg14
g537
stRp543
sg30
g535
sg72
(lp544
g133
aV*
ag134
asg110
Vhttp://www.reddit.com/r/worldnews/comments/fl2om/julian_assange_swedish_prime_minister_reinfeldt/
p545
stRp546
ag1
(g2
g3
(dp547
S'summary_detail'
p548
g1
(g2
g3
(dp549
g9
S'http://www.reddit.com/.rss?feed=42a611421f40a232c1c9635e3141aced337fba7d&user=frozencemetery'
p550
sg11
S'text/html'
p551
sg13
Nsg14
Vsubmitted by <a href="http://www.reddit.com/user/ajehals"> ajehals </a> to <a href="http://www.reddit.com/r/worldnews/"> worldnews</a> <br /> <a href="http://www.bbc.co.uk/news/world-middle-east-12445192">[link]</a> <a href="http://www.reddit.com/r/worldnews/comments/fkwbi/thousands_of_demonstrators_have_left_cairos/">[6 comments]</a>
p552
stRp553
sg90
g91
((I2011
I2
I14
I3
I39
I10
I0
I45
I0
t(dtRp554
sg18
(lp555
g1
(g2
g3
(dp556
g21
Vhttp://www.reddit.com/r/worldnews/comments/fkwbi/thousands_of_demonstrators_have_left_cairos/
p557
sg11
g23
sg24
g25
stRp558
asg29
VThousands of demonstrators have left Cairo's Tahrir Square after Egypt's new military rulers said they would dissolve parliament and suspend the constitution.
p559
sg98
VMon, 14 Feb 2011 03:39:10 +0000
p560
sg100
g552
sg101
I00
sS'title_detail'
p561
g1
(g2
g3
(dp562
g9
S'http://www.reddit.com/.rss?feed=42a611421f40a232c1c9635e3141aced337fba7d&user=frozencemetery'
p563
sg11
S'text/plain'
p564
sg13
Nsg14
g559
stRp565
sg30
g557
sg72
(lp566
Vreddit: the voice of the internet -- news before it happens
p567
aV*
aS'read'
p568
asg110
Vhttp://www.reddit.com/r/worldnews/comments/fkwbi/thousands_of_demonstrators_have_left_cairos/
p569
stRp570
ag1
(g2
g3
(dp571
S'summary_detail'
p572
g1
(g2
g3
(dp573
g9
S'http://www.reddit.com/.rss?feed=42a611421f40a232c1c9635e3141aced337fba7d&user=frozencemetery'
p574
sg11
S'text/html'
p575
sg13
Nsg14
Vsubmitted by <a href="http://www.reddit.com/user/Dhghomon"> Dhghomon </a> to <a href="http://www.reddit.com/r/worldnews/"> worldnews</a> <br /> <a href="http://www.nytimes.com/2011/02/14/world/middleeast/14iran.html?hp">[link]</a> <a href="http://www.reddit.com/r/worldnews/comments/fkz73/the_iranian_leaders_who_cheered_the_popular/">[2 comments]</a>
p576
stRp577
sg90
g91
((I2011
I2
I14
I6
I36
I32
I0
I45
I0
t(dtRp578
sg18
(lp579
g1
(g2
g3
(dp580
g21
Vhttp://www.reddit.com/r/worldnews/comments/fkz73/the_iranian_leaders_who_cheered_the_popular/
p581
sg11
g23
sg24
g25
stRp582
asg29
V"The Iranian leaders who cheered the popular overthrow of an Egyptian strongman last week have promised to crush an opposition march planned for Monday in solidarity with the Egyptian people."
p583
sg98
VMon, 14 Feb 2011 06:36:32 +0000
p584
sg100
g576
sg101
I00
sS'title_detail'
p585
g1
(g2
g3
(dp586
g9
S'http://www.reddit.com/.rss?feed=42a611421f40a232c1c9635e3141aced337fba7d&user=frozencemetery'
p587
sg11
S'text/plain'
p588
sg13
Nsg14
g583
stRp589
sg30
g581
sg72
(lp590
g133
aV*
ag134
asg110
Vhttp://www.reddit.com/r/worldnews/comments/fkz73/the_iranian_leaders_who_cheered_the_popular/
p591
stRp592
ag1
(g2
g3
(dp593
S'summary_detail'
p594
g1
(g2
g3
(dp595
g9
S'http://www.reddit.com/.rss?feed=42a611421f40a232c1c9635e3141aced337fba7d&user=frozencemetery'
p596
sg11
S'text/html'
p597
sg13
Nsg14
Vsubmitted by <a href="http://www.reddit.com/user/frycook"> frycook </a> to <a href="http://www.reddit.com/r/worldnews/"> worldnews</a> <br /> <a href="http://www.businessinsider.com/bahrain-day-of-rage-2011-2">[link]</a> <a href="http://www.reddit.com/r/worldnews/comments/fksr9/bahrain_now_bracing_for_its_own_day_of_rage_after/">[10 comments]</a>
p598
stRp599
sg90
g91
((I2011
I2
I14
I0
I5
I43
I0
I45
I0
t(dtRp600
sg18
(lp601
g1
(g2
g3
(dp602
g21
Vhttp://www.reddit.com/r/worldnews/comments/fksr9/bahrain_now_bracing_for_its_own_day_of_rage_after/
p603
sg11
g23
sg24
g25
stRp604
asg29
VBahrain Now Bracing For Its Own Day Of Rage After Giving Every Family $2,660 Fails
p605
sg98
VMon, 14 Feb 2011 00:05:43 +0000
p606
sg100
g598
sg101
I00
sS'title_detail'
p607
g1
(g2
g3
(dp608
g9
S'http://www.reddit.com/.rss?feed=42a611421f40a232c1c9635e3141aced337fba7d&user=frozencemetery'
p609
sg11
S'text/plain'
p610
sg13
Nsg14
g605
stRp611
sg30
g603
sg72
(lp612
g157
aV*
ag158
asg110
Vhttp://www.reddit.com/r/worldnews/comments/fksr9/bahrain_now_bracing_for_its_own_day_of_rage_after/
p613
stRp614
ag1
(g2
g3
(dp615
S'summary_detail'
p616
g1
(g2
g3
(dp617
g9
S'http://www.reddit.com/.rss?feed=42a611421f40a232c1c9635e3141aced337fba7d&user=frozencemetery'
p618
sg11
S'text/html'
p619
sg13
Nsg14
Vsubmitted by <a href="http://www.reddit.com/user/waggawagga"> waggawagga </a> to <a href="http://www.reddit.com/r/worldnews/"> worldnews</a> <br /> <a href="http://www.belfasttelegraph.co.uk/news/world-news/chilean-miners-smoked-marijuana-and-considered-cannibalism-while-underground-15083139.html">[link]</a> <a href="http://www.reddit.com/r/worldnews/comments/fl07u/chilean_miners_smoked_marijuana_and_considered/">[5 comments]</a>
p620
stRp621
sg90
g91
((I2011
I2
I14
I7
I43
I58
I0
I45
I0
t(dtRp622
sg18
(lp623
g1
(g2
g3
(dp624
g21
Vhttp://www.reddit.com/r/worldnews/comments/fl07u/chilean_miners_smoked_marijuana_and_considered/
p625
sg11
g23
sg24
g25
stRp626
asg29
VChilean miners smoked marijuana and considered cannibalism while underground
p627
sg98
VMon, 14 Feb 2011 07:43:58 +0000
p628
sg100
g620
sg101
I00
sS'title_detail'
p629
g1
(g2
g3
(dp630
g9
S'http://www.reddit.com/.rss?feed=42a611421f40a232c1c9635e3141aced337fba7d&user=frozencemetery'
p631
sg11
S'text/plain'
p632
sg13
Nsg14
g627
stRp633
sg30
g625
sg72
(lp634
Vreddit: the voice of the internet -- news before it happens
p635
aV*
aS'read'
p636
asg110
Vhttp://www.reddit.com/r/worldnews/comments/fl07u/chilean_miners_smoked_marijuana_and_considered/
p637
stRp638
ag1
(g2
g3
(dp639
S'summary_detail'
p640
g1
(g2
g3
(dp641
g9
S'http://www.reddit.com/.rss?feed=42a611421f40a232c1c9635e3141aced337fba7d&user=frozencemetery'
p642
sg11
S'text/html'
p643
sg13
Nsg14
Vsubmitted by <a href="http://www.reddit.com/user/fitzroy95"> fitzroy95 </a> to <a href="http://www.reddit.com/r/worldnews/"> worldnews</a> <br /> <a href="http://www.nytimes.com/2011/02/14/world/middleeast/14egypt-tunisia-protests.html">[link]</a> <a href="http://www.reddit.com/r/worldnews/comments/fkwua/egyptians_and_tunisians_collaborated_to_shake/">[comment]</a>
p644
stRp645
sg90
g91
((I2011
I2
I14
I4
I7
I45
I0
I45
I0
t(dtRp646
sg18
(lp647
g1
(g2
g3
(dp648
g21
Vhttp://www.reddit.com/r/worldnews/comments/fkwua/egyptians_and_tunisians_collaborated_to_shake/
p649
sg11
g23
sg24
g25
stRp650
asg29
VEgyptians and Tunisians collaborated to shake Arab history - A two-year collaboration of dissidents gave birth to a new force \u2014 a pan-Arab youth movement dedicated to spreading democracy in a region without it.
p651
sg98
VMon, 14 Feb 2011 04:07:45 +0000
p652
sg100
g644
sg101
I00
sS'title_detail'
p653
g1
(g2
g3
(dp654
g9
S'http://www.reddit.com/.rss?feed=42a611421f40a232c1c9635e3141aced337fba7d&user=frozencemetery'
p655
sg11
S'text/plain'
p656
sg13
Nsg14
g651
stRp657
sg30
g649
sg72
(lp658
g203
aV*
ag204
asg110
Vhttp://www.reddit.com/r/worldnews/comments/fkwua/egyptians_and_tunisians_collaborated_to_shake/
p659
stRp660
ag1
(g2
g3
(dp661
S'summary_detail'
p662
g1
(g2
g3
(dp663
g9
S'http://www.reddit.com/.rss?feed=42a611421f40a232c1c9635e3141aced337fba7d&user=frozencemetery'
p664
sg11
S'text/html'
p665
sg13
Nsg14
Vsubmitted by <a href="http://www.reddit.com/user/twistedgames"> twistedgames </a> to <a href="http://www.reddit.com/r/worldnews/"> worldnews</a> <br /> <a href="http://www.abc.net.au/news/stories/2011/02/13/3137364.htm">[link]</a> <a href="http://www.reddit.com/r/worldnews/comments/fks44/brotherhood_wont_seek_power_in_egypt/">[4 comments]</a>
p666
stRp667
sg90
g91
((I2011
I2
I13
I23
I28
I33
I6
I44
I0
t(dtRp668
sg18
(lp669
g1
(g2
g3
(dp670
g21
Vhttp://www.reddit.com/r/worldnews/comments/fks44/brotherhood_wont_seek_power_in_egypt/
p671
sg11
g23
sg24
g25
stRp672
asg29
VBrotherhood won't seek power in Egypt
p673
sg98
VSun, 13 Feb 2011 23:28:33 +0000
p674
sg100
g666
sg101
I00
sS'title_detail'
p675
g1
(g2
g3
(dp676
g9
S'http://www.reddit.com/.rss?feed=42a611421f40a232c1c9635e3141aced337fba7d&user=frozencemetery'
p677
sg11
S'text/plain'
p678
sg13
Nsg14
g673
stRp679
sg30
g671
sg72
(lp680
g157
aV*
ag158
asg110
Vhttp://www.reddit.com/r/worldnews/comments/fks44/brotherhood_wont_seek_power_in_egypt/
p681
stRp682
ag1
(g2
g3
(dp683
S'summary_detail'
p684
g1
(g2
g3
(dp685
g9
S'http://www.reddit.com/.rss?feed=42a611421f40a232c1c9635e3141aced337fba7d&user=frozencemetery'
p686
sg11
S'text/html'
p687
sg13
Nsg14
Vsubmitted by <a href="http://www.reddit.com/user/Shakshuka"> Shakshuka </a> to <a href="http://www.reddit.com/r/worldnews/"> worldnews</a> <br /> <a href="http://www.haaretz.com/news/international/germans-form-human-chain-to-ward-off-neo-nazi-dresden-rally-1.343191">[link]</a> <a href="http://www.reddit.com/r/worldnews/comments/fknde/germans_form_human_chain_to_ward_off_neonazi/">[28 comments]</a>
p688
stRp689
sg90
g91
((I2011
I2
I13
I18
I42
I4
I6
I44
I0
t(dtRp690
sg18
(lp691
g1
(g2
g3
(dp692
g21
Vhttp://www.reddit.com/r/worldnews/comments/fknde/germans_form_human_chain_to_ward_off_neonazi/
p693
sg11
g23
sg24
g25
stRp694
asg29
VGermans form human chain to ward off neo-Nazi Dresden rally
p695
sg98
VSun, 13 Feb 2011 18:42:04 +0000
p696
sg100
g688
sg101
I00
sS'title_detail'
p697
g1
(g2
g3
(dp698
g9
S'http://www.reddit.com/.rss?feed=42a611421f40a232c1c9635e3141aced337fba7d&user=frozencemetery'
p699
sg11
S'text/plain'
p700
sg13
Nsg14
g695
stRp701
sg30
g693
sg72
(lp702
g295
aV*
ag296
asg110
Vhttp://www.reddit.com/r/worldnews/comments/fknde/germans_form_human_chain_to_ward_off_neonazi/
p703
stRp704
ag1
(g2
g3
(dp705
S'summary_detail'
p706
g1
(g2
g3
(dp707
g9
S'http://www.reddit.com/.rss?feed=42a611421f40a232c1c9635e3141aced337fba7d&user=frozencemetery'
p708
sg11
S'text/html'
p709
sg13
Nsg14
Vsubmitted by <a href="http://www.reddit.com/user/pute"> pute </a> to <a href="http://www.reddit.com/r/worldnews/"> worldnews</a> <br /> <a href="http://www.heraldscotland.com/news/home-news/police-999-failure-is-slated-1.1084957">[link]</a> <a href="http://www.reddit.com/r/worldnews/comments/fkxeu/a_police_force_has_been_criticised_for_the_way_it/">[2 comments]</a>
p710
stRp711
sg90
g91
((I2011
I2
I14
I4
I56
I5
I0
I45
I0
t(dtRp712
sg18
(lp713
g1
(g2
g3
(dp714
g21
Vhttp://www.reddit.com/r/worldnews/comments/fkxeu/a_police_force_has_been_criticised_for_the_way_it/
p715
sg11
g23
sg24
g25
stRp716
asg29
VA POLICE force has been criticised for the way it handled a complaint received after officers failed to respond to 10 emergency calls from a takeaway owner who was being attacked by around 20 men armed with baseball bats and golf clubs
p717
sg98
VMon, 14 Feb 2011 04:56:05 +0000
p718
sg100
g710
sg101
I00
sS'title_detail'
p719
g1
(g2
g3
(dp720
g9
S'http://www.reddit.com/.rss?feed=42a611421f40a232c1c9635e3141aced337fba7d&user=frozencemetery'
p721
sg11
S'text/plain'
p722
sg13
Nsg14
g717
stRp723
sg30
g715
sg72
(lp724
g203
aV*
ag204
asg110
Vhttp://www.reddit.com/r/worldnews/comments/fkxeu/a_police_force_has_been_criticised_for_the_way_it/
p725
stRp726
ag1
(g2
g3
(dp727
S'summary_detail'
p728
g1
(g2
g3
(dp729
g9
S'http://www.reddit.com/.rss?feed=42a611421f40a232c1c9635e3141aced337fba7d&user=frozencemetery'
p730
sg11
S'text/html'
p731
sg13
Nsg14
Vsubmitted by <a href="http://www.reddit.com/user/maxbjork"> maxbjork </a> to <a href="http://www.reddit.com/r/worldnews/"> worldnews</a> <br /> <a href="http://www.montrealgazette.com/news/protests+grew+Egypt+Mubarak+moved+billions/4273572/story.html">[link]</a> <a href="http://www.reddit.com/r/worldnews/comments/fkish/mubarak_used_the_18_days_to_transfer_up_to_60/">[40 comments]</a>
p732
stRp733
sg90
g91
((I2011
I2
I13
I12
I16
I44
I6
I44
I0
t(dtRp734
sg18
(lp735
g1
(g2
g3
(dp736
g21
Vhttp://www.reddit.com/r/worldnews/comments/fkish/mubarak_used_the_18_days_to_transfer_up_to_60/
p737
sg11
g23
sg24
g25
stRp738
asg29
VMubarak used the 18 days to transfer up to $60 billion into untraceable accounts...
p739
sg98
VSun, 13 Feb 2011 12:16:44 +0000
p740
sg100
g732
sg101
I00
sS'title_detail'
p741
g1
(g2
g3
(dp742
g9
S'http://www.reddit.com/.rss?feed=42a611421f40a232c1c9635e3141aced337fba7d&user=frozencemetery'
p743
sg11
S'text/plain'
p744
sg13
Nsg14
g739
stRp745
sg30
g737
sg72
(lp746
g249
aV*
ag250
asg110
Vhttp://www.reddit.com/r/worldnews/comments/fkish/mubarak_used_the_18_days_to_transfer_up_to_60/
p747
stRp748
ag1
(g2
g3
(dp749
S'summary_detail'
p750
g1
(g2
g3
(dp751
g9
S'http://www.reddit.com/.rss?feed=42a611421f40a232c1c9635e3141aced337fba7d&user=frozencemetery'
p752
sg11
S'text/html'
p753
sg13
Nsg14
Vsubmitted by <a href="http://www.reddit.com/user/waggawagga"> waggawagga </a> to <a href="http://www.reddit.com/r/worldnews/"> worldnews</a> <br /> <a href="http://www.belfasttelegraph.co.uk/news/local-national/republic-of-ireland/u2s-bono-in-new-racism-row-over-hate-song-15083133.html">[link]</a> <a href="http://www.reddit.com/r/worldnews/comments/fl0m7/u2s_bono_in_new_racism_row/">[comment]</a>
p754
stRp755
sg90
g91
((I2011
I2
I14
I8
I13
I51
I0
I45
I0
t(dtRp756
sg18
(lp757
g1
(g2
g3
(dp758
g21
Vhttp://www.reddit.com/r/worldnews/comments/fl0m7/u2s_bono_in_new_racism_row/
p759
sg11
g23
sg24
g25
stRp760
asg29
VU2's Bono in new racism row
p761
sg98
VMon, 14 Feb 2011 08:13:51 +0000
p762
sg100
g754
sg101
I00
sS'title_detail'
p763
g1
(g2
g3
(dp764
g9
S'http://www.reddit.com/.rss?feed=42a611421f40a232c1c9635e3141aced337fba7d&user=frozencemetery'
p765
sg11
S'text/plain'
p766
sg13
Nsg14
g761
stRp767
sg30
g759
sg72
(lp768
g635
aV*
ag636
asg110
Vhttp://www.reddit.com/r/worldnews/comments/fl0m7/u2s_bono_in_new_racism_row/
p769
stRp770
ag1
(g2
g3
(dp771
S'summary_detail'
p772
g1
(g2
g3
(dp773
g9
S'http://www.reddit.com/.rss?feed=42a611421f40a232c1c9635e3141aced337fba7d&user=frozencemetery'
p774
sg11
S'text/html'
p775
sg13
Nsg14
Vsubmitted by <a href="http://www.reddit.com/user/SolInvictus"> SolInvictus </a> to <a href="http://www.reddit.com/r/worldnews/"> worldnews</a> <br /> <a href="http://www.globalpost.com/dispatch/middle-east/110213/yemen-police-protests-tasers">[link]</a> <a href="http://www.reddit.com/r/worldnews/comments/fkvyy/thousands_protest_in_yemen_security_forces_beat/">[comment]</a>
p776
stRp777
sg90
g91
((I2011
I2
I14
I3
I19
I30
I0
I45
I0
t(dtRp778
sg18
(lp779
g1
(g2
g3
(dp780
g21
Vhttp://www.reddit.com/r/worldnews/comments/fkvyy/thousands_protest_in_yemen_security_forces_beat/
p781
sg11
g23
sg24
g25
stRp782
asg29
VThousands protest in Yemen, security forces beat up demonstrators
p783
sg98
VMon, 14 Feb 2011 03:19:30 +0000
p784
sg100
g776
sg101
I00
sS'title_detail'
p785
g1
(g2
g3
(dp786
g9
S'http://www.reddit.com/.rss?feed=42a611421f40a232c1c9635e3141aced337fba7d&user=frozencemetery'
p787
sg11
S'text/plain'
p788
sg13
Nsg14
g783
stRp789
sg30
g781
sg72
(lp790
g567
aV*
ag568
asg110
Vhttp://www.reddit.com/r/worldnews/comments/fkvyy/thousands_protest_in_yemen_security_forces_beat/
p791
stRp792
ag1
(g2
g3
(dp793
S'summary_detail'
p794
g1
(g2
g3
(dp795
g9
S'http://www.reddit.com/.rss?feed=42a611421f40a232c1c9635e3141aced337fba7d&user=frozencemetery'
p796
sg11
S'text/html'
p797
sg13
Nsg14
Vsubmitted by <a href="http://www.reddit.com/user/maxwellhill"> maxwellhill </a> to <a href="http://www.reddit.com/r/worldnews/"> worldnews</a> <br /> <a href="http://www.commondreams.org/headline/2011/02/13-1">[link]</a> <a href="http://www.reddit.com/r/worldnews/comments/fkuxt/egypts_new_military_rulers_to_ban_unions_strikes/">[4 comments]</a>
p798
stRp799
sg90
g91
((I2011
I2
I14
I2
I18
I12
I0
I45
I0
t(dtRp800
sg18
(lp801
g1
(g2
g3
(dp802
g21
Vhttp://www.reddit.com/r/worldnews/comments/fkuxt/egypts_new_military_rulers_to_ban_unions_strikes/
p803
sg11
g23
sg24
g25
stRp804
asg29
VEgypt's New Military Rulers To Ban Unions, Strikes
p805
sg98
VSun, 13 Feb 2011 19:18:12 -0700
p806
sg100
g798
sg101
I00
sS'title_detail'
p807
g1
(g2
g3
(dp808
g9
S'http://www.reddit.com/.rss?feed=42a611421f40a232c1c9635e3141aced337fba7d&user=frozencemetery'
p809
sg11
S'text/plain'
p810
sg13
Nsg14
g805
stRp811
sg30
g803
sg72
(lp812
g567
aV*
ag568
asg110
Vhttp://www.reddit.com/r/worldnews/comments/fkuxt/egypts_new_military_rulers_to_ban_unions_strikes/
p813
stRp814
ag1
(g2
g3
(dp815
S'summary_detail'
p816
g1
(g2
g3
(dp817
g9
S'http://www.reddit.com/.rss?feed=42a611421f40a232c1c9635e3141aced337fba7d&user=frozencemetery'
p818
sg11
S'text/html'
p819
sg13
Nsg14
Vsubmitted by <a href="http://www.reddit.com/user/Shakshuka"> Shakshuka </a> to <a href="http://www.reddit.com/r/worldnews/"> worldnews</a> <br /> <a href="http://www.haaretz.com/print-edition/news/egypt-s-thirst-for-freedom-has-intensified-even-after-mubarak-s-exit-1.343238">[link]</a> <a href="http://www.reddit.com/r/worldnews/comments/fkz87/egypts_thirst_for_freedom_has_intensified_even/">[2 comments]</a>
p820
stRp821
sg90
g91
((I2011
I2
I14
I6
I38
I18
I0
I45
I0
t(dtRp822
sg18
(lp823
g1
(g2
g3
(dp824
g21
Vhttp://www.reddit.com/r/worldnews/comments/fkz87/egypts_thirst_for_freedom_has_intensified_even/
p825
sg11
g23
sg24
g25
stRp826
asg29
VEgypt's thirst for freedom has intensified, even after Mubarak's exit
p827
sg98
VMon, 14 Feb 2011 06:38:18 +0000
p828
sg100
g820
sg101
I00
sS'title_detail'
p829
g1
(g2
g3
(dp830
g9
S'http://www.reddit.com/.rss?feed=42a611421f40a232c1c9635e3141aced337fba7d&user=frozencemetery'
p831
sg11
S'text/plain'
p832
sg13
Nsg14
g827
stRp833
sg30
g825
sg72
(lp834
g635
aV*
ag636
asg110
Vhttp://www.reddit.com/r/worldnews/comments/fkz87/egypts_thirst_for_freedom_has_intensified_even/
p835
stRp836
ag1
(g2
g3
(dp837
S'summary_detail'
p838
g1
(g2
g3
(dp839
g9
S'http://www.reddit.com/.rss?feed=42a611421f40a232c1c9635e3141aced337fba7d&user=frozencemetery'
p840
sg11
S'text/html'
p841
sg13
Nsg14
Vsubmitted by <a href="http://www.reddit.com/user/DrRichardCranium"> DrRichardCranium </a> to <a href="http://www.reddit.com/r/worldnews/"> worldnews</a> <br /> <a href="http://www.guardian.co.uk/uk/2011/feb/06/sex-traffick-romania-britain?cat=uk&type=article">[link]</a> <a href="http://www.reddit.com/r/worldnews/comments/fkkmf/sex_trafficking_in_the_uk_powerful_crime/">[59 comments]</a>
p842
stRp843
sg90
g91
((I2011
I2
I13
I15
I34
I42
I6
I44
I0
t(dtRp844
sg18
(lp845
g1
(g2
g3
(dp846
g21
Vhttp://www.reddit.com/r/worldnews/comments/fkkmf/sex_trafficking_in_the_uk_powerful_crime/
p847
sg11
g23
sg24
g25
stRp848
asg29
VSex trafficking in the UK - Powerful crime investigation told through story of Romanian's abduction and violent imprisonment as prostitute in Manchester. Raped by different men 50 times a week. Hers is just one story; up to 5,000 others still to be told
p849
sg98
VSun, 13 Feb 2011 08:34:42 -0700
p850
sg100
g842
sg101
I00
sS'title_detail'
p851
g1
(g2
g3
(dp852
g9
S'http://www.reddit.com/.rss?feed=42a611421f40a232c1c9635e3141aced337fba7d&user=frozencemetery'
p853
sg11
S'text/plain'
p854
sg13
Nsg14
g849
stRp855
sg30
g847
sg72
(lp856
g249
aV*
ag250
asg110
Vhttp://www.reddit.com/r/worldnews/comments/fkkmf/sex_trafficking_in_the_uk_powerful_crime/
p857
stRp858
ag1
(g2
g3
(dp859
S'summary_detail'
p860
g1
(g2
g3
(dp861
g9
S'http://www.reddit.com/.rss?feed=42a611421f40a232c1c9635e3141aced337fba7d&user=frozencemetery'
p862
sg11
S'text/html'
p863
sg13
Nsg14
Vsubmitted by <a href="http://www.reddit.com/user/makanguru"> makanguru </a> to <a href="http://www.reddit.com/r/worldnews/"> worldnews</a> <br /> <a href="http://www.bbc.co.uk/news/world-south-asia-12446865">[link]</a> <a href="http://www.reddit.com/r/worldnews/comments/fl21m/afghanistan_suicide_blast_hits_afghan_capital/">[comment]</a>
p864
stRp865
sg90
g91
((I2011
I2
I14
I10
I16
I53
I0
I45
I0
t(dtRp866
sg18
(lp867
g1
(g2
g3
(dp868
g21
Vhttp://www.reddit.com/r/worldnews/comments/fl21m/afghanistan_suicide_blast_hits_afghan_capital/
p869
sg11
g23
sg24
g25
stRp870
asg29
VAfghanistan: 'Suicide blast' hits Afghan capital
p871
sg98
VMon, 14 Feb 2011 10:16:53 +0000
p872
sg100
g864
sg101
I00
sS'title_detail'
p873
g1
(g2
g3
(dp874
g9
S'http://www.reddit.com/.rss?feed=42a611421f40a232c1c9635e3141aced337fba7d&user=frozencemetery'
p875
sg11
S'text/plain'
p876
sg13
Nsg14
g871
stRp877
sg30
g869
sg72
(lp878
g635
aV*
ag636
asg110
Vhttp://www.reddit.com/r/worldnews/comments/fl21m/afghanistan_suicide_blast_hits_afghan_capital/
p879
stRp880
ag1
(g2
g3
(dp881
S'summary_detail'
p882
g1
(g2
g3
(dp883
g9
S'http://www.reddit.com/.rss?feed=42a611421f40a232c1c9635e3141aced337fba7d&user=frozencemetery'
p884
sg11
S'text/html'
p885
sg13
Nsg14
Vsubmitted by <a href="http://www.reddit.com/user/sorryDontUnderstand"> sorryDontUnderstand </a> to <a href="http://www.reddit.com/r/worldnews/"> worldnews</a> <br /> <a href="http://www.guardian.co.uk/uk/2011/feb/13/jihadi-train-7-7-bomber-freed">[link]</a> <a href="http://www.reddit.com/r/worldnews/comments/fkrih/jihadi_who_helped_train_77_bomber_freed_by_us/">[3 comments]</a>
p886
stRp887
sg90
g91
((I2011
I2
I13
I22
I49
I32
I6
I44
I0
t(dtRp888
sg18
(lp889
g1
(g2
g3
(dp890
g21
Vhttp://www.reddit.com/r/worldnews/comments/fkrih/jihadi_who_helped_train_77_bomber_freed_by_us/
p891
sg11
g23
sg24
g25
stRp892
asg29
VJihadi who helped train 7/7 bomber freed by US after just five years - Release prompts claim Islamist was US informant while assisting London terrorist
p893
sg98
VSun, 13 Feb 2011 22:49:32 +0000
p894
sg100
g886
sg101
I00
sS'title_detail'
p895
g1
(g2
g3
(dp896
g9
S'http://www.reddit.com/.rss?feed=42a611421f40a232c1c9635e3141aced337fba7d&user=frozencemetery'
p897
sg11
S'text/plain'
p898
sg13
Nsg14
g893
stRp899
sg30
g891
sg72
(lp900
g365
aV*
ag366
asg110
Vhttp://www.reddit.com/r/worldnews/comments/fkrih/jihadi_who_helped_train_77_bomber_freed_by_us/
p901
stRp902
ag1
(g2
g3
(dp903
S'summary_detail'
p904
g1
(g2
g3
(dp905
g9
S'http://www.reddit.com/.rss?feed=42a611421f40a232c1c9635e3141aced337fba7d&user=frozencemetery'
p906
sg11
S'text/html'
p907
sg13
Nsg14
Vsubmitted by <a href="http://www.reddit.com/user/davidreiss666"> davidreiss666 </a> to <a href="http://www.reddit.com/r/worldnews/"> worldnews</a> <br /> <a href="http://www.bbc.co.uk/news/world-asia-pacific-12444777">[link]</a> <a href="http://www.reddit.com/r/worldnews/comments/fkqs2/burma_media_warns_of_tragic_end_for_aung_san_suu/">[5 comments]</a>
p908
stRp909
sg90
g91
((I2011
I2
I13
I22
I5
I44
I6
I44
I0
t(dtRp910
sg18
(lp911
g1
(g2
g3
(dp912
g21
Vhttp://www.reddit.com/r/worldnews/comments/fkqs2/burma_media_warns_of_tragic_end_for_aung_san_suu/
p913
sg11
g23
sg24
g25
stRp914
asg29
VBurma media warns of 'tragic end' for Aung San Suu Kyi: Burma's state media have published their first direct criticism of the democracy leader Aung San Suu Kyi since her release from house arrest.
p915
sg98
VSun, 13 Feb 2011 22:05:44 +0000
p916
sg100
g908
sg101
I00
sS'title_detail'
p917
g1
(g2
g3
(dp918
g9
S'http://www.reddit.com/.rss?feed=42a611421f40a232c1c9635e3141aced337fba7d&user=frozencemetery'
p919
sg11
S'text/plain'
p920
sg13
Nsg14
g915
stRp921
sg30
g913
sg72
(lp922
g341
aV*
ag342
asg110
Vhttp://www.reddit.com/r/worldnews/comments/fkqs2/burma_media_warns_of_tragic_end_for_aung_san_suu/
p923
stRp924
ag1
(g2
g3
(dp925
S'summary_detail'
p926
g1
(g2
g3
(dp927
g9
S'http://www.reddit.com/.rss?feed=42a611421f40a232c1c9635e3141aced337fba7d&user=frozencemetery'
p928
sg11
S'text/html'
p929
sg13
Nsg14
Vsubmitted by <a href="http://www.reddit.com/user/iuliusg"> iuliusg </a> to <a href="http://www.reddit.com/r/worldnews/"> worldnews</a> <br /> <a href="http://www.bbc.co.uk/news/world-middle-east-12445001">[link]</a> <a href="http://www.reddit.com/r/worldnews/comments/fkxm8/palestinian_cabinet_to_resign_as_part_of_reshuffle/">[comment]</a>
p930
stRp931
sg90
g91
((I2011
I2
I14
I5
I6
I1
I0
I45
I0
t(dtRp932
sg18
(lp933
g1
(g2
g3
(dp934
g21
Vhttp://www.reddit.com/r/worldnews/comments/fkxm8/palestinian_cabinet_to_resign_as_part_of_reshuffle/
p935
sg11
g23
sg24
g25
stRp936
asg29
VPalestinian cabinet 'to resign as part of reshuffle'
p937
sg98
VMon, 14 Feb 2011 05:06:01 +0000
p938
sg100
g930
sg101
I00
sS'title_detail'
p939
g1
(g2
g3
(dp940
g9
S'http://www.reddit.com/.rss?feed=42a611421f40a232c1c9635e3141aced337fba7d&user=frozencemetery'
p941
sg11
S'text/plain'
p942
sg13
Nsg14
g937
stRp943
sg30
g935
sg72
(lp944
g203
aV*
ag204
asg110
Vhttp://www.reddit.com/r/worldnews/comments/fkxm8/palestinian_cabinet_to_resign_as_part_of_reshuffle/
p945
stRp946
ag1
(g2
g3
(dp947
S'summary_detail'
p948
g1
(g2
g3
(dp949
g9
S'http://www.reddit.com/.rss?feed=42a611421f40a232c1c9635e3141aced337fba7d&user=frozencemetery'
p950
sg11
S'text/html'
p951
sg13
Nsg14
Vsubmitted by <a href="http://www.reddit.com/user/MickeyMao"> MickeyMao </a> to <a href="http://www.reddit.com/r/worldnews/"> worldnews</a> <br /> <a href="http://www.npr.org/2011/02/13/133494531/chinas-go-to-typical-american-guy">[link]</a> <a href="http://www.reddit.com/r/worldnews/comments/fkj61/chinese_stereotypes_of_westerners_americans_are/">[115 comments]</a>
p952
stRp953
sg90
g91
((I2011
I2
I13
I13
I7
I54
I6
I44
I0
t(dtRp954
sg18
(lp955
g1
(g2
g3
(dp956
g21
Vhttp://www.reddit.com/r/worldnews/comments/fkj61/chinese_stereotypes_of_westerners_americans_are/
p957
sg11
g23
sg24
g25
stRp958
asg29
VChinese Stereotypes of Westerners: "Americans are stereotyped as the good guy, the evil characters are French and English, and the dumb characters are German."
p959
sg98
VSun, 13 Feb 2011 13:07:54 +0000
p960
sg100
g952
sg101
I00
sS'title_detail'
p961
g1
(g2
g3
(dp962
g9
S'http://www.reddit.com/.rss?feed=42a611421f40a232c1c9635e3141aced337fba7d&user=frozencemetery'
p963
sg11
S'text/plain'
p964
sg13
Nsg14
g959
stRp965
sg30
g957
sg72
(lp966
g249
aV*
ag250
asg110
Vhttp://www.reddit.com/r/worldnews/comments/fkj61/chinese_stereotypes_of_westerners_americans_are/
p967
stRp968
ag1
(g2
g3
(dp969
S'summary_detail'
p970
g1
(g2
g3
(dp971
g9
S'http://www.reddit.com/.rss?feed=42a611421f40a232c1c9635e3141aced337fba7d&user=frozencemetery'
p972
sg11
S'text/html'
p973
sg13
Nsg14
Vsubmitted by <a href="http://www.reddit.com/user/Shakshuka"> Shakshuka </a> to <a href="http://www.reddit.com/r/worldnews/"> worldnews</a> <br /> <a href="http://www.haaretz.com/news/international/iraq-man-dies-of-self-immolation-to-protest-rising-unemployment-1.343162">[link]</a> <a href="http://www.reddit.com/r/worldnews/comments/fknf9/iraq_man_dies_of_selfimmolation_to_protest_rising/">[18 comments]</a>
p974
stRp975
sg90
g91
((I2011
I2
I13
I18
I44
I55
I6
I44
I0
t(dtRp976
sg18
(lp977
g1
(g2
g3
(dp978
g21
Vhttp://www.reddit.com/r/worldnews/comments/fknf9/iraq_man_dies_of_selfimmolation_to_protest_rising/
p979
sg11
g23
sg24
g25
stRp980
asg29
VIraq man dies of self-immolation to protest rising unemployment
p981
sg98
VSun, 13 Feb 2011 18:44:55 +0000
p982
sg100
g974
sg101
I00
sS'title_detail'
p983
g1
(g2
g3
(dp984
g9
S'http://www.reddit.com/.rss?feed=42a611421f40a232c1c9635e3141aced337fba7d&user=frozencemetery'
p985
sg11
S'text/plain'
p986
sg13
Nsg14
g981
stRp987
sg30
g979
sg72
(lp988
g295
aV*
ag296
asg110
Vhttp://www.reddit.com/r/worldnews/comments/fknf9/iraq_man_dies_of_selfimmolation_to_protest_rising/
p989
stRp990
ag1
(g2
g3
(dp991
S'summary_detail'
p992
g1
(g2
g3
(dp993
g9
S'http://www.reddit.com/.rss?feed=42a611421f40a232c1c9635e3141aced337fba7d&user=frozencemetery'
p994
sg11
S'text/html'
p995
sg13
Nsg14
Vsubmitted by <a href="http://www.reddit.com/user/jewiscool"> jewiscool </a> to <a href="http://www.reddit.com/r/worldnews/"> worldnews</a> <br /> <a href="http://www.cbsnews.com/video/watch/?id=7346812n&tag=contentMain;cbsCarousel">[link]</a> <a href="http://www.reddit.com/r/worldnews/comments/fl03b/egypt_wael_ghonim_60_minutes_interview/">[comment]</a>
p996
stRp997
sg90
g91
((I2011
I2
I14
I7
I34
I12
I0
I45
I0
t(dtRp998
sg18
(lp999
g1
(g2
g3
(dp1000
g21
Vhttp://www.reddit.com/r/worldnews/comments/fl03b/egypt_wael_ghonim_60_minutes_interview/
p1001
sg11
g23
sg24
g25
stRp1002
asg29
VEgypt: Wael Ghonim 60 Minutes interview
p1003
sg98
VMon, 14 Feb 2011 07:34:12 +0000
p1004
sg100
g996
sg101
I00
sS'title_detail'
p1005
g1
(g2
g3
(dp1006
g9
S'http://www.reddit.com/.rss?feed=42a611421f40a232c1c9635e3141aced337fba7d&user=frozencemetery'
p1007
sg11
S'text/plain'
p1008
sg13
Nsg14
g1003
stRp1009
sg30
g1001
sg72
(lp1010
g635
aV*
ag636
asg110
Vhttp://www.reddit.com/r/worldnews/comments/fl03b/egypt_wael_ghonim_60_minutes_interview/
p1011
stRp1012
ag1
(g2
g3
(dp1013
S'summary_detail'
p1014
g1
(g2
g3
(dp1015
g9
S'http://www.reddit.com/.rss?feed=42a611421f40a232c1c9635e3141aced337fba7d&user=frozencemetery'
p1016
sg11
S'text/html'
p1017
sg13
Nsg14
Vsubmitted by <a href="http://www.reddit.com/user/thebestgod"> thebestgod </a> to <a href="http://www.reddit.com/r/worldnews/"> worldnews</a> <br /> <a href="http://earthquake.usgs.gov/earthquakes/recenteqsww/Quakes/usb0001dqf.html">[link]</a> <a href="http://www.reddit.com/r/worldnews/comments/fl17k/66_earthquake_in_chile/">[1 comment]</a>
p1018
stRp1019
sg90
g91
((I2011
I2
I14
I9
I1
I57
I0
I45
I0
t(dtRp1020
sg18
(lp1021
g1
(g2
g3
(dp1022
g21
Vhttp://www.reddit.com/r/worldnews/comments/fl17k/66_earthquake_in_chile/
p1023
sg11
g23
sg24
g25
stRp1024
asg29
V6.6 earthquake in Chile
p1025
sg98
VMon, 14 Feb 2011 09:01:57 +0000
p1026
sg100
g1018
sg101
I00
sS'title_detail'
p1027
g1
(g2
g3
(dp1028
g9
S'http://www.reddit.com/.rss?feed=42a611421f40a232c1c9635e3141aced337fba7d&user=frozencemetery'
p1029
sg11
S'text/plain'
p1030
sg13
Nsg14
g1025
stRp1031
sg30
g1023
sg72
(lp1032
g635
aV*
ag636
asg110
Vhttp://www.reddit.com/r/worldnews/comments/fl17k/66_earthquake_in_chile/
p1033
stRp1034
ag1
(g2
g3
(dp1035
S'summary_detail'
p1036
g1
(g2
g3
(dp1037
g9
S'http://www.reddit.com/.rss?feed=42a611421f40a232c1c9635e3141aced337fba7d&user=frozencemetery'
p1038
sg11
S'text/html'
p1039
sg13
Nsg14
Vsubmitted by <a href="http://www.reddit.com/user/recreational"> recreational </a> to <a href="http://www.reddit.com/r/worldnews/"> worldnews</a> <br /> <a href="http://www.economist.com/blogs/lexington/2011/02/america_and_arabs">[link]</a> <a href="http://www.reddit.com/r/worldnews/comments/fkq40/by_far_the_strongest_of_the_ideas_currently_on/">[10 comments]</a>
p1040
stRp1041
sg90
g91
((I2011
I2
I13
I21
I25
I25
I6
I44
I0
t(dtRp1042
sg18
(lp1043
g1
(g2
g3
(dp1044
g21
Vhttp://www.reddit.com/r/worldnews/comments/fkq40/by_far_the_strongest_of_the_ideas_currently_on/
p1045
sg11
g23
sg24
g25
stRp1046
asg29
VBy far the strongest of the ideas currently on offer\u2014and the one for which most Egyptians seemed to be clamouring these past few weeks\u2014 is liberal democracy. for all its many missteps of the past two decades, America is remarkably well placed to win the war of ideas in the Middle East.
p1047
sg98
VSun, 13 Feb 2011 21:25:25 +0000
p1048
sg100
g1040
sg101
I00
sS'title_detail'
p1049
g1
(g2
g3
(dp1050
g9
S'http://www.reddit.com/.rss?feed=42a611421f40a232c1c9635e3141aced337fba7d&user=frozencemetery'
p1051
sg11
S'text/plain'
p1052
sg13
Nsg14
g1047
stRp1053
sg30
g1045
sg72
(lp1054
g365
aV*
ag366
asg110
Vhttp://www.reddit.com/r/worldnews/comments/fkq40/by_far_the_strongest_of_the_ideas_currently_on/
p1055
stRp1056
ag1
(g2
g3
(dp1057
S'summary_detail'
p1058
g1
(g2
g3
(dp1059
g9
S'http://www.reddit.com/.rss?feed=42a611421f40a232c1c9635e3141aced337fba7d&user=frozencemetery'
p1060
sg11
S'text/html'
p1061
sg13
Nsg14
Vsubmitted by <a href="http://www.reddit.com/user/thailand1972"> thailand1972 </a> to <a href="http://www.reddit.com/r/worldnews/"> worldnews</a> <br /> <a href="http://www.bbc.co.uk/news/world-europe-12445008">[link]</a> <a href="http://www.reddit.com/r/worldnews/comments/fl10i/tunisia_system_collapsing_current_government/">[comment]</a>
p1062
stRp1063
sg90
g91
((I2011
I2
I14
I8
I45
I59
I0
I45
I0
t(dtRp1064
sg18
(lp1065
g1
(g2
g3
(dp1066
g21
Vhttp://www.reddit.com/r/worldnews/comments/fl10i/tunisia_system_collapsing_current_government/
p1067
sg11
g23
sg24
g25
stRp1068
asg29
VTunisia system "collapsing", current government rejects Italian call to send immigration police
p1069
sg98
VMon, 14 Feb 2011 08:45:59 +0000
p1070
sg100
g1062
sg101
I00
sS'title_detail'
p1071
g1
(g2
g3
(dp1072
g9
S'http://www.reddit.com/.rss?feed=42a611421f40a232c1c9635e3141aced337fba7d&user=frozencemetery'
p1073
sg11
S'text/plain'
p1074
sg13
Nsg14
g1069
stRp1075
sg30
g1067
sg72
(lp1076
g635
aV*
ag636
asg110
Vhttp://www.reddit.com/r/worldnews/comments/fl10i/tunisia_system_collapsing_current_government/
p1077
stRp1078
ag1
(g2
g3
(dp1079
S'summary_detail'
p1080
g1
(g2
g3
(dp1081
g9
S'http://www.reddit.com/.rss?feed=42a611421f40a232c1c9635e3141aced337fba7d&user=frozencemetery'
p1082
sg11
S'text/html'
p1083
sg13
Nsg14
Vsubmitted by <a href="http://www.reddit.com/user/Shakshuka"> Shakshuka </a> to <a href="http://www.reddit.com/r/worldnews/"> worldnews</a> <br /> <a href="http://www.haaretz.com/news/international/egypt-army-orders-last-protesters-to-leave-cairo-square-or-face-arrest-1.343321">[link]</a> <a href="http://www.reddit.com/r/worldnews/comments/fl0wj/egypt_army_orders_last_protesters_to_leave_cairo/">[comment]</a>
p1084
stRp1085
sg90
g91
((I2011
I2
I14
I8
I37
I4
I0
I45
I0
t(dtRp1086
sg18
(lp1087
g1
(g2
g3
(dp1088
g21
Vhttp://www.reddit.com/r/worldnews/comments/fl0wj/egypt_army_orders_last_protesters_to_leave_cairo/
p1089
sg11
g23
sg24
g25
stRp1090
asg29
VEgypt army orders last protesters to leave Cairo square or face arrest
p1091
sg98
VMon, 14 Feb 2011 08:37:04 +0000
p1092
sg100
g1084
sg101
I00
sS'title_detail'
p1093
g1
(g2
g3
(dp1094
g9
S'http://www.reddit.com/.rss?feed=42a611421f40a232c1c9635e3141aced337fba7d&user=frozencemetery'
p1095
sg11
S'text/plain'
p1096
sg13
Nsg14
g1091
stRp1097
sg30
g1089
sg72
(lp1098
Vreddit: the voice of the internet -- news before it happens
p1099
aV*
ag636
asg110
Vhttp://www.reddit.com/r/worldnews/comments/fl0wj/egypt_army_orders_last_protesters_to_leave_cairo/
p1100
stRp1101
ag1
(g2
g3
(dp1102
S'summary_detail'
p1103
g1
(g2
g3
(dp1104
g9
S'http://www.reddit.com/.rss?feed=42a611421f40a232c1c9635e3141aced337fba7d&user=frozencemetery'
p1105
sg11
S'text/html'
p1106
sg13
Nsg14
Vsubmitted by <a href="http://www.reddit.com/user/fitzroy95"> fitzroy95 </a> to <a href="http://www.reddit.com/r/worldnews/"> worldnews</a> <br /> <a href="http://www.jpost.com/MiddleEast/Article.aspx?id=208120&R=R3">[link]</a> <a href="http://www.reddit.com/r/worldnews/comments/fkzak/calls_for_reform_intensify_throughout_arab_world/">[comment]</a>
p1107
stRp1108
sg90
g91
((I2011
I2
I14
I6
I42
I7
I0
I45
I0
t(dtRp1109
sg18
(lp1110
g1
(g2
g3
(dp1111
g21
Vhttp://www.reddit.com/r/worldnews/comments/fkzak/calls_for_reform_intensify_throughout_arab_world/
p1112
sg11
g23
sg24
g25
stRp1113
asg29
VCalls for reform intensify throughout Arab world - in Yeman, Algeria, Iran, Jordan.
p1114
sg98
VMon, 14 Feb 2011 06:42:07 +0000
p1115
sg100
g1107
sg101
I00
sS'title_detail'
p1116
g1
(g2
g3
(dp1117
g9
S'http://www.reddit.com/.rss?feed=42a611421f40a232c1c9635e3141aced337fba7d&user=frozencemetery'
p1118
sg11
S'text/plain'
p1119
sg13
Nsg14
g1114
stRp1120
sg30
g1112
sg72
(lp1121
g1099
aV*
ag636
asg110
Vhttp://www.reddit.com/r/worldnews/comments/fkzak/calls_for_reform_intensify_throughout_arab_world/
p1122
stRp1123
ag1
(g2
g3
(dp1124
S'summary_detail'
p1125
g1
(g2
g3
(dp1126
g9
S'http://www.reddit.com/.rss?feed=42a611421f40a232c1c9635e3141aced337fba7d&user=frozencemetery'
p1127
sg11
S'text/html'
p1128
sg13
Nsg14
Vsubmitted by <a href="http://www.reddit.com/user/dreams16"> dreams16 </a> to <a href="http://www.reddit.com/r/worldnews/"> worldnews</a> <br /> <a href="http://news.yahoo.com/s/ap/20110214/ap_on_re_as/as_malaysia_tiger_attack_2">[link]</a> <a href="http://www.reddit.com/r/worldnews/comments/fkxpo/malaysian_beats_tiger_away_to_save_wounded_husband/">[comment]</a>
p1129
stRp1130
sg90
g91
((I2011
I2
I14
I5
I11
I9
I0
I45
I0
t(dtRp1131
sg18
(lp1132
g1
(g2
g3
(dp1133
g21
Vhttp://www.reddit.com/r/worldnews/comments/fkxpo/malaysian_beats_tiger_away_to_save_wounded_husband/
p1134
sg11
g23
sg24
g25
stRp1135
asg29
VMalaysian beats tiger away to save wounded husband
p1136
sg98
VMon, 14 Feb 2011 05:11:09 +0000
p1137
sg100
g1129
sg101
I00
sS'title_detail'
p1138
g1
(g2
g3
(dp1139
g9
S'http://www.reddit.com/.rss?feed=42a611421f40a232c1c9635e3141aced337fba7d&user=frozencemetery'
p1140
sg11
S'text/plain'
p1141
sg13
Nsg14
g1136
stRp1142
sg30
g1134
sg72
(lp1143
Vreddit: the voice of the internet -- news before it happens
p1144
aV*
aS'read'
p1145
asg110
Vhttp://www.reddit.com/r/worldnews/comments/fkxpo/malaysian_beats_tiger_away_to_save_wounded_husband/
p1146
stRp1147
ag1
(g2
g3
(dp1148
S'summary_detail'
p1149
g1
(g2
g3
(dp1150
g9
S'http://www.reddit.com/.rss?feed=42a611421f40a232c1c9635e3141aced337fba7d&user=frozencemetery'
p1151
sg11
S'text/html'
p1152
sg13
Nsg14
Vsubmitted by <a href="http://www.reddit.com/user/ajehals"> ajehals </a> to <a href="http://www.reddit.com/r/worldnews/"> worldnews</a> <br /> <a href="http://www.kuwaittimes.net/read_news.php?newsid=MTEyNjQ5ODU5MA==">[link]</a> <a href="http://www.reddit.com/r/worldnews/comments/fkwv6/kuwaiti_officially_requests_gitmo_detainees/">[comment]</a>
p1153
stRp1154
sg90
g91
((I2011
I2
I14
I4
I9
I11
I0
I45
I0
t(dtRp1155
sg18
(lp1156
g1
(g2
g3
(dp1157
g21
Vhttp://www.reddit.com/r/worldnews/comments/fkwv6/kuwaiti_officially_requests_gitmo_detainees/
p1158
sg11
g23
sg24
g25
stRp1159
asg29
VKuwaiti officially requests Gitmo detainees' release
p1160
sg98
VMon, 14 Feb 2011 04:09:11 +0000
p1161
sg100
g1153
sg101
I00
sS'title_detail'
p1162
g1
(g2
g3
(dp1163
g9
S'http://www.reddit.com/.rss?feed=42a611421f40a232c1c9635e3141aced337fba7d&user=frozencemetery'
p1164
sg11
S'text/plain'
p1165
sg13
Nsg14
g1160
stRp1166
sg30
g1158
sg72
(lp1167
g203
aV*
ag204
asg110
Vhttp://www.reddit.com/r/worldnews/comments/fkwv6/kuwaiti_officially_requests_gitmo_detainees/
p1168
stRp1169
ag1
(g2
g3
(dp1170
S'summary_detail'
p1171
g1
(g2
g3
(dp1172
g9
S'http://www.reddit.com/.rss?feed=42a611421f40a232c1c9635e3141aced337fba7d&user=frozencemetery'
p1173
sg11
S'text/html'
p1174
sg13
Nsg14
Vsubmitted by <a href="http://www.reddit.com/user/Ziolent"> Ziolent </a> to <a href="http://www.reddit.com/r/worldnews/"> worldnews</a> <br /> <a href="http://edition.cnn.com/2011/WORLD/meast/02/13/yemen.protests/index.html">[link]</a> <a href="http://www.reddit.com/r/worldnews/comments/fkwsm/yemen_is_next_in_line_as_riots_break_out_today/">[1 comment]</a>
p1175
stRp1176
sg90
g91
((I2011
I2
I14
I4
I5
I32
I0
I45
I0
t(dtRp1177
sg18
(lp1178
g1
(g2
g3
(dp1179
g21
Vhttp://www.reddit.com/r/worldnews/comments/fkwsm/yemen_is_next_in_line_as_riots_break_out_today/
p1180
sg11
g23
sg24
g25
stRp1181
asg29
VYemen is next in line as riots break out today against President Ali Abdullah Saleh's government.
p1182
sg98
VMon, 14 Feb 2011 04:05:32 +0000
p1183
sg100
g1175
sg101
I00
sS'title_detail'
p1184
g1
(g2
g3
(dp1185
g9
S'http://www.reddit.com/.rss?feed=42a611421f40a232c1c9635e3141aced337fba7d&user=frozencemetery'
p1186
sg11
S'text/plain'
p1187
sg13
Nsg14
g1182
stRp1188
sg30
g1180
sg72
(lp1189
g203
aV*
ag204
asg110
Vhttp://www.reddit.com/r/worldnews/comments/fkwsm/yemen_is_next_in_line_as_riots_break_out_today/
p1190
stRp1191
ag1
(g2
g3
(dp1192
S'summary_detail'
p1193
g1
(g2
g3
(dp1194
g9
S'http://www.reddit.com/.rss?feed=42a611421f40a232c1c9635e3141aced337fba7d&user=frozencemetery'
p1195
sg11
S'text/html'
p1196
sg13
Nsg14
Vsubmitted by <a href="http://www.reddit.com/user/GaiusPublius"> GaiusPublius </a> to <a href="http://www.reddit.com/r/worldnews/"> worldnews</a> <br /> <a href="http://www.americablog.com/2011/02/wsj-how-egyptian-protesters-fooled.html">[link]</a> <a href="http://www.reddit.com/r/worldnews/comments/fklw3/how_the_egyptian_protesters_fooled_the_police/">[14 comments]</a>
p1197
stRp1198
sg90
g91
((I2011
I2
I13
I17
I7
I21
I6
I44
I0
t(dtRp1199
sg18
(lp1200
g1
(g2
g3
(dp1201
g21
Vhttp://www.reddit.com/r/worldnews/comments/fklw3/how_the_egyptian_protesters_fooled_the_police/
p1202
sg11
g23
sg24
g25
stRp1203
asg29
VHow the Egyptian protesters fooled the police. Twenty January 25 protests were announced via the Internet, but twenty-one were planned. The announced 20 were prevented from reaching Tahrir Square by riot police. The secret 21st protest succeeded.
p1204
sg98
VSun, 13 Feb 2011 17:07:21 +0000
p1205
sg100
g1197
sg101
I00
sS'title_detail'
p1206
g1
(g2
g3
(dp1207
g9
S'http://www.reddit.com/.rss?feed=42a611421f40a232c1c9635e3141aced337fba7d&user=frozencemetery'
p1208
sg11
S'text/plain'
p1209
sg13
Nsg14
g1204
stRp1210
sg30
g1202
sg72
(lp1211
Vreddit: the voice of the internet -- news before it happens
p1212
aV*
aS'read'
p1213
asg110
Vhttp://www.reddit.com/r/worldnews/comments/fklw3/how_the_egyptian_protesters_fooled_the_police/
p1214
stRp1215
ag1
(g2
g3
(dp1216
S'summary_detail'
p1217
g1
(g2
g3
(dp1218
g9
S'http://www.reddit.com/.rss?feed=42a611421f40a232c1c9635e3141aced337fba7d&user=frozencemetery'
p1219
sg11
S'text/html'
p1220
sg13
Nsg14
Vsubmitted by <a href="http://www.reddit.com/user/davidreiss666"> davidreiss666 </a> to <a href="http://www.reddit.com/r/worldnews/"> worldnews</a> <br /> <a href="http://english.aljazeera.net/news/middleeast/2011/02/2011213185556388117.html">[link]</a> <a href="http://www.reddit.com/r/worldnews/comments/fkusv/bahrain_opposition_calls_for_rally_opposition/">[comment]</a>
p1221
stRp1222
sg90
g91
((I2011
I2
I14
I2
I9
I39
I0
I45
I0
t(dtRp1223
sg18
(lp1224
g1
(g2
g3
(dp1225
g21
Vhttp://www.reddit.com/r/worldnews/comments/fkusv/bahrain_opposition_calls_for_rally_opposition/
p1226
sg11
g23
sg24
g25
stRp1227
asg29
VBahrain opposition calls for rally: Opposition groups call for protests on Monday against the government as security forces take measures to quell unrest.
p1228
sg98
VMon, 14 Feb 2011 02:09:39 +0000
p1229
sg100
g1221
sg101
I00
sS'title_detail'
p1230
g1
(g2
g3
(dp1231
g9
S'http://www.reddit.com/.rss?feed=42a611421f40a232c1c9635e3141aced337fba7d&user=frozencemetery'
p1232
sg11
S'text/plain'
p1233
sg13
Nsg14
g1228
stRp1234
sg30
g1226
sg72
(lp1235
g567
aV*
ag568
asg110
Vhttp://www.reddit.com/r/worldnews/comments/fkusv/bahrain_opposition_calls_for_rally_opposition/
p1236
stRp1237
ag1
(g2
g3
(dp1238
S'summary_detail'
p1239
g1
(g2
g3
(dp1240
g9
S'http://www.reddit.com/.rss?feed=42a611421f40a232c1c9635e3141aced337fba7d&user=frozencemetery'
p1241
sg11
S'text/html'
p1242
sg13
Nsg14
Vsubmitted by <a href="http://www.reddit.com/user/koavf"> koavf </a> to <a href="http://www.reddit.com/r/worldnews/"> worldnews</a> <br /> <a href="http://www.cnn.com/2011/WORLD/meast/02/13/egypt.new.protests/index.html">[link]</a> <a href="http://www.reddit.com/r/worldnews/comments/fkx24/egypts_new_government_on_sunday_ordered_banks/">[comment]</a>
p1243
stRp1244
sg90
g91
((I2011
I2
I14
I4
I21
I50
I0
I45
I0
t(dtRp1245
sg18
(lp1246
g1
(g2
g3
(dp1247
g21
Vhttp://www.reddit.com/r/worldnews/comments/fkx24/egypts_new_government_on_sunday_ordered_banks/
p1248
sg11
g23
sg24
g25
stRp1249
asg29
VEgypt's new government on Sunday ordered banks closed for the next two days after protests by National Bank workers apparently drove out the head of the institution.
p1250
sg98
VMon, 14 Feb 2011 04:21:50 +0000
p1251
sg100
g1243
sg101
I00
sS'title_detail'
p1252
g1
(g2
g3
(dp1253
g9
S'http://www.reddit.com/.rss?feed=42a611421f40a232c1c9635e3141aced337fba7d&user=frozencemetery'
p1254
sg11
S'text/plain'
p1255
sg13
Nsg14
g1250
stRp1256
sg30
g1248
sg72
(lp1257
Vreddit: the voice of the internet -- news before it happens
p1258
aV*
ag1145
asg110
Vhttp://www.reddit.com/r/worldnews/comments/fkx24/egypts_new_government_on_sunday_ordered_banks/
p1259
stRp1260
ag1
(g2
g3
(dp1261
S'summary_detail'
p1262
g1
(g2
g3
(dp1263
g9
S'http://www.reddit.com/.rss?feed=42a611421f40a232c1c9635e3141aced337fba7d&user=frozencemetery'
p1264
sg11
S'text/html'
p1265
sg13
Nsg14
Vsubmitted by <a href="http://www.reddit.com/user/fitzroy95"> fitzroy95 </a> to <a href="http://www.reddit.com/r/worldnews/"> worldnews</a> <br /> <a href="http://news.yahoo.com/s/nm/20110214/od_uk_nm/oukoe_uk_china_matchmaking">[link]</a> <a href="http://www.reddit.com/r/worldnews/comments/fkws9/finding_love_is_no_bed_of_roses_for_chinese_men/">[comment]</a>
p1266
stRp1267
sg90
g91
((I2011
I2
I14
I4
I5
I12
I0
I45
I0
t(dtRp1268
sg18
(lp1269
g1
(g2
g3
(dp1270
g21
Vhttp://www.reddit.com/r/worldnews/comments/fkws9/finding_love_is_no_bed_of_roses_for_chinese_men/
p1271
sg11
g23
sg24
g25
stRp1272
asg29
VFinding love is no bed of roses for Chinese men, with hectic work schedules, a major gender imbalance and nagging parents all making it a nightmare
p1273
sg98
VMon, 14 Feb 2011 04:05:12 +0000
p1274
sg100
g1266
sg101
I00
sS'title_detail'
p1275
g1
(g2
g3
(dp1276
g9
S'http://www.reddit.com/.rss?feed=42a611421f40a232c1c9635e3141aced337fba7d&user=frozencemetery'
p1277
sg11
S'text/plain'
p1278
sg13
Nsg14
g1273
stRp1279
sg30
g1271
sg72
(lp1280
g1258
aV*
ag1145
asg110
Vhttp://www.reddit.com/r/worldnews/comments/fkws9/finding_love_is_no_bed_of_roses_for_chinese_men/
p1281
stRp1282
ag1
(g2
g3
(dp1283
S'summary_detail'
p1284
g1
(g2
g3
(dp1285
g9
S'http://www.reddit.com/.rss?feed=42a611421f40a232c1c9635e3141aced337fba7d&user=frozencemetery'
p1286
sg11
S'text/html'
p1287
sg13
Nsg14
Vsubmitted by <a href="http://www.reddit.com/user/douchebag_investor"> douchebag_investor </a> to <a href="http://www.reddit.com/r/worldnews/"> worldnews</a> <br /> <a href="http://af.reuters.com/article/topNews/idAFJOE71D00X20110214?sp=true">[link]</a> <a href="http://www.reddit.com/r/worldnews/comments/fl171/gaddafi_tells_palestinians_revolt_against_israel/">[1 comment]</a>
p1288
stRp1289
sg90
g91
((I2011
I2
I14
I9
I0
I8
I0
I45
I0
t(dtRp1290
sg18
(lp1291
g1
(g2
g3
(dp1292
g21
Vhttp://www.reddit.com/r/worldnews/comments/fl171/gaddafi_tells_palestinians_revolt_against_israel/
p1293
sg11
g23
sg24
g25
stRp1294
asg29
VGaddafi tells Palestinians: revolt against Israel
p1295
sg98
VMon, 14 Feb 2011 09:00:08 +0000
p1296
sg100
g1288
sg101
I00
sS'title_detail'
p1297
g1
(g2
g3
(dp1298
g9
S'http://www.reddit.com/.rss?feed=42a611421f40a232c1c9635e3141aced337fba7d&user=frozencemetery'
p1299
sg11
S'text/plain'
p1300
sg13
Nsg14
g1295
stRp1301
sg30
g1293
sg72
(lp1302
g1099
aV*
ag636
asg110
Vhttp://www.reddit.com/r/worldnews/comments/fl171/gaddafi_tells_palestinians_revolt_against_israel/
p1303
stRp1304
ag1
(g2
g3
(dp1305
S'summary_detail'
p1306
g1
(g2
g3
(dp1307
g9
S'http://www.reddit.com/.rss?feed=42a611421f40a232c1c9635e3141aced337fba7d&user=frozencemetery'
p1308
sg11
S'text/html'
p1309
sg13
Nsg14
Vsubmitted by <a href="http://www.reddit.com/user/thecarchik"> thecarchik </a> to <a href="http://www.reddit.com/r/worldnews/"> worldnews</a> <br /> <a href="http://www.cnn.com/2011/WORLD/meast/02/14/west.bank.elections/">[link]</a> <a href="http://www.reddit.com/r/worldnews/comments/fl0vf/palestinian_authority_to_dismiss_cabinet/">[comment]</a>
p1310
stRp1311
sg90
g91
((I2011
I2
I14
I8
I35
I1
I0
I45
I0
t(dtRp1312
sg18
(lp1313
g1
(g2
g3
(dp1314
g21
Vhttp://www.reddit.com/r/worldnews/comments/fl0vf/palestinian_authority_to_dismiss_cabinet/
p1315
sg11
g23
sg24
g25
stRp1316
asg29
VPalestinian Authority to dismiss Cabinet
p1317
sg98
VMon, 14 Feb 2011 08:35:01 +0000
p1318
sg100
g1310
sg101
I00
sS'title_detail'
p1319
g1
(g2
g3
(dp1320
g9
S'http://www.reddit.com/.rss?feed=42a611421f40a232c1c9635e3141aced337fba7d&user=frozencemetery'
p1321
sg11
S'text/plain'
p1322
sg13
Nsg14
g1317
stRp1323
sg30
g1315
sg72
(lp1324
g1099
aV*
ag636
asg110
Vhttp://www.reddit.com/r/worldnews/comments/fl0vf/palestinian_authority_to_dismiss_cabinet/
p1325
stRp1326
ag1
(g2
g3
(dp1327
S'summary_detail'
p1328
g1
(g2
g3
(dp1329
g9
S'http://www.reddit.com/.rss?feed=42a611421f40a232c1c9635e3141aced337fba7d&user=frozencemetery'
p1330
sg11
S'text/html'
p1331
sg13
Nsg14
Vsubmitted by <a href="http://www.reddit.com/user/thecarchik"> thecarchik </a> to <a href="http://www.reddit.com/r/worldnews/"> worldnews</a> <br /> <a href="http://www.washingtonpost.com/wp-dyn/content/article/2011/02/13/AR2011021303583.html">[link]</a> <a href="http://www.reddit.com/r/worldnews/comments/fl0vb/egypts_generals_impose_martial_law/">[comment]</a>
p1332
stRp1333
sg90
g91
((I2011
I2
I14
I8
I34
I42
I0
I45
I0
t(dtRp1334
sg18
(lp1335
g1
(g2
g3
(dp1336
g21
Vhttp://www.reddit.com/r/worldnews/comments/fl0vb/egypts_generals_impose_martial_law/
p1337
sg11
g23
sg24
g25
stRp1338
asg29
VEgypt's generals impose martial law
p1339
sg98
VMon, 14 Feb 2011 08:34:42 +0000
p1340
sg100
g1332
sg101
I00
sS'title_detail'
p1341
g1
(g2
g3
(dp1342
g9
S'http://www.reddit.com/.rss?feed=42a611421f40a232c1c9635e3141aced337fba7d&user=frozencemetery'
p1343
sg11
S'text/plain'
p1344
sg13
Nsg14
g1339
stRp1345
sg30
g1337
sg72
(lp1346
g1099
aV*
ag636
asg110
Vhttp://www.reddit.com/r/worldnews/comments/fl0vb/egypts_generals_impose_martial_law/
p1347
stRp1348
ag1
(g2
g3
(dp1349
S'summary_detail'
p1350
g1
(g2
g3
(dp1351
g9
S'http://www.reddit.com/.rss?feed=42a611421f40a232c1c9635e3141aced337fba7d&user=frozencemetery'
p1352
sg11
S'text/html'
p1353
sg13
Nsg14
Vsubmitted by <a href="http://www.reddit.com/user/glparramatta"> glparramatta </a> to <a href="http://www.reddit.com/r/worldnews/"> worldnews</a> <br /> <a href="http://links.org.au/node/2161">[link]</a> <a href="http://www.reddit.com/r/worldnews/comments/fl0tp/sudans_communists_in_solidarity_with_egypts/">[comment]</a>
p1354
stRp1355
sg90
g91
((I2011
I2
I14
I8
I30
I58
I0
I45
I0
t(dtRp1356
sg18
(lp1357
g1
(g2
g3
(dp1358
g21
Vhttp://www.reddit.com/r/worldnews/comments/fl0tp/sudans_communists_in_solidarity_with_egypts/
p1359
sg11
g23
sg24
g25
stRp1360
asg29
VSudan's communists: `In solidarity with #Egypt's freedom fighters!'/\u062a\u0636\u0627\u0645\u0646\u0627\u064b \u0645\u0639 \u0627\u0644\u062b\u0648\u0631\u0629 \u0627\u0644\u0634\u0639\u0628\u064a\u0629 \u0641\u064a \u0645\u0635\u0631
p1361
sg98
VMon, 14 Feb 2011 08:30:58 +0000
p1362
sg100
g1354
sg101
I00
sS'title_detail'
p1363
g1
(g2
g3
(dp1364
g9
S'http://www.reddit.com/.rss?feed=42a611421f40a232c1c9635e3141aced337fba7d&user=frozencemetery'
p1365
sg11
S'text/plain'
p1366
sg13
Nsg14
g1361
stRp1367
sg30
g1359
sg72
(lp1368
g1099
aV*
ag636
asg110
Vhttp://www.reddit.com/r/worldnews/comments/fl0tp/sudans_communists_in_solidarity_with_egypts/
p1369
stRp1370
ag1
(g2
g3
(dp1371
S'summary_detail'
p1372
g1
(g2
g3
(dp1373
g9
S'http://www.reddit.com/.rss?feed=42a611421f40a232c1c9635e3141aced337fba7d&user=frozencemetery'
p1374
sg11
S'text/html'
p1375
sg13
Nsg14
Vsubmitted by <a href="http://www.reddit.com/user/ajehals"> ajehals </a> to <a href="http://www.reddit.com/r/worldnews/"> worldnews</a> <br /> <a href="http://234next.com/csp/cms/sites/Next/News/5677378-147/story.csp">[link]</a> <a href="http://www.reddit.com/r/worldnews/comments/fkylt/antigovernment_protests_persist_across_middle_east/">[comment]</a>
p1376
stRp1377
sg90
g91
((I2011
I2
I14
I5
I59
I52
I0
I45
I0
t(dtRp1378
sg18
(lp1379
g1
(g2
g3
(dp1380
g21
Vhttp://www.reddit.com/r/worldnews/comments/fkylt/antigovernment_protests_persist_across_middle_east/
p1381
sg11
g23
sg24
g25
stRp1382
asg29
VAnti-government protests persist across Middle East
p1383
sg98
VMon, 14 Feb 2011 05:59:52 +0000
p1384
sg100
g1376
sg101
I00
sS'title_detail'
p1385
g1
(g2
g3
(dp1386
g9
S'http://www.reddit.com/.rss?feed=42a611421f40a232c1c9635e3141aced337fba7d&user=frozencemetery'
p1387
sg11
S'text/plain'
p1388
sg13
Nsg14
g1383
stRp1389
sg30
g1381
sg72
(lp1390
g1144
aV*
ag1145
asg110
Vhttp://www.reddit.com/r/worldnews/comments/fkylt/antigovernment_protests_persist_across_middle_east/
p1391
stRp1392
ag1
(g2
g3
(dp1393
S'summary_detail'
p1394
g1
(g2
g3
(dp1395
g9
S'http://www.reddit.com/.rss?feed=42a611421f40a232c1c9635e3141aced337fba7d&user=frozencemetery'
p1396
sg11
S'text/html'
p1397
sg13
Nsg14
Vsubmitted by <a href="http://www.reddit.com/user/maxwellhill"> maxwellhill </a> to <a href="http://www.reddit.com/r/worldnews/"> worldnews</a> <br /> <a href="http://www.mcclatchydc.com/2011/02/11/108595/as-egypts-army-vows-democracy.html">[link]</a> <a href="http://www.reddit.com/r/worldnews/comments/fkusk/can_an_army_famous_for_abuse_really_install/">[3 comments]</a>
p1398
stRp1399
sg90
g91
((I2011
I2
I14
I2
I9
I14
I0
I45
I0
t(dtRp1400
sg18
(lp1401
g1
(g2
g3
(dp1402
g21
Vhttp://www.reddit.com/r/worldnews/comments/fkusk/can_an_army_famous_for_abuse_really_install/
p1403
sg11
g23
sg24
g25
stRp1404
asg29
VCan an army famous for abuse really install democracy?
p1405
sg98
VMon, 14 Feb 2011 02:09:14 +0000
p1406
sg100
g1398
sg101
I00
sS'title_detail'
p1407
g1
(g2
g3
(dp1408
g9
S'http://www.reddit.com/.rss?feed=42a611421f40a232c1c9635e3141aced337fba7d&user=frozencemetery'
p1409
sg11
S'text/plain'
p1410
sg13
Nsg14
g1405
stRp1411
sg30
g1403
sg72
(lp1412
g157
aV*
ag158
asg110
Vhttp://www.reddit.com/r/worldnews/comments/fkusk/can_an_army_famous_for_abuse_really_install/
p1413
stRp1414
ag1
(g2
g3
(dp1415
S'summary_detail'
p1416
g1
(g2
g3
(dp1417
g9
S'http://www.reddit.com/.rss?feed=42a611421f40a232c1c9635e3141aced337fba7d&user=frozencemetery'
p1418
sg11
S'text/html'
p1419
sg13
Nsg14
Vsubmitted by <a href="http://www.reddit.com/user/Moridin87"> Moridin87 </a> to <a href="http://www.reddit.com/r/worldnews/"> worldnews</a> <br /> <a href="http://english.aljazeera.net/video/middleeast/2011/02/2011213235027318750.html">[link]</a> <a href="http://www.reddit.com/r/worldnews/comments/fkvrn/tunisia_egypt_bring_it_ali_abdullah_saleh/">[comment]</a>
p1420
stRp1421
sg90
g91
((I2011
I2
I14
I3
I8
I12
I0
I45
I0
t(dtRp1422
sg18
(lp1423
g1
(g2
g3
(dp1424
g21
Vhttp://www.reddit.com/r/worldnews/comments/fkvrn/tunisia_egypt_bring_it_ali_abdullah_saleh/
p1425
sg11
g23
sg24
g25
stRp1426
asg29
VTunisia. Egypt. Bring it, Ali Abdullah Saleh.
p1427
sg98
VMon, 14 Feb 2011 03:08:12 +0000
p1428
sg100
g1420
sg101
I00
sS'title_detail'
p1429
g1
(g2
g3
(dp1430
g9
S'http://www.reddit.com/.rss?feed=42a611421f40a232c1c9635e3141aced337fba7d&user=frozencemetery'
p1431
sg11
S'text/plain'
p1432
sg13
Nsg14
g1427
stRp1433
sg30
g1425
sg72
(lp1434
Vreddit: the voice of the internet -- news before it happens
p1435
aV*
ag568
asg110
Vhttp://www.reddit.com/r/worldnews/comments/fkvrn/tunisia_egypt_bring_it_ali_abdullah_saleh/
p1436
stRp1437
ag1
(g2
g3
(dp1438
S'summary_detail'
p1439
g1
(g2
g3
(dp1440
g9
S'http://www.reddit.com/.rss?feed=42a611421f40a232c1c9635e3141aced337fba7d&user=frozencemetery'
p1441
sg11
S'text/html'
p1442
sg13
Nsg14
Vsubmitted by <a href="http://www.reddit.com/user/ajehals"> ajehals </a> to <a href="http://www.reddit.com/r/worldnews/"> worldnews</a> <br /> <a href="http://www.independent.co.uk/news/world/europe/swiss-stick-to-their-guns-in-weapons-vote-2213880.html">[link]</a> <a href="http://www.reddit.com/r/worldnews/comments/fkws2/swiss_stick_to_their_guns_in_weapons_vote/">[comment]</a>
p1443
stRp1444
sg90
g91
((I2011
I2
I14
I4
I4
I57
I0
I45
I0
t(dtRp1445
sg18
(lp1446
g1
(g2
g3
(dp1447
g21
Vhttp://www.reddit.com/r/worldnews/comments/fkws2/swiss_stick_to_their_guns_in_weapons_vote/
p1448
sg11
g23
sg24
g25
stRp1449
asg29
VSwiss stick to their guns in weapons vote
p1450
sg98
VMon, 14 Feb 2011 04:04:57 +0000
p1451
sg100
g1443
sg101
I00
sS'title_detail'
p1452
g1
(g2
g3
(dp1453
g9
S'http://www.reddit.com/.rss?feed=42a611421f40a232c1c9635e3141aced337fba7d&user=frozencemetery'
p1454
sg11
S'text/plain'
p1455
sg13
Nsg14
g1450
stRp1456
sg30
g1448
sg72
(lp1457
g1144
aV*
ag1145
asg110
Vhttp://www.reddit.com/r/worldnews/comments/fkws2/swiss_stick_to_their_guns_in_weapons_vote/
p1458
stRp1459
ag1
(g2
g3
(dp1460
S'summary_detail'
p1461
g1
(g2
g3
(dp1462
g9
S'http://www.reddit.com/.rss?feed=42a611421f40a232c1c9635e3141aced337fba7d&user=frozencemetery'
p1463
sg11
S'text/html'
p1464
sg13
Nsg14
Vsubmitted by <a href="http://www.reddit.com/user/DougBolivar"> DougBolivar </a> to <a href="http://www.reddit.com/r/worldnews/"> worldnews</a> <br /> <a href="http://www.juancole.com/2011/02/top-5-effects-of-egyptian-revolution.html">[link]</a> <a href="http://www.reddit.com/r/worldnews/comments/fl2uz/top_5_effects_of_egyptian_revolution_yemen/">[comment]</a>
p1465
stRp1466
sg90
g91
((I2011
I2
I14
I11
I34
I7
I0
I45
I0
t(dtRp1467
sg18
(lp1468
g1
(g2
g3
(dp1469
g21
Vhttp://www.reddit.com/r/worldnews/comments/fl2uz/top_5_effects_of_egyptian_revolution_yemen/
p1470
sg11
g23
sg24
g25
stRp1471
asg29
VTop 5 Effects of Egyptian Revolution: Yemen, Algeria, Palestine, Manama and Iran
p1472
sg98
VMon, 14 Feb 2011 11:34:07 +0000
p1473
sg100
g1465
sg101
I00
sS'title_detail'
p1474
g1
(g2
g3
(dp1475
g9
S'http://www.reddit.com/.rss?feed=42a611421f40a232c1c9635e3141aced337fba7d&user=frozencemetery'
p1476
sg11
S'text/plain'
p1477
sg13
Nsg14
g1472
stRp1478
sg30
g1470
sg72
(lp1479
g1099
aV*
ag636
asg110
Vhttp://www.reddit.com/r/worldnews/comments/fl2uz/top_5_effects_of_egyptian_revolution_yemen/
p1480
stRp1481
ag1
(g2
g3
(dp1482
S'summary_detail'
p1483
g1
(g2
g3
(dp1484
g9
S'http://www.reddit.com/.rss?feed=42a611421f40a232c1c9635e3141aced337fba7d&user=frozencemetery'
p1485
sg11
S'text/html'
p1486
sg13
Nsg14
Vsubmitted by <a href="http://www.reddit.com/user/jasmine84"> jasmine84 </a> to <a href="http://www.reddit.com/r/worldnews/"> worldnews</a> <br /> <a href="http://mobilejacker.com/atts-htc-freestyle-is-now-available-in-att-stores-and-online/">[link]</a> <a href="http://www.reddit.com/r/worldnews/comments/fl2uu/new_htc_freestyle_is_now_available_in_att_stores/">[comment]</a>
p1487
stRp1488
sg90
g91
((I2011
I2
I14
I11
I33
I51
I0
I45
I0
t(dtRp1489
sg18
(lp1490
g1
(g2
g3
(dp1491
g21
Vhttp://www.reddit.com/r/worldnews/comments/fl2uu/new_htc_freestyle_is_now_available_in_att_stores/
p1492
sg11
g23
sg24
g25
stRp1493
asg29
VNew HTC Freestyle is now available in AT&T stores and online, which is offering for price of $99.99 with a new 2-year contract
p1494
sg98
VMon, 14 Feb 2011 11:33:51 +0000
p1495
sg100
g1487
sg101
I00
sS'title_detail'
p1496
g1
(g2
g3
(dp1497
g9
S'http://www.reddit.com/.rss?feed=42a611421f40a232c1c9635e3141aced337fba7d&user=frozencemetery'
p1498
sg11
S'text/plain'
p1499
sg13
Nsg14
g1494
stRp1500
sg30
g1492
sg72
(lp1501
g1099
aV*
ag636
asg110
Vhttp://www.reddit.com/r/worldnews/comments/fl2uu/new_htc_freestyle_is_now_available_in_att_stores/
p1502
stRp1503
ag1
(g2
g3
(dp1504
S'summary_detail'
p1505
g1
(g2
g3
(dp1506
g9
S'http://www.reddit.com/.rss?feed=42a611421f40a232c1c9635e3141aced337fba7d&user=frozencemetery'
p1507
sg11
S'text/html'
p1508
sg13
Nsg14
Vsubmitted by <a href="http://www.reddit.com/user/johnnythehund"> johnnythehund </a> to <a href="http://www.reddit.com/r/worldnews/"> worldnews</a> <br /> <a href="http://www.swedishwire.com/business/8558-dubai-new-york-flight-makes-emergency-landing-in-stockholm-">[link]</a> <a href="http://www.reddit.com/r/worldnews/comments/fl2t6/dubai_new_york_flight_makes_emergency_landing_in/">[comment]</a>
p1509
stRp1510
sg90
g91
((I2011
I2
I14
I11
I30
I19
I0
I45
I0
t(dtRp1511
sg18
(lp1512
g1
(g2
g3
(dp1513
g21
Vhttp://www.reddit.com/r/worldnews/comments/fl2t6/dubai_new_york_flight_makes_emergency_landing_in/
p1514
sg11
g23
sg24
g25
stRp1515
asg29
VDubai - New York flight makes emergency landing in Stockholm
p1516
sg98
VMon, 14 Feb 2011 11:30:19 +0000
p1517
sg100
g1509
sg101
I00
sS'title_detail'
p1518
g1
(g2
g3
(dp1519
g9
S'http://www.reddit.com/.rss?feed=42a611421f40a232c1c9635e3141aced337fba7d&user=frozencemetery'
p1520
sg11
S'text/plain'
p1521
sg13
Nsg14
g1516
stRp1522
sg30
g1514
sg72
(lp1523
g1099
aV*
ag636
asg110
Vhttp://www.reddit.com/r/worldnews/comments/fl2t6/dubai_new_york_flight_makes_emergency_landing_in/
p1524
stRp1525
ag1
(g2
g3
(dp1526
S'summary_detail'
p1527
g1
(g2
g3
(dp1528
g9
S'http://www.reddit.com/.rss?feed=42a611421f40a232c1c9635e3141aced337fba7d&user=frozencemetery'
p1529
sg11
S'text/html'
p1530
sg13
Nsg14
Vsubmitted by <a href="http://www.reddit.com/user/maxwellhill"> maxwellhill </a> to <a href="http://www.reddit.com/r/worldnews/"> worldnews</a> <br /> <a href="http://www.americablog.com/2011/02/telegraph-mubarak-used-last-18-days-to.html">[link]</a> <a href="http://www.reddit.com/r/worldnews/comments/fkv1e/mubarak_used_last_18_days_to_secure_his_fortune/">[comment]</a>
p1531
stRp1532
sg90
g91
((I2011
I2
I14
I2
I24
I29
I0
I45
I0
t(dtRp1533
sg18
(lp1534
g1
(g2
g3
(dp1535
g21
Vhttp://www.reddit.com/r/worldnews/comments/fkv1e/mubarak_used_last_18_days_to_secure_his_fortune/
p1536
sg11
g23
sg24
g25
stRp1537
asg29
VMubarak used last 18 days to secure his fortune
p1538
sg98
VMon, 14 Feb 2011 02:24:29 +0000
p1539
sg100
g1531
sg101
I00
sS'title_detail'
p1540
g1
(g2
g3
(dp1541
g9
S'http://www.reddit.com/.rss?feed=42a611421f40a232c1c9635e3141aced337fba7d&user=frozencemetery'
p1542
sg11
S'text/plain'
p1543
sg13
Nsg14
g1538
stRp1544
sg30
g1536
sg72
(lp1545
g1435
aV*
ag568
asg110
Vhttp://www.reddit.com/r/worldnews/comments/fkv1e/mubarak_used_last_18_days_to_secure_his_fortune/
p1546
stRp1547
ag1
(g2
g3
(dp1548
S'summary_detail'
p1549
g1
(g2
g3
(dp1550
g9
S'http://www.reddit.com/.rss?feed=42a611421f40a232c1c9635e3141aced337fba7d&user=frozencemetery'
p1551
sg11
S'text/html'
p1552
sg13
Nsg14
Vsubmitted by <a href="http://www.reddit.com/user/alexmai"> alexmai </a> to <a href="http://www.reddit.com/r/worldnews/"> worldnews</a> <br /> <a href="http://investmentwatchblog.com/a-us-official-told-the-sunday-telegraph-hosni-mubarak-used-the-18-days-it-took-for-protesters-to-topple-him-to-shift-his-vast-wealth-into-untraceable-accounts-overseas-western-intelligence-sources/">[link]</a> <a href="http://www.reddit.com/r/worldnews/comments/fkkgq/a_us_official_told_the_sunday_telegraph_hosni/">[7 comments]</a>
p1553
stRp1554
sg90
g91
((I2011
I2
I13
I15
I23
I9
I6
I44
I0
t(dtRp1555
sg18
(lp1556
g1
(g2
g3
(dp1557
g21
Vhttp://www.reddit.com/r/worldnews/comments/fkkgq/a_us_official_told_the_sunday_telegraph_hosni/
p1558
sg11
g23
sg24
g25
stRp1559
asg29
VA US official told The Sunday Telegraph: \u201cHosni Mubarak used the 18 days it took for protesters to topple him to shift his vast wealth into untraceable accounts overseas, Western intelligence sources have said\u2026
p1560
sg98
VSun, 13 Feb 2011 15:23:09 +0000
p1561
sg100
g1553
sg101
I00
sS'title_detail'
p1562
g1
(g2
g3
(dp1563
g9
S'http://www.reddit.com/.rss?feed=42a611421f40a232c1c9635e3141aced337fba7d&user=frozencemetery'
p1564
sg11
S'text/plain'
p1565
sg13
Nsg14
g1560
stRp1566
sg30
g1558
sg72
(lp1567
g249
aV*
ag250
asg110
Vhttp://www.reddit.com/r/worldnews/comments/fkkgq/a_us_official_told_the_sunday_telegraph_hosni/
p1568
stRp1569
ag1
(g2
g3
(dp1570
S'summary_detail'
p1571
g1
(g2
g3
(dp1572
g9
S'http://www.reddit.com/.rss?feed=42a611421f40a232c1c9635e3141aced337fba7d&user=frozencemetery'
p1573
sg11
S'text/html'
p1574
sg13
Nsg14
Vsubmitted by <a href="http://www.reddit.com/user/Unlucky13"> Unlucky13 </a> to <a href="http://www.reddit.com/r/worldnews/"> worldnews</a> <br /> <a href="http://hnn.us/articles/934.html">[link]</a> <a href="http://www.reddit.com/r/worldnews/comments/fl2e2/if_you_are_like_me_and_feel_like_you_dont_quite/">[comment]</a>
p1575
stRp1576
sg90
g91
((I2011
I2
I14
I10
I46
I33
I0
I45
I0
t(dtRp1577
sg18
(lp1578
g1
(g2
g3
(dp1579
g21
Vhttp://www.reddit.com/r/worldnews/comments/fl2e2/if_you_are_like_me_and_feel_like_you_dont_quite/
p1580
sg11
g23
sg24
g25
stRp1581
asg29
VIf you are like me, and feel like you don't quite grasp a clear understanding of the Middle East, I think this article will really help: What Is the Difference Between Sunni and Shiite Muslims-- and Why Does It Matter?
p1582
sg98
VMon, 14 Feb 2011 10:46:33 +0000
p1583
sg100
g1575
sg101
I00
sS'title_detail'
p1584
g1
(g2
g3
(dp1585
g9
S'http://www.reddit.com/.rss?feed=42a611421f40a232c1c9635e3141aced337fba7d&user=frozencemetery'
p1586
sg11
S'text/plain'
p1587
sg13
Nsg14
g1582
stRp1588
sg30
g1580
sg72
(lp1589
g1099
aV*
ag636
asg110
Vhttp://www.reddit.com/r/worldnews/comments/fl2e2/if_you_are_like_me_and_feel_like_you_dont_quite/
p1590
stRp1591
ag1
(g2
g3
(dp1592
S'summary_detail'
p1593
g1
(g2
g3
(dp1594
g9
S'http://www.reddit.com/.rss?feed=42a611421f40a232c1c9635e3141aced337fba7d&user=frozencemetery'
p1595
sg11
S'text/html'
p1596
sg13
Nsg14
Vsubmitted by <a href="http://www.reddit.com/user/frycook"> frycook </a> to <a href="http://www.reddit.com/r/worldnews/"> worldnews</a> <br /> <a href="http://www.boingboing.net/2011/02/13/a-bad-day-for-sultan.html">[link]</a> <a href="http://www.reddit.com/r/worldnews/comments/fkstf/italy_bad_day_for_sultan_berlusconi_as_millions/">[2 comments]</a>
p1597
stRp1598
sg90
g91
((I2011
I2
I14
I0
I9
I23
I0
I45
I0
t(dtRp1599
sg18
(lp1600
g1
(g2
g3
(dp1601
g21
Vhttp://www.reddit.com/r/worldnews/comments/fkstf/italy_bad_day_for_sultan_berlusconi_as_millions/
p1602
sg11
g23
sg24
g25
stRp1603
asg29
VItaly: Bad Day for Sultan Berlusconi as Millions of Women Demand He Resign
p1604
sg98
VMon, 14 Feb 2011 00:09:23 +0000
p1605
sg100
g1597
sg101
I00
sS'title_detail'
p1606
g1
(g2
g3
(dp1607
g9
S'http://www.reddit.com/.rss?feed=42a611421f40a232c1c9635e3141aced337fba7d&user=frozencemetery'
p1608
sg11
S'text/plain'
p1609
sg13
Nsg14
g1604
stRp1610
sg30
g1602
sg72
(lp1611
g567
aV*
ag568
asg110
Vhttp://www.reddit.com/r/worldnews/comments/fkstf/italy_bad_day_for_sultan_berlusconi_as_millions/
p1612
stRp1613
ag1
(g2
g3
(dp1614
S'summary_detail'
p1615
g1
(g2
g3
(dp1616
g9
S'http://www.reddit.com/.rss?feed=42a611421f40a232c1c9635e3141aced337fba7d&user=frozencemetery'
p1617
sg11
S'text/html'
p1618
sg13
Nsg14
Vsubmitted by <a href="http://www.reddit.com/user/Shakshuka"> Shakshuka </a> to <a href="http://www.reddit.com/r/worldnews/"> worldnews</a> <br /> <a href="http://www.haaretz.com/print-edition/news/egypt-upheaval-may-send-shockwaves-far-beyond-the-arab-world-1.343251">[link]</a> <a href="http://www.reddit.com/r/worldnews/comments/fkz7c/egypt_upheaval_may_send_shockwaves_far_beyond_the/">[1 comment]</a>
p1619
stRp1620
sg90
g91
((I2011
I2
I14
I6
I36
I56
I0
I45
I0
t(dtRp1621
sg18
(lp1622
g1
(g2
g3
(dp1623
g21
Vhttp://www.reddit.com/r/worldnews/comments/fkz7c/egypt_upheaval_may_send_shockwaves_far_beyond_the/
p1624
sg11
g23
sg24
g25
stRp1625
asg29
VEgypt upheaval may send shockwaves far beyond the Arab world
p1626
sg98
VMon, 14 Feb 2011 06:36:56 +0000
p1627
sg100
g1619
sg101
I00
sS'title_detail'
p1628
g1
(g2
g3
(dp1629
g9
S'http://www.reddit.com/.rss?feed=42a611421f40a232c1c9635e3141aced337fba7d&user=frozencemetery'
p1630
sg11
S'text/plain'
p1631
sg13
Nsg14
g1626
stRp1632
sg30
g1624
sg72
(lp1633
g1099
aV*
ag636
asg110
Vhttp://www.reddit.com/r/worldnews/comments/fkz7c/egypt_upheaval_may_send_shockwaves_far_beyond_the/
p1634
stRp1635
ag1
(g2
g3
(dp1636
S'summary_detail'
p1637
g1
(g2
g3
(dp1638
g9
S'http://www.reddit.com/.rss?feed=42a611421f40a232c1c9635e3141aced337fba7d&user=frozencemetery'
p1639
sg11
S'text/html'
p1640
sg13
Nsg14
Vsubmitted by <a href="http://www.reddit.com/user/ajehals"> ajehals </a> to <a href="http://www.reddit.com/r/worldnews/"> worldnews</a> <br /> <a href="http://www.neurope.eu/articles/Tackling-terrorism-by-the-legal-route-means-closing-Guantanamo/104762.php">[link]</a> <a href="http://www.reddit.com/r/worldnews/comments/fkwuu/tackling_terrorism_by_the_legal_route_means/">[comment]</a>
p1641
stRp1642
sg90
g91
((I2011
I2
I14
I4
I8
I38
I0
I45
I0
t(dtRp1643
sg18
(lp1644
g1
(g2
g3
(dp1645
g21
Vhttp://www.reddit.com/r/worldnews/comments/fkwuu/tackling_terrorism_by_the_legal_route_means/
p1646
sg11
g23
sg24
g25
stRp1647
asg29
VTackling terrorism by the legal route means closing Guantanamo
p1648
sg98
VMon, 14 Feb 2011 04:08:38 +0000
p1649
sg100
g1641
sg101
I00
sS'title_detail'
p1650
g1
(g2
g3
(dp1651
g9
S'http://www.reddit.com/.rss?feed=42a611421f40a232c1c9635e3141aced337fba7d&user=frozencemetery'
p1652
sg11
S'text/plain'
p1653
sg13
Nsg14
g1648
stRp1654
sg30
g1646
sg72
(lp1655
g1258
aV*
ag1145
asg110
Vhttp://www.reddit.com/r/worldnews/comments/fkwuu/tackling_terrorism_by_the_legal_route_means/
p1656
stRp1657
ag1
(g2
g3
(dp1658
S'summary_detail'
p1659
g1
(g2
g3
(dp1660
g9
S'http://www.reddit.com/.rss?feed=42a611421f40a232c1c9635e3141aced337fba7d&user=frozencemetery'
p1661
sg11
S'text/html'
p1662
sg13
Nsg14
Vsubmitted by <a href="http://www.reddit.com/user/y2quest"> y2quest </a> to <a href="http://www.reddit.com/r/worldnews/"> worldnews</a> <br /> <a href="http://www.youtube.com/watch?v=MK6LENs-cnM&feature=feedlik">[link]</a> <a href="http://www.reddit.com/r/worldnews/comments/fkms3/egypt_fed_up_with_foreign_bullying_people_wont/">[2 comments]</a>
p1663
stRp1664
sg90
g91
((I2011
I2
I13
I18
I5
I34
I6
I44
I0
t(dtRp1665
sg18
(lp1666
g1
(g2
g3
(dp1667
g21
Vhttp://www.reddit.com/r/worldnews/comments/fkms3/egypt_fed_up_with_foreign_bullying_people_wont/
p1668
sg11
g23
sg24
g25
stRp1669
asg29
V'Egypt fed up with foreign bullying - people won't accept new stooge'
p1670
sg98
VSun, 13 Feb 2011 18:05:34 +0000
p1671
sg100
g1663
sg101
I00
sS'title_detail'
p1672
g1
(g2
g3
(dp1673
g9
S'http://www.reddit.com/.rss?feed=42a611421f40a232c1c9635e3141aced337fba7d&user=frozencemetery'
p1674
sg11
S'text/plain'
p1675
sg13
Nsg14
g1670
stRp1676
sg30
g1668
sg72
(lp1677
g295
aV*
ag296
asg110
Vhttp://www.reddit.com/r/worldnews/comments/fkms3/egypt_fed_up_with_foreign_bullying_people_wont/
p1678
stRp1679
ag1
(g2
g3
(dp1680
S'summary_detail'
p1681
g1
(g2
g3
(dp1682
g9
S'http://www.reddit.com/.rss?feed=42a611421f40a232c1c9635e3141aced337fba7d&user=frozencemetery'
p1683
sg11
S'text/html'
p1684
sg13
Nsg14
Vsubmitted by <a href="http://www.reddit.com/user/jewiscool"> jewiscool </a> to <a href="http://www.reddit.com/r/worldnews/"> worldnews</a> <br /> <a href="http://www.thedailybeast.com/blogs-and-stories/2011-02-12/ayman-mohyeldin-al-jazeeras-breakout-star/">[link]</a> <a href="http://www.reddit.com/r/worldnews/comments/fktsc/egypt_al_jazeeras_breakout_star_the_dashing/">[comment]</a>
p1685
stRp1686
sg90
g91
((I2011
I2
I14
I1
I9
I15
I0
I45
I0
t(dtRp1687
sg18
(lp1688
g1
(g2
g3
(dp1689
g21
Vhttp://www.reddit.com/r/worldnews/comments/fktsc/egypt_al_jazeeras_breakout_star_the_dashing/
p1690
sg11
g23
sg24
g25
stRp1691
asg29
VEgypt: Al Jazeera\u2019s Breakout Star (The dashing foreign correspondent: Ayman Mohyeldin)
p1692
sg98
VMon, 14 Feb 2011 01:09:15 +0000
p1693
sg100
g1685
sg101
I00
sS'title_detail'
p1694
g1
(g2
g3
(dp1695
g9
S'http://www.reddit.com/.rss?feed=42a611421f40a232c1c9635e3141aced337fba7d&user=frozencemetery'
p1696
sg11
S'text/plain'
p1697
sg13
Nsg14
g1692
stRp1698
sg30
g1690
sg72
(lp1699
g1435
aV*
ag568
asg110
Vhttp://www.reddit.com/r/worldnews/comments/fktsc/egypt_al_jazeeras_breakout_star_the_dashing/
p1700
stRp1701
ag1
(g2
g3
(dp1702
S'summary_detail'
p1703
g1
(g2
g3
(dp1704
g9
S'http://www.reddit.com/.rss?feed=42a611421f40a232c1c9635e3141aced337fba7d&user=frozencemetery'
p1705
sg11
S'text/html'
p1706
sg13
Nsg14
Vsubmitted by <a href="http://www.reddit.com/user/ajehals"> ajehals </a> to <a href="http://www.reddit.com/r/worldnews/"> worldnews</a> <br /> <a href="http://www.voanews.com/english/news/europe/Italy-Seeks-to-Deploy-Police-in-Tunisia-to-Stem-Tide-of-Refugees-116136179.html">[link]</a> <a href="http://www.reddit.com/r/worldnews/comments/fkwd3/italy_seeks_to_deploy_police_in_tunisia_to_stem/">[comment]</a>
p1707
stRp1708
sg90
g91
((I2011
I2
I14
I3
I40
I57
I0
I45
I0
t(dtRp1709
sg18
(lp1710
g1
(g2
g3
(dp1711
g21
Vhttp://www.reddit.com/r/worldnews/comments/fkwd3/italy_seeks_to_deploy_police_in_tunisia_to_stem/
p1712
sg11
g23
sg24
g25
stRp1713
asg29
VItaly Seeks to Deploy Police in Tunisia to Stem Tide of Refugees
p1714
sg98
VMon, 14 Feb 2011 03:40:57 +0000
p1715
sg100
g1707
sg101
I00
sS'title_detail'
p1716
g1
(g2
g3
(dp1717
g9
S'http://www.reddit.com/.rss?feed=42a611421f40a232c1c9635e3141aced337fba7d&user=frozencemetery'
p1718
sg11
S'text/plain'
p1719
sg13
Nsg14
g1714
stRp1720
sg30
g1712
sg72
(lp1721
g567
aV*
ag568
asg110
Vhttp://www.reddit.com/r/worldnews/comments/fkwd3/italy_seeks_to_deploy_police_in_tunisia_to_stem/
p1722
stRp1723
ag1
(g2
g3
(dp1724
S'summary_detail'
p1725
g1
(g2
g3
(dp1726
g9
S'http://www.reddit.com/.rss?feed=42a611421f40a232c1c9635e3141aced337fba7d&user=frozencemetery'
p1727
sg11
S'text/html'
p1728
sg13
Nsg14
Vsubmitted by <a href="http://www.reddit.com/user/Orangutan"> Orangutan </a> to <a href="http://www.reddit.com/r/worldnews/"> worldnews</a> <br /> <a href="http://www.rawstory.com/rs/2011/02/12/pakistani-court-issued-arrest-warrant-expresident-musharraf/">[link]</a> <a href="http://www.reddit.com/r/worldnews/comments/fkr1w/pakistani_court_issues_arrest_warrant_for/">[1 comment]</a>
p1729
stRp1730
sg90
g91
((I2011
I2
I13
I22
I21
I4
I6
I44
I0
t(dtRp1731
sg18
(lp1732
g1
(g2
g3
(dp1733
g21
Vhttp://www.reddit.com/r/worldnews/comments/fkr1w/pakistani_court_issues_arrest_warrant_for/
p1734
sg11
g23
sg24
g25
stRp1735
asg29
VPakistani court issues ARREST WARRANT for Musharraf
p1736
sg98
VSun, 13 Feb 2011 22:21:04 +0000
p1737
sg100
g1729
sg101
I00
sS'title_detail'
p1738
g1
(g2
g3
(dp1739
g9
S'http://www.reddit.com/.rss?feed=42a611421f40a232c1c9635e3141aced337fba7d&user=frozencemetery'
p1740
sg11
S'text/plain'
p1741
sg13
Nsg14
g1736
stRp1742
sg30
g1734
sg72
(lp1743
g365
aV*
ag366
asg110
Vhttp://www.reddit.com/r/worldnews/comments/fkr1w/pakistani_court_issues_arrest_warrant_for/
p1744
stRp1745
ag1
(g2
g3
(dp1746
S'summary_detail'
p1747
g1
(g2
g3
(dp1748
g9
S'http://www.reddit.com/.rss?feed=42a611421f40a232c1c9635e3141aced337fba7d&user=frozencemetery'
p1749
sg11
S'text/html'
p1750
sg13
Nsg14
Vsubmitted by <a href="http://www.reddit.com/user/mind0vermatter"> mind0vermatter </a> to <a href="http://www.reddit.com/r/worldnews/"> worldnews</a> <br /> <a href="http://www.justforeignpolicy.org/node/156">[link]</a> <a href="http://www.reddit.com/r/worldnews/comments/fknlt/the_estimate_that_over_a_million_iraqis_have_died/">[18 comments]</a>
p1751
stRp1752
sg90
g91
((I2011
I2
I13
I18
I55
I3
I6
I44
I0
t(dtRp1753
sg18
(lp1754
g1
(g2
g3
(dp1755
g21
Vhttp://www.reddit.com/r/worldnews/comments/fknlt/the_estimate_that_over_a_million_iraqis_have_died/
p1756
sg11
g23
sg24
g25
stRp1757
asg29
VThe estimate that over a million Iraqis have died received independent confirmation from a prestigious British polling agency in September 2007. Opinion Research Business estimated that 1.2 million Iraqis have been killed violently since the US-led invasion.
p1758
sg98
VSun, 13 Feb 2011 18:55:03 +0000
p1759
sg100
g1751
sg101
I00
sS'title_detail'
p1760
g1
(g2
g3
(dp1761
g9
S'http://www.reddit.com/.rss?feed=42a611421f40a232c1c9635e3141aced337fba7d&user=frozencemetery'
p1762
sg11
S'text/plain'
p1763
sg13
Nsg14
g1758
stRp1764
sg30
g1756
sg72
(lp1765
g295
aV*
ag296
asg110
Vhttp://www.reddit.com/r/worldnews/comments/fknlt/the_estimate_that_over_a_million_iraqis_have_died/
p1766
stRp1767
ag1
(g2
g3
(dp1768
S'summary_detail'
p1769
g1
(g2
g3
(dp1770
g9
S'http://www.reddit.com/.rss?feed=42a611421f40a232c1c9635e3141aced337fba7d&user=frozencemetery'
p1771
sg11
S'text/html'
p1772
sg13
Nsg14
Vsubmitted by <a href="http://www.reddit.com/user/maxwellhill"> maxwellhill </a> to <a href="http://www.reddit.com/r/worldnews/"> worldnews</a> <br /> <a href="http://www.telegraph.co.uk/news/worldnews/europe/italy/8321277/Italy-day-of-protests-in-200-cities-against-Berlusconi.html">[link]</a> <a href="http://www.reddit.com/r/worldnews/comments/fkjar/day_of_protests_in_200_italian_cities_against/">[7 comments]</a>
p1773
stRp1774
sg90
g91
((I2011
I2
I13
I13
I25
I38
I6
I44
I0
t(dtRp1775
sg18
(lp1776
g1
(g2
g3
(dp1777
g21
Vhttp://www.reddit.com/r/worldnews/comments/fkjar/day_of_protests_in_200_italian_cities_against/
p1778
sg11
g23
sg24
g25
stRp1779
asg29
VDay of protests in 200 Italian cities against Berlusconi: Hundreds of women will take to the streets of Italy\u2019s cities, calling on Berlusconi to resign after prosecutors requested he be sent to trial for having sex with an underage prostitute
p1780
sg98
VSun, 13 Feb 2011 13:25:38 +0000
p1781
sg100
g1773
sg101
I00
sS'title_detail'
p1782
g1
(g2
g3
(dp1783
g9
S'http://www.reddit.com/.rss?feed=42a611421f40a232c1c9635e3141aced337fba7d&user=frozencemetery'
p1784
sg11
S'text/plain'
p1785
sg13
Nsg14
g1780
stRp1786
sg30
g1778
sg72
(lp1787
g249
aV*
ag250
asg110
Vhttp://www.reddit.com/r/worldnews/comments/fkjar/day_of_protests_in_200_italian_cities_against/
p1788
stRp1789
ag1
(g2
g3
(dp1790
S'summary_detail'
p1791
g1
(g2
g3
(dp1792
g9
S'http://www.reddit.com/.rss?feed=42a611421f40a232c1c9635e3141aced337fba7d&user=frozencemetery'
p1793
sg11
S'text/html'
p1794
sg13
Nsg14
Vsubmitted by <a href="http://www.reddit.com/user/iuliusg"> iuliusg </a> to <a href="http://www.reddit.com/r/worldnews/"> worldnews</a> <br /> <a href="http://www.bbc.co.uk/news/uk-12444625">[link]</a> <a href="http://www.reddit.com/r/worldnews/comments/fkxjw/banned_uk_reporter_luke_harding_back_in_moscow/">[comment]</a>
p1795
stRp1796
sg90
g91
((I2011
I2
I14
I5
I3
I9
I0
I45
I0
t(dtRp1797
sg18
(lp1798
g1
(g2
g3
(dp1799
g21
Vhttp://www.reddit.com/r/worldnews/comments/fkxjw/banned_uk_reporter_luke_harding_back_in_moscow/
p1800
sg11
g23
sg24
g25
stRp1801
asg29
VBanned UK reporter Luke Harding back in Moscow
p1802
sg98
VMon, 14 Feb 2011 05:03:09 +0000
p1803
sg100
g1795
sg101
I00
sS'title_detail'
p1804
g1
(g2
g3
(dp1805
g9
S'http://www.reddit.com/.rss?feed=42a611421f40a232c1c9635e3141aced337fba7d&user=frozencemetery'
p1806
sg11
S'text/plain'
p1807
sg13
Nsg14
g1802
stRp1808
sg30
g1800
sg72
(lp1809
g1144
aV*
ag1145
asg110
Vhttp://www.reddit.com/r/worldnews/comments/fkxjw/banned_uk_reporter_luke_harding_back_in_moscow/
p1810
stRp1811
ag1
(g2
g3
(dp1812
S'summary_detail'
p1813
g1
(g2
g3
(dp1814
g9
S'http://www.reddit.com/.rss?feed=42a611421f40a232c1c9635e3141aced337fba7d&user=frozencemetery'
p1815
sg11
S'text/html'
p1816
sg13
Nsg14
Vsubmitted by <a href="http://www.reddit.com/user/klmd"> klmd </a> to <a href="http://www.reddit.com/r/worldnews/"> worldnews</a> <br /> <a href="http://www.zerohedge.com/article/egyptian-protesters-did-2-12-weeks-what-american-military-could-not-do-9-years-war-bring-dem">[link]</a> <a href="http://www.reddit.com/r/worldnews/comments/fkku2/egyptian_protesters_did_in_2_12_weeks_what_the/">[19 comments]</a>
p1817
stRp1818
sg90
g91
((I2011
I2
I13
I15
I51
I31
I6
I44
I0
t(dtRp1819
sg18
(lp1820
g1
(g2
g3
(dp1821
g21
Vhttp://www.reddit.com/r/worldnews/comments/fkku2/egyptian_protesters_did_in_2_12_weeks_what_the/
p1822
sg11
g23
sg24
g25
stRp1823
asg29
VEgyptian Protesters Did in 2 1/2 Weeks What the American Military Could Not Do in 9 Years of War ... Bring Democracy to the Middle East
p1824
sg98
VSun, 13 Feb 2011 15:51:31 +0000
p1825
sg100
g1817
sg101
I00
sS'title_detail'
p1826
g1
(g2
g3
(dp1827
g9
S'http://www.reddit.com/.rss?feed=42a611421f40a232c1c9635e3141aced337fba7d&user=frozencemetery'
p1828
sg11
S'text/plain'
p1829
sg13
Nsg14
g1824
stRp1830
sg30
g1822
sg72
(lp1831
Vreddit: the voice of the internet -- news before it happens
p1832
aV*
aS'read'
p1833
asg110
Vhttp://www.reddit.com/r/worldnews/comments/fkku2/egyptian_protesters_did_in_2_12_weeks_what_the/
p1834
stRp1835
ag1
(g2
g3
(dp1836
S'summary_detail'
p1837
g1
(g2
g3
(dp1838
g9
S'http://www.reddit.com/.rss?feed=42a611421f40a232c1c9635e3141aced337fba7d&user=frozencemetery'
p1839
sg11
S'text/html'
p1840
sg13
Nsg14
Vsubmitted by <a href="http://www.reddit.com/user/phenry08"> phenry08 </a> to <a href="http://www.reddit.com/r/worldnews/"> worldnews</a> <br /> <a href="http://www.telegraph.co.uk/news/worldnews/africaandindianocean/egypt/8320912/Egypt-Hosni-Mubarak-used-last-18-days-in-power-to-secure-his-fortune.html?sms_ss=reddit&at_xt=4d587e6a31aa1622%2C0">[link]</a> <a href="http://www.reddit.com/r/worldnews/comments/fktmr/egypt_hosni_mubarak_used_last_18_days_in_power_to/">[1 comment]</a>
p1841
stRp1842
sg90
g91
((I2011
I2
I14
I0
I59
I56
I0
I45
I0
t(dtRp1843
sg18
(lp1844
g1
(g2
g3
(dp1845
g21
Vhttp://www.reddit.com/r/worldnews/comments/fktmr/egypt_hosni_mubarak_used_last_18_days_in_power_to/
p1846
sg11
g23
sg24
g25
stRp1847
asg29
VEgypt: Hosni Mubarak used last 18 days in power to secure his fortune
p1848
sg98
VMon, 14 Feb 2011 00:59:56 +0000
p1849
sg100
Vsubmitted by <a href="http://www.reddit.com/user/phenry08"> phenry08 </a> to <a href="http://www.reddit.com/r/worldnews/"> worldnews</a> <br /> <a href="http://www.telegraph.co.uk/news/worldnews/africaandindianocean/egypt/8320912/Egypt-Hosni-Mubarak-used-last-18-days-in-power-to-secure-his-fortune.html?sms_ss=reddit&at_xt=4d587e6a31aa1622\u005c%2C0">[link]</a> <a href="http://www.reddit.com/r/worldnews/comments/fktmr/egypt_hosni_mubarak_used_last_18_days_in_power_to/">[1 comment]</a>
p1850
sg101
I00
sS'title_detail'
p1851
g1
(g2
g3
(dp1852
g9
S'http://www.reddit.com/.rss?feed=42a611421f40a232c1c9635e3141aced337fba7d&user=frozencemetery'
p1853
sg11
S'text/plain'
p1854
sg13
Nsg14
g1848
stRp1855
sg30
g1846
sg72
(lp1856
Vreddit: the voice of the internet -- news before it happens
p1857
aV*
aS'read'
p1858
asg110
Vhttp://www.reddit.com/r/worldnews/comments/fktmr/egypt_hosni_mubarak_used_last_18_days_in_power_to/
p1859
stRp1860
ag1
(g2
g3
(dp1861
S'summary_detail'
p1862
g1
(g2
g3
(dp1863
g9
S'http://www.reddit.com/.rss?feed=42a611421f40a232c1c9635e3141aced337fba7d&user=frozencemetery'
p1864
sg11
S'text/html'
p1865
sg13
Nsg14
Vsubmitted by <a href="http://www.reddit.com/user/intisun"> intisun </a> to <a href="http://www.reddit.com/r/worldnews/"> worldnews</a> <br /> <a href="http://twitter.com/Ghonim/status/36880978852970496">[link]</a> <a href="http://www.reddit.com/r/worldnews/comments/fkx23/wael_ghonim_got_approval_from_the_army_to_start/">[comment]</a>
p1866
stRp1867
sg90
g91
((I2011
I2
I14
I4
I21
I49
I0
I45
I0
t(dtRp1868
sg18
(lp1869
g1
(g2
g3
(dp1870
g21
Vhttp://www.reddit.com/r/worldnews/comments/fkx23/wael_ghonim_got_approval_from_the_army_to_start/
p1871
sg11
g23
sg24
g25
stRp1872
asg29
VWael Ghonim: "Got approval from the army to start the 100 Billion Pounds campaign to reconstruct Egypt and help the families of martyrs & injured"
p1873
sg98
VMon, 14 Feb 2011 04:21:49 +0000
p1874
sg100
g1866
sg101
I00
sS'title_detail'
p1875
g1
(g2
g3
(dp1876
g9
S'http://www.reddit.com/.rss?feed=42a611421f40a232c1c9635e3141aced337fba7d&user=frozencemetery'
p1877
sg11
S'text/plain'
p1878
sg13
Nsg14
g1873
stRp1879
sg30
g1871
sg72
(lp1880
g1144
aV*
ag1145
asg110
Vhttp://www.reddit.com/r/worldnews/comments/fkx23/wael_ghonim_got_approval_from_the_army_to_start/
p1881
stRp1882
ag1
(g2
g3
(dp1883
S'summary_detail'
p1884
g1
(g2
g3
(dp1885
g9
S'http://www.reddit.com/.rss?feed=42a611421f40a232c1c9635e3141aced337fba7d&user=frozencemetery'
p1886
sg11
S'text/html'
p1887
sg13
Nsg14
Vsubmitted by <a href="http://www.reddit.com/user/DrRichardCranium"> DrRichardCranium </a> to <a href="http://www.reddit.com/r/worldnews/"> worldnews</a> <br /> <a href="http://www.foreignpolicy.com/articles/2011/02/11/i_m_outta_here?page=full">[link]</a> <a href="http://www.reddit.com/r/worldnews/comments/fkl3q/im_outta_here_hosni_mubaraks_exit_is_only_the/">[2 comments]</a>
p1888
stRp1889
sg90
g91
((I2011
I2
I13
I16
I11
I2
I6
I44
I0
t(dtRp1890
sg18
(lp1891
g1
(g2
g3
(dp1892
g21
Vhttp://www.reddit.com/r/worldnews/comments/fkl3q/im_outta_here_hosni_mubaraks_exit_is_only_the/
p1893
sg11
g23
sg24
g25
stRp1894
asg29
VI'm Outta Here! - Hosni Mubarak's exit is only the latest entry in the annals of awkward official departures. A look at the best, from the Shah's permanent vacation to King Farouk's abandoned porn collection.
p1895
sg98
VSun, 13 Feb 2011 09:11:02 -0700
p1896
sg100
g1888
sg101
I00
sS'title_detail'
p1897
g1
(g2
g3
(dp1898
g9
S'http://www.reddit.com/.rss?feed=42a611421f40a232c1c9635e3141aced337fba7d&user=frozencemetery'
p1899
sg11
S'text/plain'
p1900
sg13
Nsg14
g1895
stRp1901
sg30
g1893
sg72
(lp1902
Vreddit: the voice of the internet -- news before it happens
p1903
aV*
ag1213
asg110
Vhttp://www.reddit.com/r/worldnews/comments/fkl3q/im_outta_here_hosni_mubaraks_exit_is_only_the/
p1904
stRp1905
ag1
(g2
g3
(dp1906
S'summary_detail'
p1907
g1
(g2
g3
(dp1908
g9
S'http://www.reddit.com/.rss?feed=42a611421f40a232c1c9635e3141aced337fba7d&user=frozencemetery'
p1909
sg11
S'text/html'
p1910
sg13
Nsg14
Vsubmitted by <a href="http://www.reddit.com/user/readerseven"> readerseven </a> to <a href="http://www.reddit.com/r/worldnews/"> worldnews</a> <br /> <a href="http://www.cnn.com/2011/WORLD/meast/02/13/egypt.museum/index.html?hpt=T1">[link]</a> <a href="http://www.reddit.com/r/worldnews/comments/fkld7/king_tut_statue_among_missing_egypt_treasures/">[13 comments]</a>
p1911
stRp1912
sg90
g91
((I2011
I2
I13
I16
I31
I12
I6
I44
I0
t(dtRp1913
sg18
(lp1914
g1
(g2
g3
(dp1915
g21
Vhttp://www.reddit.com/r/worldnews/comments/fkld7/king_tut_statue_among_missing_egypt_treasures/
p1916
sg11
g23
sg24
g25
stRp1917
asg29
VKing Tut statue among missing Egypt treasures
p1918
sg98
VSun, 13 Feb 2011 16:31:12 +0000
p1919
sg100
g1911
sg101
I00
sS'title_detail'
p1920
g1
(g2
g3
(dp1921
g9
S'http://www.reddit.com/.rss?feed=42a611421f40a232c1c9635e3141aced337fba7d&user=frozencemetery'
p1922
sg11
S'text/plain'
p1923
sg13
Nsg14
g1918
stRp1924
sg30
g1916
sg72
(lp1925
g1212
aV*
ag1213
asg110
Vhttp://www.reddit.com/r/worldnews/comments/fkld7/king_tut_statue_among_missing_egypt_treasures/
p1926
stRp1927
ag1
(g2
g3
(dp1928
S'summary_detail'
p1929
g1
(g2
g3
(dp1930
g9
S'http://www.reddit.com/.rss?feed=42a611421f40a232c1c9635e3141aced337fba7d&user=frozencemetery'
p1931
sg11
S'text/html'
p1932
sg13
Nsg14
Vsubmitted by <a href="http://www.reddit.com/user/bobored"> bobored </a> to <a href="http://www.reddit.com/r/worldnews/"> worldnews</a> <br /> <a href="http://www.csmonitor.com/World/terrorism-security/2011/0213/In-Algeria-police-flood-streets-to-prevent-Egypt-style-revolution">[link]</a> <a href="http://www.reddit.com/r/worldnews/comments/fkmpf/algeria_police_flood_streets_in_attempt_to_thwart/">[1 comment]</a>
p1933
stRp1934
sg90
g91
((I2011
I2
I13
I18
I1
I1
I6
I44
I0
t(dtRp1935
sg18
(lp1936
g1
(g2
g3
(dp1937
g21
Vhttp://www.reddit.com/r/worldnews/comments/fkmpf/algeria_police_flood_streets_in_attempt_to_thwart/
p1938
sg11
g23
sg24
g25
stRp1939
asg29
VALGERIA - Police flood streets in attempt to thwart Egypt-style revolution.
p1940
sg98
VSun, 13 Feb 2011 18:01:01 +0000
p1941
sg100
g1933
sg101
I00
sS'title_detail'
p1942
g1
(g2
g3
(dp1943
g9
S'http://www.reddit.com/.rss?feed=42a611421f40a232c1c9635e3141aced337fba7d&user=frozencemetery'
p1944
sg11
S'text/plain'
p1945
sg13
Nsg14
g1940
stRp1946
sg30
g1938
sg72
(lp1947
g295
aV*
ag296
asg110
Vhttp://www.reddit.com/r/worldnews/comments/fkmpf/algeria_police_flood_streets_in_attempt_to_thwart/
p1948
stRp1949
ag1
(g2
g3
(dp1950
S'summary_detail'
p1951
g1
(g2
g3
(dp1952
g9
S'http://www.reddit.com/.rss?feed=42a611421f40a232c1c9635e3141aced337fba7d&user=frozencemetery'
p1953
sg11
S'text/html'
p1954
sg13
Nsg14
Vsubmitted by <a href="http://www.reddit.com/user/Kaffir"> Kaffir </a> to <a href="http://www.reddit.com/r/worldnews/"> worldnews</a> <br /> <a href="http://true-israel.blogspot.com/2011/02/israeli-arab-speaks-truth-about-israel.html">[link]</a> <a href="http://www.reddit.com/r/worldnews/comments/fkm5t/an_israeli_arab_goes_on_youtube_to_defend_his/">[5 comments]</a>
p1955
stRp1956
sg90
g91
((I2011
I2
I13
I17
I23
I29
I6
I44
I0
t(dtRp1957
sg18
(lp1958
g1
(g2
g3
(dp1959
g21
Vhttp://www.reddit.com/r/worldnews/comments/fkm5t/an_israeli_arab_goes_on_youtube_to_defend_his/
p1960
sg11
g23
sg24
g25
stRp1961
asg29
VAn Israeli Arab goes on YouTube to defend his country - Israel.
p1962
sg98
VSun, 13 Feb 2011 17:23:29 +0000
p1963
sg100
g1955
sg101
I00
sS'title_detail'
p1964
g1
(g2
g3
(dp1965
g9
S'http://www.reddit.com/.rss?feed=42a611421f40a232c1c9635e3141aced337fba7d&user=frozencemetery'
p1966
sg11
S'text/plain'
p1967
sg13
Nsg14
g1962
stRp1968
sg30
g1960
sg72
(lp1969
g499
aV*
ag500
asg110
Vhttp://www.reddit.com/r/worldnews/comments/fkm5t/an_israeli_arab_goes_on_youtube_to_defend_his/
p1970
stRp1971
ag1
(g2
g3
(dp1972
S'summary_detail'
p1973
g1
(g2
g3
(dp1974
g9
S'http://www.reddit.com/.rss?feed=42a611421f40a232c1c9635e3141aced337fba7d&user=frozencemetery'
p1975
sg11
S'text/html'
p1976
sg13
Nsg14
Vsubmitted by <a href="http://www.reddit.com/user/786yht"> 786yht </a> to <a href="http://www.reddit.com/r/worldnews/"> worldnews</a> <br /> <a href="http://www.theglobeandmail.com/news/world/crisis-in-egypt/hunting-for-mubarak-familys-purported-hidden-wealth/article1905498/">[link]</a> <a href="http://www.reddit.com/r/worldnews/comments/fkt1v/hunting_for_mubarak_familys_purported_hidden/">[comment]</a>
p1977
stRp1978
sg90
g91
((I2011
I2
I14
I0
I22
I47
I0
I45
I0
t(dtRp1979
sg18
(lp1980
g1
(g2
g3
(dp1981
g21
Vhttp://www.reddit.com/r/worldnews/comments/fkt1v/hunting_for_mubarak_familys_purported_hidden/
p1982
sg11
g23
sg24
g25
stRp1983
asg29
VHunting for Mubarak family\u2019s purported hidden wealth
p1984
sg98
VSun, 13 Feb 2011 17:22:47 -0700
p1985
sg100
g1977
sg101
I00
sS'title_detail'
p1986
g1
(g2
g3
(dp1987
g9
S'http://www.reddit.com/.rss?feed=42a611421f40a232c1c9635e3141aced337fba7d&user=frozencemetery'
p1988
sg11
S'text/plain'
p1989
sg13
Nsg14
g1984
stRp1990
sg30
g1982
sg72
(lp1991
g1857
aV*
ag1858
asg110
Vhttp://www.reddit.com/r/worldnews/comments/fkt1v/hunting_for_mubarak_familys_purported_hidden/
p1992
stRp1993
ag1
(g2
g3
(dp1994
S'summary_detail'
p1995
g1
(g2
g3
(dp1996
g9
S'http://www.reddit.com/.rss?feed=42a611421f40a232c1c9635e3141aced337fba7d&user=frozencemetery'
p1997
sg11
S'text/html'
p1998
sg13
Nsg14
Vsubmitted by <a href="http://www.reddit.com/user/ajehals"> ajehals </a> to <a href="http://www.reddit.com/r/worldnews/"> worldnews</a> <br /> <a href="http://www.guardian.co.uk/lifeandstyle/2011/feb/13/civil-partnership-church-wedding-ban">[link]</a> <a href="http://www.reddit.com/r/worldnews/comments/fkrf7/gay_wedding_ban_in_church_may_be_lifted/">[comment]</a>
p1999
stRp2000
sg90
g91
((I2011
I2
I13
I22
I44
I15
I6
I44
I0
t(dtRp2001
sg18
(lp2002
g1
(g2
g3
(dp2003
g21
Vhttp://www.reddit.com/r/worldnews/comments/fkrf7/gay_wedding_ban_in_church_may_be_lifted/
p2004
sg11
g23
sg24
g25
stRp2005
asg29
VGay wedding ban in church may be lifted
p2006
sg98
VSun, 13 Feb 2011 22:44:15 +0000
p2007
sg100
g1999
sg101
I00
sS'title_detail'
p2008
g1
(g2
g3
(dp2009
g9
S'http://www.reddit.com/.rss?feed=42a611421f40a232c1c9635e3141aced337fba7d&user=frozencemetery'
p2010
sg11
S'text/plain'
p2011
sg13
Nsg14
g2006
stRp2012
sg30
g2004
sg72
(lp2013
g365
aV*
ag366
asg110
Vhttp://www.reddit.com/r/worldnews/comments/fkrf7/gay_wedding_ban_in_church_may_be_lifted/
p2014
stRp2015
ag1
(g2
g3
(dp2016
S'summary_detail'
p2017
g1
(g2
g3
(dp2018
g9
S'http://www.reddit.com/.rss?feed=42a611421f40a232c1c9635e3141aced337fba7d&user=frozencemetery'
p2019
sg11
S'text/html'
p2020
sg13
Nsg14
Vsubmitted by <a href="http://www.reddit.com/user/GonzoVeritas"> GonzoVeritas </a> to <a href="http://www.reddit.com/r/worldnews/"> worldnews</a> <br /> <a href="http://arabnews.com/opinion/letters/article255840.ece?comments=all">[link]</a> <a href="http://www.reddit.com/r/worldnews/comments/fkkav/parisbased_international_federation_for_human/">[comment]</a>
p2021
stRp2022
sg90
g91
((I2011
I2
I13
I15
I10
I8
I6
I44
I0
t(dtRp2023
sg18
(lp2024
g1
(g2
g3
(dp2025
g21
Vhttp://www.reddit.com/r/worldnews/comments/fkkav/parisbased_international_federation_for_human/
p2026
sg11
g23
sg24
g25
stRp2027
asg29
VParis-based International Federation for Human Rights (FIDH) has vowed to pursue Bush wherever he travels
p2028
sg98
VSun, 13 Feb 2011 08:10:08 -0700
p2029
sg100
g2021
sg101
I00
sS'title_detail'
p2030
g1
(g2
g3
(dp2031
g9
S'http://www.reddit.com/.rss?feed=42a611421f40a232c1c9635e3141aced337fba7d&user=frozencemetery'
p2032
sg11
S'text/plain'
p2033
sg13
Nsg14
g2028
stRp2034
sg30
g2026
sg72
(lp2035
Vreddit: the voice of the internet -- news before it happens
p2036
aV*
ag1833
asg110
Vhttp://www.reddit.com/r/worldnews/comments/fkkav/parisbased_international_federation_for_human/
p2037
stRp2038
ag1
(g2
g3
(dp2039
S'summary_detail'
p2040
g1
(g2
g3
(dp2041
g9
S'http://www.reddit.com/.rss?feed=42a611421f40a232c1c9635e3141aced337fba7d&user=frozencemetery'
p2042
sg11
S'text/html'
p2043
sg13
Nsg14
Vsubmitted by <a href="http://www.reddit.com/user/TheLibertyUndergroun"> TheLibertyUndergroun </a> to <a href="http://www.reddit.com/r/worldnews/"> worldnews</a> <br /> <a href="http://www.youtube.com/watch?v=9Ku27ZsGOTs">[link]</a> <a href="http://www.reddit.com/r/worldnews/comments/fkyn3/pakistan_issues_arrest_warrant_for_former/">[1 comment]</a>
p2044
stRp2045
sg90
g91
((I2011
I2
I14
I6
I1
I54
I0
I45
I0
t(dtRp2046
sg18
(lp2047
g1
(g2
g3
(dp2048
g21
Vhttp://www.reddit.com/r/worldnews/comments/fkyn3/pakistan_issues_arrest_warrant_for_former/
p2049
sg11
g23
sg24
g25
stRp2050
asg29
VPakistan Issues Arrest Warrant For Former Military Ruler General Musharraf In Connection To Benazir Bhutto Assassination
p2051
sg98
VMon, 14 Feb 2011 06:01:54 +0000
p2052
sg100
g2044
sg101
I00
sS'title_detail'
p2053
g1
(g2
g3
(dp2054
g9
S'http://www.reddit.com/.rss?feed=42a611421f40a232c1c9635e3141aced337fba7d&user=frozencemetery'
p2055
sg11
S'text/plain'
p2056
sg13
Nsg14
g2051
stRp2057
sg30
g2049
sg72
(lp2058
g1144
aV*
ag1145
asg110
Vhttp://www.reddit.com/r/worldnews/comments/fkyn3/pakistan_issues_arrest_warrant_for_former/
p2059
stRp2060
ag1
(g2
g3
(dp2061
S'summary_detail'
p2062
g1
(g2
g3
(dp2063
g9
S'http://www.reddit.com/.rss?feed=42a611421f40a232c1c9635e3141aced337fba7d&user=frozencemetery'
p2064
sg11
S'text/html'
p2065
sg13
Nsg14
Vsubmitted by <a href="http://www.reddit.com/user/SolInvictus"> SolInvictus </a> to <a href="http://www.reddit.com/r/worldnews/"> worldnews</a> <br /> <a href="http://www.washingtonpost.com/wp-dyn/content/article/2011/02/13/AR2011021302092.html">[link]</a> <a href="http://www.reddit.com/r/worldnews/comments/fkpyl/get_this_mubaraks_official_monthly_salary_as/">[2 comments]</a>
p2066
stRp2067
sg90
g91
((I2011
I2
I13
I21
I14
I56
I6
I44
I0
t(dtRp2068
sg18
(lp2069
g1
(g2
g3
(dp2070
g21
Vhttp://www.reddit.com/r/worldnews/comments/fkpyl/get_this_mubaraks_official_monthly_salary_as/
p2071
sg11
g23
sg24
g25
stRp2072
asg29
VGet this: Mubarak's official monthly salary as president, $808 : Probe sought of Mubarak family's purported fortune.
p2073
sg98
VSun, 13 Feb 2011 21:14:56 +0000
p2074
sg100
g2066
sg101
I00
sS'title_detail'
p2075
g1
(g2
g3
(dp2076
g9
S'http://www.reddit.com/.rss?feed=42a611421f40a232c1c9635e3141aced337fba7d&user=frozencemetery'
p2077
sg11
S'text/plain'
p2078
sg13
Nsg14
g2073
stRp2079
sg30
g2071
sg72
(lp2080
g365
aV*
ag366
asg110
Vhttp://www.reddit.com/r/worldnews/comments/fkpyl/get_this_mubaraks_official_monthly_salary_as/
p2081
stRp2082
ag1
(g2
g3
(dp2083
S'summary_detail'
p2084
g1
(g2
g3
(dp2085
g9
S'http://www.reddit.com/.rss?feed=42a611421f40a232c1c9635e3141aced337fba7d&user=frozencemetery'
p2086
sg11
S'text/html'
p2087
sg13
Nsg14
Vsubmitted by <a href="http://www.reddit.com/user/Occidentalist"> Occidentalist </a> to <a href="http://www.reddit.com/r/worldnews/"> worldnews</a> <br /> <a href="http://www.washingtonpost.com/wp-dyn/content/article/2011/02/13/AR2011021301189.html">[link]</a> <a href="http://www.reddit.com/r/worldnews/comments/fkun2/egyptian_military_dissolves_parliament_and/">[comment]</a>
p2088
stRp2089
sg90
g91
((I2011
I2
I14
I1
I59
I41
I0
I45
I0
t(dtRp2090
sg18
(lp2091
g1
(g2
g3
(dp2092
g21
Vhttp://www.reddit.com/r/worldnews/comments/fkun2/egyptian_military_dissolves_parliament_and/
p2093
sg11
g23
sg24
g25
stRp2094
asg29
VEgyptian military dissolves parliament and suspends constitution | The leaders of the armed forces, however, said they would only keep power for six months, or until new elections can be held.
p2095
sg98
VMon, 14 Feb 2011 01:59:41 +0000
p2096
sg100
g2088
sg101
I00
sS'title_detail'
p2097
g1
(g2
g3
(dp2098
g9
S'http://www.reddit.com/.rss?feed=42a611421f40a232c1c9635e3141aced337fba7d&user=frozencemetery'
p2099
sg11
S'text/plain'
p2100
sg13
Nsg14
g2095
stRp2101
sg30
g2093
sg72
(lp2102
g1857
aV*
ag1858
asg110
Vhttp://www.reddit.com/r/worldnews/comments/fkun2/egyptian_military_dissolves_parliament_and/
p2103
stRp2104
ag1
(g2
g3
(dp2105
S'summary_detail'
p2106
g1
(g2
g3
(dp2107
g9
S'http://www.reddit.com/.rss?feed=42a611421f40a232c1c9635e3141aced337fba7d&user=frozencemetery'
p2108
sg11
S'text/html'
p2109
sg13
Nsg14
Vsubmitted by <a href="http://www.reddit.com/user/elr"> elr </a> to <a href="http://www.reddit.com/r/worldnews/"> worldnews</a> <br /> <a href="http://www.nytimes.com/2011/02/14/world/middleeast/14egypt-tunisia-protests.html?hp">[link]</a> <a href="http://www.reddit.com/r/worldnews/comments/fkxzz/excellent_in_depth_article_about_the_panarab/">[1 comment]</a>
p2110
stRp2111
sg90
g91
((I2011
I2
I14
I5
I25
I52
I0
I45
I0
t(dtRp2112
sg18
(lp2113
g1
(g2
g3
(dp2114
g21
Vhttp://www.reddit.com/r/worldnews/comments/fkxzz/excellent_in_depth_article_about_the_panarab/
p2115
sg11
g23
sg24
g25
stRp2116
asg29
VExcellent in depth article about the pan-arab collaborations, techniques, and philosophy behind the organizers of the egyptial uprising. Obama gets a bit part too.
p2117
sg98
VMon, 14 Feb 2011 05:25:52 +0000
p2118
sg100
g2110
sg101
I00
sS'title_detail'
p2119
g1
(g2
g3
(dp2120
g9
S'http://www.reddit.com/.rss?feed=42a611421f40a232c1c9635e3141aced337fba7d&user=frozencemetery'
p2121
sg11
S'text/plain'
p2122
sg13
Nsg14
g2117
stRp2123
sg30
g2115
sg72
(lp2124
g1144
aV*
ag1145
asg110
Vhttp://www.reddit.com/r/worldnews/comments/fkxzz/excellent_in_depth_article_about_the_panarab/
p2125
stRp2126
ag1
(g2
g3
(dp2127
S'summary_detail'
p2128
g1
(g2
g3
(dp2129
g9
S'http://www.reddit.com/.rss?feed=42a611421f40a232c1c9635e3141aced337fba7d&user=frozencemetery'
p2130
sg11
S'text/html'
p2131
sg13
Nsg14
Vsubmitted by <a href="http://www.reddit.com/user/iuliusg"> iuliusg </a> to <a href="http://www.reddit.com/r/worldnews/"> worldnews</a> <br /> <a href="http://www.bbc.co.uk/news/world-asia-pacific-12445335">[link]</a> <a href="http://www.reddit.com/r/worldnews/comments/fkxln/indonesian_cleric_abu_bakar_baasyir_trial_to/">[comment]</a>
p2132
stRp2133
sg90
g91
((I2011
I2
I14
I5
I5
I9
I0
I45
I0
t(dtRp2134
sg18
(lp2135
g1
(g2
g3
(dp2136
g21
Vhttp://www.reddit.com/r/worldnews/comments/fkxln/indonesian_cleric_abu_bakar_baasyir_trial_to/
p2137
sg11
g23
sg24
g25
stRp2138
asg29
VIndonesian cleric Abu Bakar Ba'asyir trial to resume
p2139
sg98
VMon, 14 Feb 2011 05:05:09 +0000
p2140
sg100
g2132
sg101
I00
sS'title_detail'
p2141
g1
(g2
g3
(dp2142
g9
S'http://www.reddit.com/.rss?feed=42a611421f40a232c1c9635e3141aced337fba7d&user=frozencemetery'
p2143
sg11
S'text/plain'
p2144
sg13
Nsg14
g2139
stRp2145
sg30
g2137
sg72
(lp2146
g1144
aV*
ag1145
asg110
Vhttp://www.reddit.com/r/worldnews/comments/fkxln/indonesian_cleric_abu_bakar_baasyir_trial_to/
p2147
stRp2148
ag1
(g2
g3
(dp2149
S'summary_detail'
p2150
g1
(g2
g3
(dp2151
g9
S'http://www.reddit.com/.rss?feed=42a611421f40a232c1c9635e3141aced337fba7d&user=frozencemetery'
p2152
sg11
S'text/html'
p2153
sg13
Nsg14
Vsubmitted by <a href="http://www.reddit.com/user/Laserfalcon"> Laserfalcon </a> to <a href="http://www.reddit.com/r/worldnews/"> worldnews</a> <br /> <a href="http://www.frequency.com/video/oil-gas-workers/2618648">[link]</a> <a href="http://www.reddit.com/r/worldnews/comments/fkptu/egyptian_oil_and_gas_workers_on_strike_in_nasr/">[4 comments]</a>
p2154
stRp2155
sg90
g91
((I2011
I2
I13
I21
I7
I41
I6
I44
I0
t(dtRp2156
sg18
(lp2157
g1
(g2
g3
(dp2158
g21
Vhttp://www.reddit.com/r/worldnews/comments/fkptu/egyptian_oil_and_gas_workers_on_strike_in_nasr/
p2159
sg11
g23
sg24
g25
stRp2160
asg29
VEgyptian Oil and Gas Workers on Strike in Nasr City. They're Demanding Better Workplace Treatment, and an Embargo on Israeli Shipments.
p2161
sg98
VSun, 13 Feb 2011 14:07:41 -0700
p2162
sg100
g2154
sg101
I00
sS'title_detail'
p2163
g1
(g2
g3
(dp2164
g9
S'http://www.reddit.com/.rss?feed=42a611421f40a232c1c9635e3141aced337fba7d&user=frozencemetery'
p2165
sg11
S'text/plain'
p2166
sg13
Nsg14
g2161
stRp2167
sg30
g2159
sg72
(lp2168
g365
aV*
ag366
asg110
Vhttp://www.reddit.com/r/worldnews/comments/fkptu/egyptian_oil_and_gas_workers_on_strike_in_nasr/
p2169
stRp2170
ag1
(g2
g3
(dp2171
S'summary_detail'
p2172
g1
(g2
g3
(dp2173
g9
S'http://www.reddit.com/.rss?feed=42a611421f40a232c1c9635e3141aced337fba7d&user=frozencemetery'
p2174
sg11
S'text/html'
p2175
sg13
Nsg14
Vsubmitted by <a href="http://www.reddit.com/user/SolInvictus"> SolInvictus </a> to <a href="http://www.reddit.com/r/worldnews/"> worldnews</a> <br /> <a href="http://www.globalpost.com/dispatch/egypt/110210/russia-today-al-jazeera-english">[link]</a> <a href="http://www.reddit.com/r/worldnews/comments/fkmo6/al_jazeera_english_vs_russia_today_two_takes_on/">[4 comments]</a>
p2176
stRp2177
sg90
g91
((I2011
I2
I13
I17
I58
I19
I6
I44
I0
t(dtRp2178
sg18
(lp2179
g1
(g2
g3
(dp2180
g21
Vhttp://www.reddit.com/r/worldnews/comments/fkmo6/al_jazeera_english_vs_russia_today_two_takes_on/
p2181
sg11
g23
sg24
g25
stRp2182
asg29
VAl Jazeera English vs. Russia Today: Two takes on Egypt, but only one shown on American television
p2183
sg98
VSun, 13 Feb 2011 17:58:19 +0000
p2184
sg100
g2176
sg101
I00
sS'title_detail'
p2185
g1
(g2
g3
(dp2186
g9
S'http://www.reddit.com/.rss?feed=42a611421f40a232c1c9635e3141aced337fba7d&user=frozencemetery'
p2187
sg11
S'text/plain'
p2188
sg13
Nsg14
g2183
stRp2189
sg30
g2181
sg72
(lp2190
g295
aV*
ag296
asg110
Vhttp://www.reddit.com/r/worldnews/comments/fkmo6/al_jazeera_english_vs_russia_today_two_takes_on/
p2191
stRp2192
ag1
(g2
g3
(dp2193
S'summary_detail'
p2194
g1
(g2
g3
(dp2195
g9
S'http://www.reddit.com/.rss?feed=42a611421f40a232c1c9635e3141aced337fba7d&user=frozencemetery'
p2196
sg11
S'text/html'
p2197
sg13
Nsg14
Vsubmitted by <a href="http://www.reddit.com/user/NinjaYoda"> NinjaYoda </a> to <a href="http://www.reddit.com/r/worldnews/"> worldnews</a> <br /> <a href="http://coloradoindependent.com/75026/killing-big-bird-gop-budget-would-end-pbs-npr-funding">[link]</a> <a href="http://www.reddit.com/r/worldnews/comments/fkj5t/killing_big_bird_gop_budget_would_end_pbs_npr/">[12 comments]</a>
p2198
stRp2199
sg90
g91
((I2011
I2
I13
I13
I7
I16
I6
I44
I0
t(dtRp2200
sg18
(lp2201
g1
(g2
g3
(dp2202
g21
Vhttp://www.reddit.com/r/worldnews/comments/fkj5t/killing_big_bird_gop_budget_would_end_pbs_npr/
p2203
sg11
g23
sg24
g25
stRp2204
asg29
VKilling Big Bird: GOP budget would end PBS / NPR funding.
p2205
sg98
VSun, 13 Feb 2011 13:07:16 +0000
p2206
sg100
g2198
sg101
I00
sS'title_detail'
p2207
g1
(g2
g3
(dp2208
g9
S'http://www.reddit.com/.rss?feed=42a611421f40a232c1c9635e3141aced337fba7d&user=frozencemetery'
p2209
sg11
S'text/plain'
p2210
sg13
Nsg14
g2205
stRp2211
sg30
g2203
sg72
(lp2212
g2036
aV*
ag1833
asg110
Vhttp://www.reddit.com/r/worldnews/comments/fkj5t/killing_big_bird_gop_budget_would_end_pbs_npr/
p2213
stRp2214
ag1
(g2
g3
(dp2215
S'summary_detail'
p2216
g1
(g2
g3
(dp2217
g9
S'http://www.reddit.com/.rss?feed=42a611421f40a232c1c9635e3141aced337fba7d&user=frozencemetery'
p2218
sg11
S'text/html'
p2219
sg13
Nsg14
Vsubmitted by <a href="http://www.reddit.com/user/DrRichardCranium"> DrRichardCranium </a> to <a href="http://www.reddit.com/r/worldnews/"> worldnews</a> <br /> <a href="http://www.opendemocracy.net/kristian-coates-ulrichsen-david-held-alia-brahimi/arab-1989">[link]</a> <a href="http://www.reddit.com/r/worldnews/comments/fkk6f/the_arab_1989_comparing_middle_east_revolts_with/">[3 comments]</a>
p2220
stRp2221
sg90
g91
((I2011
I2
I13
I14
I58
I50
I6
I44
I0
t(dtRp2222
sg18
(lp2223
g1
(g2
g3
(dp2224
g21
Vhttp://www.reddit.com/r/worldnews/comments/fkk6f/the_arab_1989_comparing_middle_east_revolts_with/
p2225
sg11
g23
sg24
g25
stRp2226
asg29
VThe Arab 1989? | comparing Middle East revolts with Eastern Europe in 1989. Economic stagnation, failure of authoritarian regimes, spreading awareness of alternate political systems point to similarities. One key difference remains
p2227
sg98
VSun, 13 Feb 2011 07:58:50 -0700
p2228
sg100
g2220
sg101
I00
sS'title_detail'
p2229
g1
(g2
g3
(dp2230
g9
S'http://www.reddit.com/.rss?feed=42a611421f40a232c1c9635e3141aced337fba7d&user=frozencemetery'
p2231
sg11
S'text/plain'
p2232
sg13
Nsg14
g2227
stRp2233
sg30
g2225
sg72
(lp2234
g2036
aV*
ag1833
asg110
Vhttp://www.reddit.com/r/worldnews/comments/fkk6f/the_arab_1989_comparing_middle_east_revolts_with/
p2235
stRp2236
ag1
(g2
g3
(dp2237
S'summary_detail'
p2238
g1
(g2
g3
(dp2239
g9
S'http://www.reddit.com/.rss?feed=42a611421f40a232c1c9635e3141aced337fba7d&user=frozencemetery'
p2240
sg11
S'text/html'
p2241
sg13
Nsg14
Vsubmitted by <a href="http://www.reddit.com/user/levmyshkin"> levmyshkin </a> to <a href="http://www.reddit.com/r/worldnews/"> worldnews</a> <br /> <a href="http://www.youtube.com/watch?v=7ByEhruGmXE">[link]</a> <a href="http://www.reddit.com/r/worldnews/comments/fkpl8/footage_of_the_egyptian_revolution_set_to_carl/">[comment]</a>
p2242
stRp2243
sg90
g91
((I2011
I2
I13
I20
I54
I4
I6
I44
I0
t(dtRp2244
sg18
(lp2245
g1
(g2
g3
(dp2246
g21
Vhttp://www.reddit.com/r/worldnews/comments/fkpl8/footage_of_the_egyptian_revolution_set_to_carl/
p2247
sg11
g23
sg24
g25
stRp2248
asg29
VFootage of the Egyptian revolution set to Carl Sagan's "Earth: The Pale Blue Dot," spoken word essay.
p2249
sg98
VSun, 13 Feb 2011 13:54:04 -0700
p2250
sg100
g2242
sg101
I00
sS'title_detail'
p2251
g1
(g2
g3
(dp2252
g9
S'http://www.reddit.com/.rss?feed=42a611421f40a232c1c9635e3141aced337fba7d&user=frozencemetery'
p2253
sg11
S'text/plain'
p2254
sg13
Nsg14
g2249
stRp2255
sg30
g2247
sg72
(lp2256
g365
aV*
ag366
asg110
Vhttp://www.reddit.com/r/worldnews/comments/fkpl8/footage_of_the_egyptian_revolution_set_to_carl/
p2257
stRp2258
ag1
(g2
g3
(dp2259
S'summary_detail'
p2260
g1
(g2
g3
(dp2261
g9
S'http://www.reddit.com/.rss?feed=42a611421f40a232c1c9635e3141aced337fba7d&user=frozencemetery'
p2262
sg11
S'text/html'
p2263
sg13
Nsg14
Vsubmitted by <a href="http://www.reddit.com/user/Trax"> Trax </a> to <a href="http://www.reddit.com/r/worldnews/"> worldnews</a> <br /> <a href="http://www.bbc.co.uk/news/world-asia-pacific-12443104">[link]</a> <a href="http://www.reddit.com/r/worldnews/comments/fkmae/malaysia_has_warned_muslim_citizens_valentines/">[1 comment]</a>
p2264
stRp2265
sg90
g91
((I2011
I2
I13
I17
I32
I49
I6
I44
I0
t(dtRp2266
sg18
(lp2267
g1
(g2
g3
(dp2268
g21
Vhttp://www.reddit.com/r/worldnews/comments/fkmae/malaysia_has_warned_muslim_citizens_valentines/
p2269
sg11
g23
sg24
g25
stRp2270
asg29
VMalaysia has warned Muslim citizens Valentines Day can encourage immoral behavior
p2271
sg98
VSun, 13 Feb 2011 17:32:49 +0000
p2272
sg100
g2264
sg101
I00
sS'title_detail'
p2273
g1
(g2
g3
(dp2274
g9
S'http://www.reddit.com/.rss?feed=42a611421f40a232c1c9635e3141aced337fba7d&user=frozencemetery'
p2275
sg11
S'text/plain'
p2276
sg13
Nsg14
g2271
stRp2277
sg30
g2269
sg72
(lp2278
g295
aV*
ag296
asg110
Vhttp://www.reddit.com/r/worldnews/comments/fkmae/malaysia_has_warned_muslim_citizens_valentines/
p2279
stRp2280
ag1
(g2
g3
(dp2281
S'summary_detail'
p2282
g1
(g2
g3
(dp2283
g9
S'http://www.reddit.com/.rss?feed=42a611421f40a232c1c9635e3141aced337fba7d&user=frozencemetery'
p2284
sg11
S'text/html'
p2285
sg13
Nsg14
Vsubmitted by <a href="http://www.reddit.com/user/bobored"> bobored </a> to <a href="http://www.reddit.com/r/worldnews/"> worldnews</a> <br /> <a href="http://www.washingtonpost.com/wp-dyn/content/article/2011/02/12/AR2011021203572.html">[link]</a> <a href="http://www.reddit.com/r/worldnews/comments/fklcb/egyptians_take_pride_and_joy_in_cleaning_up_tahir/">[2 comments]</a>
p2286
stRp2287
sg90
g91
((I2011
I2
I13
I16
I28
I50
I6
I44
I0
t(dtRp2288
sg18
(lp2289
g1
(g2
g3
(dp2290
g21
Vhttp://www.reddit.com/r/worldnews/comments/fklcb/egyptians_take_pride_and_joy_in_cleaning_up_tahir/
p2291
sg11
g23
sg24
g25
stRp2292
asg29
VEgyptians take pride and joy in cleaning up Tahir Square post their great victory.
p2293
sg98
VSun, 13 Feb 2011 09:28:50 -0700
p2294
sg100
g2286
sg101
I00
sS'title_detail'
p2295
g1
(g2
g3
(dp2296
g9
S'http://www.reddit.com/.rss?feed=42a611421f40a232c1c9635e3141aced337fba7d&user=frozencemetery'
p2297
sg11
S'text/plain'
p2298
sg13
Nsg14
g2293
stRp2299
sg30
g2291
sg72
(lp2300
g1832
aV*
ag1833
asg110
Vhttp://www.reddit.com/r/worldnews/comments/fklcb/egyptians_take_pride_and_joy_in_cleaning_up_tahir/
p2301
stRp2302
ag1
(g2
g3
(dp2303
S'summary_detail'
p2304
g1
(g2
g3
(dp2305
g9
S'http://www.reddit.com/.rss?feed=42a611421f40a232c1c9635e3141aced337fba7d&user=frozencemetery'
p2306
sg11
S'text/html'
p2307
sg13
Nsg14
Vsubmitted by <a href="http://www.reddit.com/user/sideliner"> sideliner </a> to <a href="http://www.reddit.com/r/worldnews/"> worldnews</a> <br /> <a href="http://www.ctv.ca/CTVNews/TopStories/20110213/yemen-protests-grow-110213/">[link]</a> <a href="http://www.reddit.com/r/worldnews/comments/fkoq4/yemens_antigovernment_protests_continue_to_grow/">[comment]</a>
p2308
stRp2309
sg90
g91
((I2011
I2
I13
I20
I3
I0
I6
I44
I0
t(dtRp2310
sg18
(lp2311
g1
(g2
g3
(dp2312
g21
Vhttp://www.reddit.com/r/worldnews/comments/fkoq4/yemens_antigovernment_protests_continue_to_grow/
p2313
sg11
g23
sg24
g25
stRp2314
asg29
VYemen's anti-government protests continue to grow
p2315
sg98
VSun, 13 Feb 2011 13:03:00 -0700
p2316
sg100
g2308
sg101
I00
sS'title_detail'
p2317
g1
(g2
g3
(dp2318
g9
S'http://www.reddit.com/.rss?feed=42a611421f40a232c1c9635e3141aced337fba7d&user=frozencemetery'
p2319
sg11
S'text/plain'
p2320
sg13
Nsg14
g2315
stRp2321
sg30
g2313
sg72
(lp2322
g365
aV*
ag366
asg110
Vhttp://www.reddit.com/r/worldnews/comments/fkoq4/yemens_antigovernment_protests_continue_to_grow/
p2323
stRp2324
astRp2325
.