ccopy_reg
_reconstructor
p1
(cfeedparser
FeedParserDict
p2
c__builtin__
dict
p3
(dp4
S'feed'
p5
g1
(g2
g3
(dp6
S'lastbuilddate'
p7
VWed, 02 Feb 2011 10:12:00 +0000
p8
sS'updated'
p9
VWed, 02 Feb 2011 10:12:00 +0000
p10
sS'subtitle'
p11
VA different Garfield mash-up every strip!
p12
sS'links'
p13
(lp14
g1
(g2
g3
(dp15
S'href'
p16
Vhttp://www.mezzacotta.net/garfield/
p17
sS'type'
p18
S'text/html'
p19
sS'rel'
p20
S'alternate'
p21
stRp22
ag1
(g2
g3
(dp23
g18
g19
sg20
g21
stRp24
asS'language'
p25
Ven-au
p26
sS'title'
p27
VSquare Root of Minus Garfield
p28
sS'image'
p29
g1
(g2
g3
(dp30
S'width'
p31
I88
sg16
Vhttp://www.mezzacotta.net/garfield/squarerootofminusgarfield88x31.png
p32
sS'link'
p33
Vhttp://www.mezzacotta.net/garfield/
p34
sg27
VSquare Root of Minus Garfield
p35
sS'height'
p36
I31
stRp37
sS'generator'
p38
VCustom RSS generating script
p39
sS'generator_detail'
p40
g1
(g2
g3
(dp41
S'name'
p42
g39
stRp43
sS'subtitle_detail'
p44
g1
(g2
g3
(dp45
S'base'
p46
S'http://www.mezzacotta.net/garfield/rss.xml'
p47
sg18
S'text/html'
p48
sg25
NsS'value'
p49
g12
stRp50
sS'title_detail'
p51
g1
(g2
g3
(dp52
g46
S'http://www.mezzacotta.net/garfield/rss.xml'
p53
sg18
S'text/plain'
p54
sg25
Nsg49
g28
stRp55
sg33
g17
sS'updated_parsed'
p56
ctime
struct_time
p57
((I2011
I2
I2
I10
I12
I0
I2
I33
I0
t(dtRp58
stRp59
sS'status'
p60
I200
sg9
g57
((I2011
I2
I2
I10
I10
I2
I2
I33
I0
t(dtRp61
sS'encoding'
p62
S'utf-8'
p63
sS'bozo'
p64
I0
sS'entries'
p65
(lp66
g1
(g2
g3
(dp67
g9
VWed, 02 Feb 2011 10:12:00 +0000
p68
sg56
g57
((I2011
I2
I2
I10
I12
I0
I2
I33
I0
t(dtRp69
sg27
VNo. 624: Garfield Springsteen Garfield
p70
sS'summary_detail'
p71
g1
(g2
g3
(dp72
g46
S'http://www.mezzacotta.net/garfield/rss.xml'
p73
sg18
S'text/html'
p74
sg25
Nsg49
V<img src="http://www.mezzacotta.net/garfield/comics/0624.png" width="600" height="178" alt="Garfield Springsteen Garfield" />
p75
stRp76
sS'summary'
p77
g75
sS'guidislink'
p78
I01
sS'title_detail'
p79
g1
(g2
g3
(dp80
g46
S'http://www.mezzacotta.net/garfield/rss.xml'
p81
sg18
S'text/plain'
p82
sg25
Nsg49
g70
stRp83
sg33
Vhttp://www.mezzacotta.net/garfield/?comic=624
p84
sS'canto_state'
p85
(lp86
VSquare Root of Minus Garfield
p87
aV*
aS'read'
p88
asS'id'
p89
g84
stRp90
ag1
(g2
g3
(dp91
g9
VTue, 01 Feb 2011 10:12:00 +0000
p92
sg56
g57
((I2011
I2
I1
I10
I12
I0
I1
I32
I0
t(dtRp93
sg27
VNo. 623: Garfield Mimes Garfield
p94
sS'summary_detail'
p95
g1
(g2
g3
(dp96
g46
S'http://www.mezzacotta.net/garfield/rss.xml'
p97
sg18
S'text/html'
p98
sg25
Nsg49
V<img src="http://www.mezzacotta.net/garfield/comics/0623.png" width="600" height="178" alt="Garfield Mimes Garfield" />
p99
stRp100
sg77
g99
sg78
I01
sS'title_detail'
p101
g1
(g2
g3
(dp102
g46
S'http://www.mezzacotta.net/garfield/rss.xml'
p103
sg18
S'text/plain'
p104
sg25
Nsg49
g94
stRp105
sg33
Vhttp://www.mezzacotta.net/garfield/?comic=623
p106
sg85
(lp107
VSquare Root of Minus Garfield
p108
aV*
aS'read'
p109
asg89
g106
stRp110
ag1
(g2
g3
(dp111
g9
VMon, 31 Jan 2011 10:12:00 +0000
p112
sg56
g57
((I2011
I1
I31
I10
I12
I0
I0
I31
I0
t(dtRp113
sg27
VNo. 622: Garfield Swinub Garfield
p114
sS'summary_detail'
p115
g1
(g2
g3
(dp116
g46
S'http://www.mezzacotta.net/garfield/rss.xml'
p117
sg18
S'text/html'
p118
sg25
Nsg49
V<img src="http://www.mezzacotta.net/garfield/comics/0622.png" width="600" height="178" alt="Garfield Swinub Garfield" />
p119
stRp120
sg77
g119
sg78
I01
sS'title_detail'
p121
g1
(g2
g3
(dp122
g46
S'http://www.mezzacotta.net/garfield/rss.xml'
p123
sg18
S'text/plain'
p124
sg25
Nsg49
g114
stRp125
sg33
Vhttp://www.mezzacotta.net/garfield/?comic=622
p126
sg85
(lp127
VSquare Root of Minus Garfield
p128
aV*
aS'read'
p129
asg89
g126
stRp130
ag1
(g2
g3
(dp131
g9
VSun, 30 Jan 2011 10:12:00 +0000
p132
sg56
g57
((I2011
I1
I30
I10
I12
I0
I6
I30
I0
t(dtRp133
sg27
VNo. 621: Garfield Manus Garfield
p134
sS'summary_detail'
p135
g1
(g2
g3
(dp136
g46
S'http://www.mezzacotta.net/garfield/rss.xml'
p137
sg18
S'text/html'
p138
sg25
Nsg49
V<img src="http://www.mezzacotta.net/garfield/comics/0621.png" width="600" height="178" alt="Garfield Manus Garfield" />
p139
stRp140
sg77
g139
sg78
I01
sS'title_detail'
p141
g1
(g2
g3
(dp142
g46
S'http://www.mezzacotta.net/garfield/rss.xml'
p143
sg18
S'text/plain'
p144
sg25
Nsg49
g134
stRp145
sg33
Vhttp://www.mezzacotta.net/garfield/?comic=621
p146
sg85
(lp147
VSquare Root of Minus Garfield
p148
aV*
aVnew
p149
aS'read'
p150
asg89
g146
stRp151
ag1
(g2
g3
(dp152
g9
VSat, 29 Jan 2011 10:12:00 +0000
p153
sg56
g57
((I2011
I1
I29
I10
I12
I0
I5
I29
I0
t(dtRp154
sg27
VNo. 620: Garfield Lines Garfield
p155
sS'summary_detail'
p156
g1
(g2
g3
(dp157
g46
S'http://www.mezzacotta.net/garfield/rss.xml'
p158
sg18
S'text/html'
p159
sg25
Nsg49
V<img src="http://www.mezzacotta.net/garfield/comics/0620.png" width="600" height="178" alt="Garfield Lines Garfield" />
p160
stRp161
sg77
g160
sg78
I01
sS'title_detail'
p162
g1
(g2
g3
(dp163
g46
S'http://www.mezzacotta.net/garfield/rss.xml'
p164
sg18
S'text/plain'
p165
sg25
Nsg49
g155
stRp166
sg33
Vhttp://www.mezzacotta.net/garfield/?comic=620
p167
sg85
(lp168
g148
aV*
ag149
aS'read'
p169
asg89
g167
stRp170
ag1
(g2
g3
(dp171
S'summary_detail'
p172
g1
(g2
g3
(dp173
S'base'
p174
S'http://www.mezzacotta.net/garfield/rss.xml'
p175
sS'type'
p176
S'text/html'
p177
sS'value'
p178
V<img src="http://www.mezzacotta.net/garfield/comics/0619.png" width="599" height="175" alt="Garf At Your Own Joke" />
p179
sS'language'
p180
NstRp181
sS'updated_parsed'
p182
g57
((I2011
I1
I28
I10
I12
I0
I4
I28
I0
t(dtRp183
sS'title'
p184
VNo. 619: Garf At Your Own Joke
p185
sS'updated'
p186
VFri, 28 Jan 2011 10:12:00 +0000
p187
sS'summary'
p188
g179
sS'guidislink'
p189
I01
sS'title_detail'
p190
g1
(g2
g3
(dp191
g174
S'http://www.mezzacotta.net/garfield/rss.xml'
p192
sg176
S'text/plain'
p193
sg178
g185
sg180
NstRp194
sS'link'
p195
Vhttp://www.mezzacotta.net/garfield/?comic=619
p196
sS'canto_state'
p197
(lp198
VSquare Root of Minus Garfield
p199
aV*
aVnew
p200
aS'read'
p201
asS'id'
p202
g196
stRp203
ag1
(g2
g3
(dp204
S'summary_detail'
p205
g1
(g2
g3
(dp206
S'base'
p207
S'http://www.mezzacotta.net/garfield/rss.xml'
p208
sS'type'
p209
S'text/html'
p210
sS'language'
p211
NsS'value'
p212
V<img src="http://www.mezzacotta.net/garfield/comics/0618.png" width="600" height="178" alt="Garfield My Nose Garfield" />
p213
stRp214
sS'updated_parsed'
p215
g57
((I2011
I1
I27
I10
I12
I0
I3
I27
I0
t(dtRp216
sS'title'
p217
VNo. 618: Garfield My Nose Garfield
p218
sS'updated'
p219
VThu, 27 Jan 2011 10:12:00 +0000
p220
sS'summary'
p221
g213
sS'guidislink'
p222
I01
sS'title_detail'
p223
g1
(g2
g3
(dp224
g207
S'http://www.mezzacotta.net/garfield/rss.xml'
p225
sg209
S'text/plain'
p226
sg211
Nsg212
g218
stRp227
sS'link'
p228
Vhttp://www.mezzacotta.net/garfield/?comic=618
p229
sS'canto_state'
p230
(lp231
VSquare Root of Minus Garfield
p232
aV*
aVnew
p233
aS'read'
p234
asS'id'
p235
g229
stRp236
ag1
(g2
g3
(dp237
S'summary_detail'
p238
g1
(g2
g3
(dp239
S'base'
p240
S'http://www.mezzacotta.net/garfield/rss.xml'
p241
sS'type'
p242
S'text/html'
p243
sS'value'
p244
V<img src="http://www.mezzacotta.net/garfield/comics/0617.png" width="274" height="320" alt="Orange Cat Exchange Program" />
p245
sS'language'
p246
NstRp247
sS'updated_parsed'
p248
g57
((I2011
I1
I26
I10
I12
I0
I2
I26
I0
t(dtRp249
sS'title'
p250
VNo. 617: Orange Cat Exchange Program
p251
sS'updated'
p252
VWed, 26 Jan 2011 10:12:00 +0000
p253
sS'summary'
p254
g245
sS'guidislink'
p255
I01
sS'title_detail'
p256
g1
(g2
g3
(dp257
g240
S'http://www.mezzacotta.net/garfield/rss.xml'
p258
sg242
S'text/plain'
p259
sg244
g251
sg246
NstRp260
sS'link'
p261
Vhttp://www.mezzacotta.net/garfield/?comic=617
p262
sS'canto_state'
p263
(lp264
VSquare Root of Minus Garfield
p265
aV*
aVnew
p266
aS'read'
p267
asS'id'
p268
g262
stRp269
ag1
(g2
g3
(dp270
S'summary_detail'
p271
g1
(g2
g3
(dp272
S'base'
p273
S'http://www.mezzacotta.net/garfield/rss.xml'
p274
sS'type'
p275
S'text/html'
p276
sS'language'
p277
NsS'value'
p278
V<img src="http://www.mezzacotta.net/garfield/comics/0616.png" width="600" height="178" alt="A New Punchline" />
p279
stRp280
sS'updated_parsed'
p281
g57
((I2011
I1
I25
I10
I12
I0
I1
I25
I0
t(dtRp282
sS'title'
p283
VNo. 616: A New Punchline
p284
sS'updated'
p285
VTue, 25 Jan 2011 10:12:00 +0000
p286
sS'summary'
p287
g279
sS'guidislink'
p288
I01
sS'title_detail'
p289
g1
(g2
g3
(dp290
g273
S'http://www.mezzacotta.net/garfield/rss.xml'
p291
sg275
S'text/plain'
p292
sg277
Nsg278
g284
stRp293
sS'link'
p294
Vhttp://www.mezzacotta.net/garfield/?comic=616
p295
sS'canto_state'
p296
(lp297
VSquare Root of Minus Garfield
p298
aV*
aVnew
p299
aS'read'
p300
asS'id'
p301
g295
stRp302
ag1
(g2
g3
(dp303
S'summary_detail'
p304
g1
(g2
g3
(dp305
g273
S'http://www.mezzacotta.net/garfield/rss.xml'
p306
sg275
S'text/html'
p307
sg277
Nsg278
V<img src="http://www.mezzacotta.net/garfield/comics/0615.png" width="600" height="179" alt="The Great Gatsfield" />
p308
stRp309
sg281
g57
((I2011
I1
I24
I10
I12
I0
I0
I24
I0
t(dtRp310
sg283
VNo. 615: The Great Gatsfield
p311
sg285
VMon, 24 Jan 2011 10:12:00 +0000
p312
sg287
g308
sg288
I01
sS'title_detail'
p313
g1
(g2
g3
(dp314
g273
S'http://www.mezzacotta.net/garfield/rss.xml'
p315
sg275
S'text/plain'
p316
sg277
Nsg278
g311
stRp317
sg294
Vhttp://www.mezzacotta.net/garfield/?comic=615
p318
sg296
(lp319
VSquare Root of Minus Garfield
p320
aV*
aVnew
p321
aS'read'
p322
asg301
g318
stRp323
ag1
(g2
g3
(dp324
S'summary_detail'
p325
g1
(g2
g3
(dp326
S'base'
p327
S'http://www.mezzacotta.net/garfield/rss.xml'
p328
sS'type'
p329
S'text/html'
p330
sS'value'
p331
V<img src="http://www.mezzacotta.net/garfield/comics/0614.png" width="600" height="178" alt="Garfield Garfield Garfield" />
p332
sS'language'
p333
NstRp334
sS'updated_parsed'
p335
g57
((I2011
I1
I23
I10
I12
I0
I6
I23
I0
t(dtRp336
sS'title'
p337
VNo. 614: Garfield Garfield Garfield
p338
sS'updated'
p339
VSun, 23 Jan 2011 10:12:00 +0000
p340
sS'summary'
p341
g332
sS'guidislink'
p342
I01
sS'title_detail'
p343
g1
(g2
g3
(dp344
g327
S'http://www.mezzacotta.net/garfield/rss.xml'
p345
sg329
S'text/plain'
p346
sg331
g338
sg333
NstRp347
sS'link'
p348
Vhttp://www.mezzacotta.net/garfield/?comic=614
p349
sS'canto_state'
p350
(lp351
VSquare Root of Minus Garfield
p352
aV*
aVnew
p353
aS'read'
p354
asS'id'
p355
g349
stRp356
ag1
(g2
g3
(dp357
S'summary_detail'
p358
g1
(g2
g3
(dp359
S'base'
p360
S'http://www.mezzacotta.net/garfield/rss.xml'
p361
sS'type'
p362
S'text/html'
p363
sS'language'
p364
NsS'value'
p365
V<img src="http://www.mezzacotta.net/garfield/comics/0613.png" width="600" height="178" alt="Constantly Changing" />
p366
stRp367
sS'updated_parsed'
p368
g57
((I2011
I1
I22
I10
I12
I0
I5
I22
I0
t(dtRp369
sS'title'
p370
VNo. 613: Constantly Changing
p371
sS'updated'
p372
VSat, 22 Jan 2011 10:12:00 +0000
p373
sS'summary'
p374
g366
sS'guidislink'
p375
I01
sS'title_detail'
p376
g1
(g2
g3
(dp377
g360
S'http://www.mezzacotta.net/garfield/rss.xml'
p378
sg362
S'text/plain'
p379
sg364
Nsg365
g371
stRp380
sS'link'
p381
Vhttp://www.mezzacotta.net/garfield/?comic=613
p382
sS'canto_state'
p383
(lp384
g352
aV*
ag353
ag354
asS'id'
p385
g382
stRp386
ag1
(g2
g3
(dp387
S'summary_detail'
p388
g1
(g2
g3
(dp389
S'base'
p390
S'http://www.mezzacotta.net/garfield/rss.xml'
p391
sS'type'
p392
S'text/html'
p393
sS'language'
p394
NsS'value'
p395
V<img src="http://www.mezzacotta.net/garfield/comics/0612.png" width="600" height="178" alt="Jon's Punishment" />
p396
stRp397
sS'updated_parsed'
p398
g57
((I2011
I1
I21
I10
I12
I0
I4
I21
I0
t(dtRp399
sS'title'
p400
VNo. 612: Jon's Punishment
p401
sS'updated'
p402
VFri, 21 Jan 2011 10:12:00 +0000
p403
sS'summary'
p404
g396
sS'guidislink'
p405
I01
sS'title_detail'
p406
g1
(g2
g3
(dp407
g390
S'http://www.mezzacotta.net/garfield/rss.xml'
p408
sg392
S'text/plain'
p409
sg394
Nsg395
g401
stRp410
sS'link'
p411
Vhttp://www.mezzacotta.net/garfield/?comic=612
p412
sS'canto_state'
p413
(lp414
g352
aV*
ag353
ag354
asS'id'
p415
g412
stRp416
ag1
(g2
g3
(dp417
S'summary_detail'
p418
g1
(g2
g3
(dp419
S'base'
p420
S'http://www.mezzacotta.net/garfield/rss.xml'
p421
sS'type'
p422
S'text/html'
p423
sS'value'
p424
V<img src="http://www.mezzacotta.net/garfield/comics/0611.png" width="600" height="176" alt="Garfield Minuet Garfield" />
p425
sS'language'
p426
NstRp427
sS'updated_parsed'
p428
g57
((I2011
I1
I20
I10
I12
I0
I3
I20
I0
t(dtRp429
sS'title'
p430
VNo. 611: Garfield Minuet Garfield
p431
sS'updated'
p432
VThu, 20 Jan 2011 10:12:00 +0000
p433
sS'summary'
p434
g425
sS'guidislink'
p435
I01
sS'title_detail'
p436
g1
(g2
g3
(dp437
g420
S'http://www.mezzacotta.net/garfield/rss.xml'
p438
sg422
S'text/plain'
p439
sg424
g431
sg426
NstRp440
sS'link'
p441
Vhttp://www.mezzacotta.net/garfield/?comic=611
p442
sS'canto_state'
p443
(lp444
g352
aV*
ag353
ag354
asS'id'
p445
g442
stRp446
ag1
(g2
g3
(dp447
S'summary_detail'
p448
g1
(g2
g3
(dp449
S'base'
p450
S'http://www.mezzacotta.net/garfield/rss.xml'
p451
sS'type'
p452
S'text/html'
p453
sS'value'
p454
V<img src="http://www.mezzacotta.net/garfield/comics/0610.png" width="602" height="412" alt="Random No Sundays" />
p455
sS'language'
p456
NstRp457
sS'updated_parsed'
p458
g57
((I2011
I1
I19
I10
I12
I0
I2
I19
I0
t(dtRp459
sS'title'
p460
VNo. 610: Random No Sundays
p461
sS'updated'
p462
VWed, 19 Jan 2011 10:12:00 +0000
p463
sS'summary'
p464
g455
sS'guidislink'
p465
I01
sS'title_detail'
p466
g1
(g2
g3
(dp467
g450
S'http://www.mezzacotta.net/garfield/rss.xml'
p468
sg452
S'text/plain'
p469
sg454
g461
sg456
NstRp470
sS'link'
p471
Vhttp://www.mezzacotta.net/garfield/?comic=610
p472
sS'canto_state'
p473
(lp474
g352
aV*
ag353
ag354
asS'id'
p475
g472
stRp476
asS'canto_update'
p477
F1296654981.9036629
sS'headers'
p478
(dp479
S'content-length'
p480
S'2737'
p481
sS'accept-ranges'
p482
S'bytes'
p483
sS'server'
p484
S'Apache'
p485
sS'last-modified'
p486
S'Wed, 02 Feb 2011 10:10:02 GMT'
p487
sS'connection'
p488
S'close'
p489
sS'etag'
p490
S'"198a40e2-ab1-49b49da2ad280"'
p491
sS'date'
p492
S'Wed, 02 Feb 2011 13:56:18 GMT'
p493
sS'content-type'
p494
S'application/xml'
p495
ssg16
S'http://www.mezzacotta.net/garfield/rss.xml'
p496
sS'version'
p497
S'rss20'
p498
sg85
(lp499
sS'etag'
p500
g491
sS'namespaces'
p501
(dp502
sS'canto_version'
p503
(I0
I7
I9
tp504
stRp505
.