ccopy_reg
_reconstructor
p1
(cfeedparser
FeedParserDict
p2
c__builtin__
dict
p3
(dp4
S'feed'
p5
g1
(g2
g3
(dp6
S'lastbuilddate'
p7
V
sS'subtitle'
p8
VWebcomic
p9
sS'links'
p10
(lp11
g1
(g2
g3
(dp12
S'href'
p13
Vhttp://hipsterhitler.com/feed/
p14
sS'type'
p15
Vapplication/rss+xml
p16
sS'rel'
p17
Vself
p18
stRp19
ag1
(g2
g3
(dp20
S'href'
p21
Vhttp://hipsterhitler.com
p22
sS'type'
p23
S'text/html'
p24
sS'rel'
p25
S'alternate'
p26
stRp27
asS'language'
p28
Ven
p29
sS'title'
p30
VHipster Hitler
p31
sS'generator'
p32
Vhttp://wordpress.org/?v=3.0.5
p33
sS'generator_detail'
p34
g1
(g2
g3
(dp35
S'name'
p36
g33
stRp37
sS'subtitle_detail'
p38
g1
(g2
g3
(dp39
S'base'
p40
S'http://hipsterhitler.com/feed/'
p41
sg23
S'text/html'
p42
sg28
NsS'value'
p43
g9
stRp44
sS'title_detail'
p45
g1
(g2
g3
(dp46
g40
S'http://hipsterhitler.com/feed/'
p47
sg23
S'text/plain'
p48
sg28
Nsg43
g31
stRp49
sS'link'
p50
g22
sS'sy_updateperiod'
p51
Vhourly
p52
sS'sy_updatefrequency'
p53
V1
stRp54
sS'status'
p55
I200
sS'updated'
p56
ctime
struct_time
p57
((I1970
I1
I1
I0
I0
I0
I3
I1
I0
t(dtRp58
sS'encoding'
p59
S'UTF-8'
p60
sS'bozo'
p61
I0
sS'entries'
p62
(lp63
g1
(g2
g3
(dp64
g56
VFri, 11 Feb 2011 05:09:27 +0000
p65
sS'updated_parsed'
p66
g57
((I2011
I2
I11
I5
I9
I27
I4
I42
I0
t(dtRp67
sg10
(lp68
g1
(g2
g3
(dp69
g21
Vhttp://hipsterhitler.com/archive/morse/
p70
sg23
g24
sg25
g26
stRp71
asS'summary_detail'
p72
g1
(g2
g3
(dp73
g40
S'http://hipsterhitler.com/feed/'
p74
sg23
S'text/html'
p75
sg28
Nsg43
V
stRp76
sg50
g70
sS'wfw_commentrss'
p77
Vhttp://hipsterhitler.com/archive/morse/feed/
p78
sS'id'
p79
Vhttp://hipsterhitler.com/?post_type=webcomic_post&p=1103
p80
sS'slash_comments'
p81
V0
sg30
VMorse
p82
sS'author'
p83
Vhipsterhitler
p84
sS'comments'
p85
Vhttp://hipsterhitler.com/archive/morse/#comments
p86
sS'summary'
p87
V
sS'content'
p88
(lp89
g1
(g2
g3
(dp90
g40
S'http://hipsterhitler.com/feed/'
p91
sg23
S'text/html'
p92
sg28
Nsg43
V
stRp93
asS'guidislink'
p94
I00
sS'title_detail'
p95
g1
(g2
g3
(dp96
g40
S'http://hipsterhitler.com/feed/'
p97
sg23
S'text/plain'
p98
sg28
Nsg43
g82
stRp99
sS'canto_state'
p100
(lp101
VHipster Hitler
p102
aV*
aS'read'
p103
astRp104
ag1
(g2
g3
(dp105
g56
VWed, 02 Feb 2011 21:19:38 +0000
p106
sg66
g57
((I2011
I2
I2
I21
I19
I38
I2
I33
I0
t(dtRp107
sg10
(lp108
g1
(g2
g3
(dp109
g21
Vhttp://hipsterhitler.com/archive/protests/
p110
sg23
g24
sg25
g26
stRp111
asS'summary_detail'
p112
g1
(g2
g3
(dp113
g40
S'http://hipsterhitler.com/feed/'
p114
sg23
S'text/html'
p115
sg28
Nsg43
V
stRp116
sg50
g110
sS'wfw_commentrss'
p117
Vhttp://hipsterhitler.com/archive/protests/feed/
p118
sg79
Vhttp://hipsterhitler.com/?post_type=webcomic_post&p=1101
p119
sS'slash_comments'
p120
V0
sg30
VProtests
p121
sg83
Vhipsterhitler
p122
sS'comments'
p123
Vhttp://hipsterhitler.com/archive/protests/#comments
p124
sg87
V
sg88
(lp125
g1
(g2
g3
(dp126
g40
S'http://hipsterhitler.com/feed/'
p127
sg23
S'text/html'
p128
sg28
Nsg43
V
stRp129
asg94
I00
sS'title_detail'
p130
g1
(g2
g3
(dp131
g40
S'http://hipsterhitler.com/feed/'
p132
sg23
S'text/plain'
p133
sg28
Nsg43
g121
stRp134
sg100
(lp135
VHipster Hitler
p136
aV*
aS'read'
p137
astRp138
ag1
(g2
g3
(dp139
g56
VWed, 26 Jan 2011 05:35:05 +0000
p140
sg66
g57
((I2011
I1
I26
I5
I35
I5
I2
I26
I0
t(dtRp141
sg10
(lp142
g1
(g2
g3
(dp143
g21
Vhttp://hipsterhitler.com/archive/military-operations/
p144
sg23
g24
sg25
g26
stRp145
asS'summary_detail'
p146
g1
(g2
g3
(dp147
g40
S'http://hipsterhitler.com/feed/'
p148
sg23
S'text/html'
p149
sg28
Nsg43
V
stRp150
sg50
g144
sS'wfw_commentrss'
p151
Vhttp://hipsterhitler.com/archive/military-operations/feed/
p152
sg79
Vhttp://hipsterhitler.com/?post_type=webcomic_post&p=1098
p153
sS'slash_comments'
p154
V0
sg30
VMilitary Operations
p155
sg83
Vhipsterhitler
p156
sS'comments'
p157
Vhttp://hipsterhitler.com/archive/military-operations/#comments
p158
sg87
V
sg88
(lp159
g1
(g2
g3
(dp160
g40
S'http://hipsterhitler.com/feed/'
p161
sg23
S'text/html'
p162
sg28
Nsg43
V
stRp163
asg94
I00
sS'title_detail'
p164
g1
(g2
g3
(dp165
g40
S'http://hipsterhitler.com/feed/'
p166
sg23
S'text/plain'
p167
sg28
Nsg43
g155
stRp168
sg100
(lp169
VHipster Hitler
p170
aV*
aS'read'
p171
astRp172
ag1
(g2
g3
(dp173
g56
VWed, 19 Jan 2011 00:00:24 +0000
p174
sg66
g57
((I2011
I1
I19
I0
I0
I24
I2
I19
I0
t(dtRp175
sg10
(lp176
g1
(g2
g3
(dp177
g21
Vhttp://hipsterhitler.com/archive/album/
p178
sg23
g24
sg25
g26
stRp179
asS'summary_detail'
p180
g1
(g2
g3
(dp181
g40
S'http://hipsterhitler.com/feed/'
p182
sg23
S'text/html'
p183
sg28
Nsg43
V
stRp184
sg50
g178
sS'wfw_commentrss'
p185
Vhttp://hipsterhitler.com/archive/album/feed/
p186
sg79
Vhttp://hipsterhitler.com/?post_type=webcomic_post&p=1096
p187
sS'slash_comments'
p188
V0
sg30
VAlbum
p189
sg83
Vhipsterhitler
p190
sS'comments'
p191
Vhttp://hipsterhitler.com/archive/album/#comments
p192
sg87
V
sg88
(lp193
g1
(g2
g3
(dp194
g40
S'http://hipsterhitler.com/feed/'
p195
sg23
S'text/html'
p196
sg28
Nsg43
V
stRp197
asg94
I00
sS'title_detail'
p198
g1
(g2
g3
(dp199
g40
S'http://hipsterhitler.com/feed/'
p200
sg23
S'text/plain'
p201
sg28
Nsg43
g189
stRp202
sg100
(lp203
VHipster Hitler
p204
aV*
aS'read'
p205
astRp206
ag1
(g2
g3
(dp207
g56
VWed, 12 Jan 2011 00:00:38 +0000
p208
sg66
g57
((I2011
I1
I12
I0
I0
I38
I2
I12
I0
t(dtRp209
sg10
(lp210
g1
(g2
g3
(dp211
g21
Vhttp://hipsterhitler.com/archive/aftermath/
p212
sg23
g24
sg25
g26
stRp213
asS'summary_detail'
p214
g1
(g2
g3
(dp215
g40
S'http://hipsterhitler.com/feed/'
p216
sg23
S'text/html'
p217
sg28
Nsg43
V
stRp218
sg50
g212
sS'wfw_commentrss'
p219
Vhttp://hipsterhitler.com/archive/aftermath/feed/
p220
sg79
Vhttp://hipsterhitler.com/?post_type=webcomic_post&p=1094
p221
sS'slash_comments'
p222
V0
sg30
VAftermath
p223
sg83
Vhipsterhitler
p224
sS'comments'
p225
Vhttp://hipsterhitler.com/archive/aftermath/#comments
p226
sg87
V
sg88
(lp227
g1
(g2
g3
(dp228
g40
S'http://hipsterhitler.com/feed/'
p229
sg23
S'text/html'
p230
sg28
Nsg43
V
stRp231
asg94
I00
sS'title_detail'
p232
g1
(g2
g3
(dp233
g40
S'http://hipsterhitler.com/feed/'
p234
sg23
S'text/plain'
p235
sg28
Nsg43
g223
stRp236
sg100
(lp237
g204
aV*
ag205
astRp238
ag1
(g2
g3
(dp239
S'summary_detail'
p240
g1
(g2
g3
(dp241
S'base'
p242
S'http://hipsterhitler.com/feed/'
p243
sS'type'
p244
S'text/html'
p245
sS'language'
p246
NsS'value'
p247
V
stRp248
sS'updated_parsed'
p249
g57
((I2011
I1
I4
I5
I29
I56
I1
I4
I0
t(dtRp250
sS'links'
p251
(lp252
g1
(g2
g3
(dp253
S'href'
p254
Vhttp://hipsterhitler.com/archive/o-hai/
p255
sg244
S'text/html'
p256
sS'rel'
p257
S'alternate'
p258
stRp259
asS'updated'
p260
VTue, 04 Jan 2011 05:29:56 +0000
p261
sS'link'
p262
g255
sS'wfw_commentrss'
p263
Vhttp://hipsterhitler.com/archive/o-hai/feed/
p264
sS'id'
p265
Vhttp://hipsterhitler.com/?post_type=webcomic_post&p=1091
p266
sS'slash_comments'
p267
V0
sS'title'
p268
VO Hai
p269
sS'author'
p270
Vhipsterhitler
p271
sS'comments'
p272
Vhttp://hipsterhitler.com/archive/o-hai/#comments
p273
sS'summary'
p274
V
sS'content'
p275
(lp276
g1
(g2
g3
(dp277
g242
S'http://hipsterhitler.com/feed/'
p278
sg244
S'text/html'
p279
sg246
Nsg247
V
stRp280
asS'guidislink'
p281
I00
sS'title_detail'
p282
g1
(g2
g3
(dp283
g242
S'http://hipsterhitler.com/feed/'
p284
sg244
S'text/plain'
p285
sg246
Nsg247
g269
stRp286
sS'canto_state'
p287
(lp288
g204
aV*
ag205
astRp289
ag1
(g2
g3
(dp290
S'summary_detail'
p291
g1
(g2
g3
(dp292
S'base'
p293
S'http://hipsterhitler.com/feed/'
p294
sS'type'
p295
S'text/html'
p296
sS'language'
p297
NsS'value'
p298
V
stRp299
sS'updated_parsed'
p300
g57
((I2011
I1
I28
I2
I41
I24
I4
I28
I0
t(dtRp301
sS'links'
p302
(lp303
g1
(g2
g3
(dp304
S'href'
p305
Vhttp://hipsterhitler.com/archive/military-operations/
p306
sg295
S'text/html'
p307
sS'rel'
p308
S'alternate'
p309
stRp310
asS'updated'
p311
VFri, 28 Jan 2011 02:41:24 +0000
p312
sS'link'
p313
g306
sS'wfw_commentrss'
p314
Vhttp://hipsterhitler.com/archive/military-operations/feed/
p315
sS'id'
p316
Vhttp://hipsterhitler.com/?post_type=webcomic_post&p=1001
p317
sS'slash_comments'
p318
V0
sS'title'
p319
VMilitary Operations
p320
sS'author'
p321
Vhipsterhitler
p322
sS'comments'
p323
Vhttp://hipsterhitler.com/archive/military-operations/#comments
p324
sS'summary'
p325
V
sS'content'
p326
(lp327
g1
(g2
g3
(dp328
g293
S'http://hipsterhitler.com/feed/'
p329
sg295
S'text/html'
p330
sg297
Nsg298
V
stRp331
asS'guidislink'
p332
I00
sS'title_detail'
p333
g1
(g2
g3
(dp334
g293
S'http://hipsterhitler.com/feed/'
p335
sg295
S'text/plain'
p336
sg297
Nsg298
g320
stRp337
sS'canto_state'
p338
(lp339
VHipster Hitler
p340
aV*
aVnew
p341
aS'read'
p342
astRp343
ag1
(g2
g3
(dp344
S'summary_detail'
p345
g1
(g2
g3
(dp346
g293
S'http://hipsterhitler.com/feed/'
p347
sg295
S'text/html'
p348
sg297
Nsg298
V
stRp349
sg300
g57
((I2011
I1
I19
I23
I42
I17
I2
I19
I0
t(dtRp350
sg302
(lp351
g1
(g2
g3
(dp352
g305
Vhttp://hipsterhitler.com/archive/album/
p353
sg295
g307
sg308
g309
stRp354
asg311
VWed, 19 Jan 2011 23:42:17 +0000
p355
sg313
g353
sS'wfw_commentrss'
p356
Vhttp://hipsterhitler.com/archive/album/feed/
p357
sg316
Vhttp://hipsterhitler.com/?post_type=webcomic_post&p=988
p358
sS'slash_comments'
p359
V0
sg319
VAlbum
p360
sg321
Vhipsterhitler
p361
sS'comments'
p362
Vhttp://hipsterhitler.com/archive/album/#comments
p363
sg325
V
sg326
(lp364
g1
(g2
g3
(dp365
g293
S'http://hipsterhitler.com/feed/'
p366
sg295
S'text/html'
p367
sg297
Nsg298
V
stRp368
asg332
I00
sS'title_detail'
p369
g1
(g2
g3
(dp370
g293
S'http://hipsterhitler.com/feed/'
p371
sg295
S'text/plain'
p372
sg297
Nsg298
g360
stRp373
sg338
(lp374
VHipster Hitler
p375
aV*
aVnew
p376
aS'read'
p377
astRp378
ag1
(g2
g3
(dp379
S'summary_detail'
p380
g1
(g2
g3
(dp381
g293
S'http://hipsterhitler.com/feed/'
p382
sg295
S'text/html'
p383
sg297
Nsg298
V
stRp384
sg300
g57
((I2011
I1
I12
I5
I30
I59
I2
I12
I0
t(dtRp385
sg302
(lp386
g1
(g2
g3
(dp387
g305
Vhttp://hipsterhitler.com/archive/aftermath/
p388
sg295
g307
sg308
g309
stRp389
asg311
VWed, 12 Jan 2011 05:30:59 +0000
p390
sg313
g388
sS'wfw_commentrss'
p391
Vhttp://hipsterhitler.com/archive/aftermath/feed/
p392
sg316
Vhttp://hipsterhitler.com/?post_type=webcomic_post&p=981
p393
sS'slash_comments'
p394
V0
sg319
VAftermath
p395
sg321
Vhipsterhitler
p396
sS'comments'
p397
Vhttp://hipsterhitler.com/archive/aftermath/#comments
p398
sg325
V
sg326
(lp399
g1
(g2
g3
(dp400
g293
S'http://hipsterhitler.com/feed/'
p401
sg295
S'text/html'
p402
sg297
Nsg298
V
stRp403
asg332
I00
sS'title_detail'
p404
g1
(g2
g3
(dp405
g293
S'http://hipsterhitler.com/feed/'
p406
sg295
S'text/plain'
p407
sg297
Nsg298
g395
stRp408
sg338
(lp409
g375
aV*
ag376
ag377
astRp410
ag1
(g2
g3
(dp411
S'summary_detail'
p412
g1
(g2
g3
(dp413
g293
S'http://hipsterhitler.com/feed/'
p414
sg295
S'text/html'
p415
sg297
Nsg298
V
stRp416
sg300
g57
((I2011
I1
I5
I1
I58
I59
I2
I5
I0
t(dtRp417
sg302
(lp418
g1
(g2
g3
(dp419
g305
Vhttp://hipsterhitler.com/archive/o-hai/
p420
sg295
g307
sg308
g309
stRp421
asg311
VWed, 05 Jan 2011 01:58:59 +0000
p422
sg313
g420
sS'wfw_commentrss'
p423
Vhttp://hipsterhitler.com/archive/o-hai/feed/
p424
sg316
Vhttp://hipsterhitler.com/?post_type=webcomic_post&p=977
p425
sS'slash_comments'
p426
V0
sg319
VO Hai
p427
sg321
Vhipsterhitler
p428
sS'comments'
p429
Vhttp://hipsterhitler.com/archive/o-hai/#comments
p430
sg325
V
sg326
(lp431
g1
(g2
g3
(dp432
g293
S'http://hipsterhitler.com/feed/'
p433
sg295
S'text/html'
p434
sg297
Nsg298
V
stRp435
asg332
I00
sS'title_detail'
p436
g1
(g2
g3
(dp437
g293
S'http://hipsterhitler.com/feed/'
p438
sg295
S'text/plain'
p439
sg297
Nsg298
g427
stRp440
sg338
(lp441
g375
aV*
ag376
ag377
astRp442
ag1
(g2
g3
(dp443
S'summary_detail'
p444
g1
(g2
g3
(dp445
g293
S'http://hipsterhitler.com/feed/'
p446
sg295
S'text/html'
p447
sg297
Nsg298
V
stRp448
sg300
g57
((I2010
I12
I20
I0
I0
I0
I0
I354
I0
t(dtRp449
sg302
(lp450
g1
(g2
g3
(dp451
g305
Vhttp://hipsterhitler.com/archive/27-xmass/
p452
sg295
g307
sg308
g309
stRp453
asg311
VMon, 20 Dec 2010 00:00:00 +0000
p454
sg313
g452
sS'wfw_commentrss'
p455
Vhttp://hipsterhitler.com/archive/27-xmass/feed/
p456
sg316
Vhttp://hipsterhitler.com/?post_type=webcomic_post&p=708
p457
sS'slash_comments'
p458
V0
sg319
VxmaSS
p459
sg321
Vhipsterhitler
p460
sS'comments'
p461
Vhttp://hipsterhitler.com/archive/27-xmass/#comments
p462
sg325
V
sg326
(lp463
g1
(g2
g3
(dp464
g293
S'http://hipsterhitler.com/feed/'
p465
sg295
S'text/html'
p466
sg297
Nsg298
V
stRp467
asg332
I00
sS'title_detail'
p468
g1
(g2
g3
(dp469
g293
S'http://hipsterhitler.com/feed/'
p470
sg295
S'text/plain'
p471
sg297
Nsg298
g459
stRp472
sg338
(lp473
g375
aV*
ag376
ag377
astRp474
ag1
(g2
g3
(dp475
S'summary_detail'
p476
g1
(g2
g3
(dp477
g293
S'http://hipsterhitler.com/feed/'
p478
sg295
S'text/html'
p479
sg297
Nsg298
V
stRp480
sg300
g57
((I2010
I12
I15
I14
I39
I0
I2
I349
I0
t(dtRp481
sg302
(lp482
g1
(g2
g3
(dp483
g305
Vhttp://hipsterhitler.com/archive/26-poster/
p484
sg295
g307
sg308
g309
stRp485
asg311
VWed, 15 Dec 2010 14:39:00 +0000
p486
sg313
g484
sS'wfw_commentrss'
p487
Vhttp://hipsterhitler.com/archive/26-poster/feed/
p488
sg316
Vhttp://hipsterhitler.com/?post_type=webcomic_post&p=707
p489
sS'slash_comments'
p490
V0
sg319
VPoster
p491
sg321
Vhipsterhitler
p492
sS'comments'
p493
Vhttp://hipsterhitler.com/archive/26-poster/#comments
p494
sg325
V
sg326
(lp495
g1
(g2
g3
(dp496
g293
S'http://hipsterhitler.com/feed/'
p497
sg295
S'text/html'
p498
sg297
Nsg298
V
stRp499
asg332
I00
sS'title_detail'
p500
g1
(g2
g3
(dp501
g293
S'http://hipsterhitler.com/feed/'
p502
sg295
S'text/plain'
p503
sg297
Nsg298
g491
stRp504
sg338
(lp505
g375
aV*
ag376
ag377
astRp506
ag1
(g2
g3
(dp507
S'summary_detail'
p508
g1
(g2
g3
(dp509
g293
S'http://hipsterhitler.com/feed/'
p510
sg295
S'text/html'
p511
sg297
Nsg298
V\u2026
stRp512
sg300
g57
((I2010
I12
I9
I18
I27
I0
I3
I343
I0
t(dtRp513
sg302
(lp514
g1
(g2
g3
(dp515
g305
Vhttp://hipsterhitler.com/archive/25-heil/
p516
sg295
g307
sg308
g309
stRp517
asg311
VThu, 09 Dec 2010 18:27:00 +0000
p518
sg313
g516
sS'wfw_commentrss'
p519
Vhttp://hipsterhitler.com/archive/25-heil/feed/
p520
sg316
Vhttp://hipsterhitler.com/?post_type=webcomic_post&p=706
p521
sS'slash_comments'
p522
V0
sg319
VHeil
p523
sg321
Vhipsterhitler
p524
sS'comments'
p525
Vhttp://hipsterhitler.com/archive/25-heil/#comments
p526
sg325
V\u2026
sg326
(lp527
g1
(g2
g3
(dp528
g293
S'http://hipsterhitler.com/feed/'
p529
sg295
S'text/html'
p530
sg297
Nsg298
V<p><a href="http://hipsterhitler.com/archive/25-heil/"><span class="webcomic-object webcomic-object-post webcomic-object-full webcomic-object-706"><img src="http://hipsterhitler.com/?webcomic_object=post/706/full/0" width="1000" height="1773" alt="" title="" /></span></a></p><p>\u2026</p>
p531
stRp532
asg332
I00
sS'title_detail'
p533
g1
(g2
g3
(dp534
g293
S'http://hipsterhitler.com/feed/'
p535
sg295
S'text/plain'
p536
sg297
Nsg298
g523
stRp537
sg338
(lp538
g375
aV*
ag376
ag377
astRp539
ag1
(g2
g3
(dp540
S'summary_detail'
p541
g1
(g2
g3
(dp542
g293
S'http://hipsterhitler.com/feed/'
p543
sg295
S'text/html'
p544
sg297
Nsg298
V
stRp545
sg300
g57
((I2010
I12
I3
I22
I56
I0
I4
I337
I0
t(dtRp546
sg302
(lp547
g1
(g2
g3
(dp548
g305
Vhttp://hipsterhitler.com/archive/24-blackout/
p549
sg295
g307
sg308
g309
stRp550
asg311
VFri, 03 Dec 2010 22:56:00 +0000
p551
sg313
g549
sS'wfw_commentrss'
p552
Vhttp://hipsterhitler.com/archive/24-blackout/feed/
p553
sg316
Vhttp://hipsterhitler.com/?post_type=webcomic_post&p=705
p554
sS'slash_comments'
p555
V0
sg319
VBlackout
p556
sg321
Vhipsterhitler
p557
sS'comments'
p558
Vhttp://hipsterhitler.com/archive/24-blackout/#comments
p559
sg325
V
sg326
(lp560
g1
(g2
g3
(dp561
g293
S'http://hipsterhitler.com/feed/'
p562
sg295
S'text/html'
p563
sg297
Nsg298
V
stRp564
asg332
I00
sS'title_detail'
p565
g1
(g2
g3
(dp566
g293
S'http://hipsterhitler.com/feed/'
p567
sg295
S'text/plain'
p568
sg297
Nsg298
g556
stRp569
sg338
(lp570
g375
aV*
ag376
ag377
astRp571
ag1
(g2
g3
(dp572
S'summary_detail'
p573
g1
(g2
g3
(dp574
g293
S'http://hipsterhitler.com/feed/'
p575
sg295
S'text/html'
p576
sg297
Nsg298
V
stRp577
sg300
g57
((I2010
I11
I30
I0
I49
I0
I1
I334
I0
t(dtRp578
sg302
(lp579
g1
(g2
g3
(dp580
g305
Vhttp://hipsterhitler.com/archive/23-matter-of-time/
p581
sg295
g307
sg308
g309
stRp582
asg311
VTue, 30 Nov 2010 00:49:00 +0000
p583
sg313
g581
sS'wfw_commentrss'
p584
Vhttp://hipsterhitler.com/archive/23-matter-of-time/feed/
p585
sg316
Vhttp://hipsterhitler.com/?post_type=webcomic_post&p=704
p586
sS'slash_comments'
p587
V0
sg319
VMatter of Time
p588
sg321
Vhipsterhitler
p589
sS'comments'
p590
Vhttp://hipsterhitler.com/archive/23-matter-of-time/#comments
p591
sg325
V
sg326
(lp592
g1
(g2
g3
(dp593
g293
S'http://hipsterhitler.com/feed/'
p594
sg295
S'text/html'
p595
sg297
Nsg298
V
stRp596
asg332
I00
sS'title_detail'
p597
g1
(g2
g3
(dp598
g293
S'http://hipsterhitler.com/feed/'
p599
sg295
S'text/plain'
p600
sg297
Nsg298
g588
stRp601
sg338
(lp602
g375
aV*
ag376
ag377
astRp603
ag1
(g2
g3
(dp604
S'summary_detail'
p605
g1
(g2
g3
(dp606
g293
S'http://hipsterhitler.com/feed/'
p607
sg295
S'text/html'
p608
sg297
Nsg298
V
stRp609
sg300
g57
((I2010
I11
I25
I10
I44
I0
I3
I329
I0
t(dtRp610
sg302
(lp611
g1
(g2
g3
(dp612
g305
Vhttp://hipsterhitler.com/archive/22-thanksgiving/
p613
sg295
g307
sg308
g309
stRp614
asg311
VThu, 25 Nov 2010 10:44:00 +0000
p615
sg313
g613
sS'wfw_commentrss'
p616
Vhttp://hipsterhitler.com/archive/22-thanksgiving/feed/
p617
sg316
Vhttp://hipsterhitler.com/?post_type=webcomic_post&p=703
p618
sS'slash_comments'
p619
V0
sg319
VThanksgiving
p620
sg321
Vhipsterhitler
p621
sS'comments'
p622
Vhttp://hipsterhitler.com/archive/22-thanksgiving/#comments
p623
sg325
V
sg326
(lp624
g1
(g2
g3
(dp625
g293
S'http://hipsterhitler.com/feed/'
p626
sg295
S'text/html'
p627
sg297
Nsg298
V
stRp628
asg332
I00
sS'title_detail'
p629
g1
(g2
g3
(dp630
g293
S'http://hipsterhitler.com/feed/'
p631
sg295
S'text/plain'
p632
sg297
Nsg298
g620
stRp633
sg338
(lp634
g375
aV*
ag376
ag377
astRp635
ag1
(g2
g3
(dp636
S'summary_detail'
p637
g1
(g2
g3
(dp638
S'base'
p639
S'http://hipsterhitler.com/feed/'
p640
sS'type'
p641
S'text/html'
p642
sS'language'
p643
NsS'value'
p644
V
stRp645
sS'updated_parsed'
p646
g57
((I2010
I11
I21
I20
I55
I0
I6
I325
I0
t(dtRp647
sS'links'
p648
(lp649
g1
(g2
g3
(dp650
S'href'
p651
Vhttp://hipsterhitler.com/archive/21-visit/
p652
sg641
S'text/html'
p653
sS'rel'
p654
S'alternate'
p655
stRp656
asS'updated'
p657
VSun, 21 Nov 2010 20:55:00 +0000
p658
sS'link'
p659
g652
sS'wfw_commentrss'
p660
Vhttp://hipsterhitler.com/archive/21-visit/feed/
p661
sS'id'
p662
Vhttp://hipsterhitler.com/?post_type=webcomic_post&p=702
p663
sS'slash_comments'
p664
V0
sS'title'
p665
VVisit
p666
sS'author'
p667
Vhipsterhitler
p668
sS'comments'
p669
Vhttp://hipsterhitler.com/archive/21-visit/#comments
p670
sS'summary'
p671
V
sS'content'
p672
(lp673
g1
(g2
g3
(dp674
g639
S'http://hipsterhitler.com/feed/'
p675
sg641
S'text/html'
p676
sg643
Nsg644
V
stRp677
asS'guidislink'
p678
I00
sS'title_detail'
p679
g1
(g2
g3
(dp680
g639
S'http://hipsterhitler.com/feed/'
p681
sg641
S'text/plain'
p682
sg643
Nsg644
g666
stRp683
sS'canto_state'
p684
(lp685
g375
aV*
ag376
ag377
astRp686
asS'canto_update'
p687
F1297684100.3826849
sS'headers'
p688
(dp689
S'transfer-encoding'
p690
S'chunked'
p691
sS'set-cookie'
p692
S'PHPSESSID=t0o51abdsdmeoab3i3rbiib9p1; path=/'
p693
sS'expires'
p694
S'Thu, 19 Nov 1981 08:52:00 GMT'
p695
sS'server'
p696
S'Apache'
p697
sS'last-modified'
p698
S'Thu, 01 Jan 1970 00:00:00 GMT'
p699
sS'connection'
p700
S'close'
p701
sS'etag'
p702
S'"99b889a9cd748e8b4eca0eb3758d138d"'
p703
sS'pragma'
p704
S'no-cache'
p705
sS'cache-control'
p706
S'no-store, no-cache, must-revalidate, post-check=0, pre-check=0'
p707
sS'date'
p708
S'Mon, 14 Feb 2011 11:48:25 GMT'
p709
sS'content-type'
p710
S'text/xml; charset=UTF-8'
p711
sS'x-pingback'
p712
S'http://hipsterhitler.com/xmlrpc.php'
p713
ssg21
S'http://hipsterhitler.com/feed/'
p714
sS'version'
p715
S'atom10'
p716
sg100
(lp717
sS'etag'
p718
g703
sS'namespaces'
p719
(dp720
S''
Vhttp://www.w3.org/2005/Atom
p721
sS'sy'
p722
Vhttp://purl.org/rss/1.0/modules/syndication/
p723
sS'dc'
p724
Vhttp://purl.org/dc/elements/1.1/
p725
sg88
Vhttp://purl.org/rss/1.0/modules/content/
p726
sS'slash'
p727
Vhttp://purl.org/rss/1.0/modules/slash/
p728
sS'wfw'
p729
Vhttp://wellformedweb.org/CommentAPI/
p730
ssS'canto_version'
p731
(I0
I7
I9
tp732
stRp733
.