ccopy_reg
_reconstructor
p1
(cfeedparser
FeedParserDict
p2
c__builtin__
dict
p3
(dp4
S'feed'
p5
g1
(g2
g3
(dp6
S'lastbuilddate'
p7
VMon, 14 Feb 2011 05:39:14 -0800
p8
sS'updated'
p9
VMon, 14 Feb 2011 05:39:14 -0800
p10
sS'subtitle'
p11
VAn Archive Binge custom feed for Wondermark
p12
sS'links'
p13
(lp14
g1
(g2
g3
(dp15
S'href'
p16
Vhttp://www.archivebinge.net/
p17
sS'type'
p18
S'text/html'
p19
sS'rel'
p20
S'alternate'
p21
stRp22
ag1
(g2
g3
(dp23
g18
g19
sg20
g21
stRp24
asS'language'
p25
Ven
p26
sS'title'
p27
VArchive Binge: Wondermark
p28
sS'image'
p29
g1
(g2
g3
(dp30
S'width'
p31
I88
sg16
Vhttp://www.archivebinge.net/images/archivebinge88x31.png
p32
sS'link'
p33
Vhttp://www.archivebinge.net/
p34
sg27
VArchive Binge: Wondermark
p35
sS'height'
p36
I31
stRp37
sS'generator'
p38
VArchive Binge
p39
sS'generator_detail'
p40
g1
(g2
g3
(dp41
S'name'
p42
g39
stRp43
sS'subtitle_detail'
p44
g1
(g2
g3
(dp45
S'base'
p46
S'http://archivebinge.net/rss.php?feed=7366'
p47
sg18
S'text/html'
p48
sg25
NsS'value'
p49
g12
stRp50
sS'title_detail'
p51
g1
(g2
g3
(dp52
g46
S'http://archivebinge.net/rss.php?feed=7366'
p53
sg18
S'text/plain'
p54
sg25
Nsg49
g28
stRp55
sg33
g17
sS'updated_parsed'
p56
ctime
struct_time
p57
((I2011
I2
I14
I13
I39
I14
I0
I45
I0
t(dtRp58
stRp59
sS'status'
p60
I200
sS'encoding'
p61
S'iso-8859-1'
p62
sS'bozo'
p63
I0
sS'entries'
p64
(lp65
g1
(g2
g3
(dp66
g9
VMon, 14 Feb 2011 05:39:14 -0800
p67
sg56
g57
((I2011
I2
I14
I13
I39
I14
I0
I45
I0
t(dtRp68
sg13
(lp69
g1
(g2
g3
(dp70
g16
Vhttp://wondermark.com/065/
p71
sg18
g19
sg20
g21
stRp72
asg27
VWondermark: Strip 65
p73
sS'summary_detail'
p74
g1
(g2
g3
(dp75
g46
S'http://archivebinge.net/rss.php?feed=7366'
p76
sg18
S'text/html'
p77
sg25
Nsg49
V<a href="http://wondermark.com/065/">Wondermark: Strip 65</a>
p78
stRp79
sS'summary'
p80
g78
sS'guidislink'
p81
I01
sS'title_detail'
p82
g1
(g2
g3
(dp83
g46
S'http://archivebinge.net/rss.php?feed=7366'
p84
sg18
S'text/plain'
p85
sg25
Nsg49
g73
stRp86
sg33
g71
sS'canto_state'
p87
(lp88
VArchive Binge: Wondermark
p89
aV*
aS'read'
p90
asS'id'
p91
Vhttp://wondermark.com/065/
p92
stRp93
ag1
(g2
g3
(dp94
g9
VSun, 13 Feb 2011 05:39:14 -0800
p95
sg56
g57
((I2011
I2
I13
I13
I39
I14
I6
I44
I0
t(dtRp96
sg13
(lp97
g1
(g2
g3
(dp98
g16
Vhttp://wondermark.com/064/
p99
sg18
g19
sg20
g21
stRp100
asg27
VWondermark: Strip 64
p101
sS'summary_detail'
p102
g1
(g2
g3
(dp103
g46
S'http://archivebinge.net/rss.php?feed=7366'
p104
sg18
S'text/html'
p105
sg25
Nsg49
V<a href="http://wondermark.com/064/">Wondermark: Strip 64</a>
p106
stRp107
sg80
g106
sg81
I01
sS'title_detail'
p108
g1
(g2
g3
(dp109
g46
S'http://archivebinge.net/rss.php?feed=7366'
p110
sg18
S'text/plain'
p111
sg25
Nsg49
g101
stRp112
sg33
g99
sg87
(lp113
VArchive Binge: Wondermark
p114
aV*
aS'read'
p115
asg91
Vhttp://wondermark.com/064/
p116
stRp117
ag1
(g2
g3
(dp118
g9
VSat, 12 Feb 2011 05:39:14 -0800
p119
sg56
g57
((I2011
I2
I12
I13
I39
I14
I5
I43
I0
t(dtRp120
sg13
(lp121
g1
(g2
g3
(dp122
g16
Vhttp://wondermark.com/063/
p123
sg18
g19
sg20
g21
stRp124
asg27
VWondermark: Strip 63
p125
sS'summary_detail'
p126
g1
(g2
g3
(dp127
g46
S'http://archivebinge.net/rss.php?feed=7366'
p128
sg18
S'text/html'
p129
sg25
Nsg49
V<a href="http://wondermark.com/063/">Wondermark: Strip 63</a>
p130
stRp131
sg80
g130
sg81
I01
sS'title_detail'
p132
g1
(g2
g3
(dp133
g46
S'http://archivebinge.net/rss.php?feed=7366'
p134
sg18
S'text/plain'
p135
sg25
Nsg49
g125
stRp136
sg33
g123
sg87
(lp137
VArchive Binge: Wondermark
p138
aV*
aS'read'
p139
asg91
Vhttp://wondermark.com/063/
p140
stRp141
ag1
(g2
g3
(dp142
g9
VFri, 11 Feb 2011 05:39:14 -0800
p143
sg56
g57
((I2011
I2
I11
I13
I39
I14
I4
I42
I0
t(dtRp144
sg13
(lp145
g1
(g2
g3
(dp146
g16
Vhttp://wondermark.com/062/
p147
sg18
g19
sg20
g21
stRp148
asg27
VWondermark: Strip 62
p149
sS'summary_detail'
p150
g1
(g2
g3
(dp151
g46
S'http://archivebinge.net/rss.php?feed=7366'
p152
sg18
S'text/html'
p153
sg25
Nsg49
V<a href="http://wondermark.com/062/">Wondermark: Strip 62</a>
p154
stRp155
sg80
g154
sg81
I01
sS'title_detail'
p156
g1
(g2
g3
(dp157
g46
S'http://archivebinge.net/rss.php?feed=7366'
p158
sg18
S'text/plain'
p159
sg25
Nsg49
g149
stRp160
sg33
g147
sg87
(lp161
VArchive Binge: Wondermark
p162
aV*
aS'read'
p163
asg91
Vhttp://wondermark.com/062/
p164
stRp165
ag1
(g2
g3
(dp166
g9
VThu, 10 Feb 2011 05:39:14 -0800
p167
sg56
g57
((I2011
I2
I10
I13
I39
I14
I3
I41
I0
t(dtRp168
sg13
(lp169
g1
(g2
g3
(dp170
g16
Vhttp://wondermark.com/061/
p171
sg18
g19
sg20
g21
stRp172
asg27
VWondermark: Strip 61
p173
sS'summary_detail'
p174
g1
(g2
g3
(dp175
g46
S'http://archivebinge.net/rss.php?feed=7366'
p176
sg18
S'text/html'
p177
sg25
Nsg49
V<a href="http://wondermark.com/061/">Wondermark: Strip 61</a>
p178
stRp179
sg80
g178
sg81
I01
sS'title_detail'
p180
g1
(g2
g3
(dp181
g46
S'http://archivebinge.net/rss.php?feed=7366'
p182
sg18
S'text/plain'
p183
sg25
Nsg49
g173
stRp184
sg33
g171
sg87
(lp185
VArchive Binge: Wondermark
p186
aV*
aS'read'
p187
asg91
Vhttp://wondermark.com/061/
p188
stRp189
ag1
(g2
g3
(dp190
g9
VWed, 09 Feb 2011 05:39:14 -0800
p191
sg56
g57
((I2011
I2
I9
I13
I39
I14
I2
I40
I0
t(dtRp192
sg13
(lp193
g1
(g2
g3
(dp194
g16
Vhttp://wondermark.com/060/
p195
sg18
g19
sg20
g21
stRp196
asg27
VWondermark: Strip 60
p197
sS'summary_detail'
p198
g1
(g2
g3
(dp199
g46
S'http://archivebinge.net/rss.php?feed=7366'
p200
sg18
S'text/html'
p201
sg25
Nsg49
V<a href="http://wondermark.com/060/">Wondermark: Strip 60</a>
p202
stRp203
sg80
g202
sg81
I01
sS'title_detail'
p204
g1
(g2
g3
(dp205
g46
S'http://archivebinge.net/rss.php?feed=7366'
p206
sg18
S'text/plain'
p207
sg25
Nsg49
g197
stRp208
sg33
g195
sg87
(lp209
VArchive Binge: Wondermark
p210
aV*
aS'read'
p211
asg91
Vhttp://wondermark.com/060/
p212
stRp213
ag1
(g2
g3
(dp214
g9
VTue, 08 Feb 2011 05:39:14 -0800
p215
sg56
g57
((I2011
I2
I8
I13
I39
I14
I1
I39
I0
t(dtRp216
sg13
(lp217
g1
(g2
g3
(dp218
g16
Vhttp://wondermark.com/059/
p219
sg18
g19
sg20
g21
stRp220
asg27
VWondermark: Strip 59
p221
sS'summary_detail'
p222
g1
(g2
g3
(dp223
g46
S'http://archivebinge.net/rss.php?feed=7366'
p224
sg18
S'text/html'
p225
sg25
Nsg49
V<a href="http://wondermark.com/059/">Wondermark: Strip 59</a>
p226
stRp227
sg80
g226
sg81
I01
sS'title_detail'
p228
g1
(g2
g3
(dp229
g46
S'http://archivebinge.net/rss.php?feed=7366'
p230
sg18
S'text/plain'
p231
sg25
Nsg49
g221
stRp232
sg33
g219
sg87
(lp233
VArchive Binge: Wondermark
p234
aV*
aS'read'
p235
asg91
Vhttp://wondermark.com/059/
p236
stRp237
ag1
(g2
g3
(dp238
S'summary_detail'
p239
g1
(g2
g3
(dp240
S'base'
p241
S'http://archivebinge.net/rss.php?feed=7366'
p242
sS'type'
p243
S'text/html'
p244
sS'value'
p245
V<a href="http://wondermark.com/058/">Wondermark: Strip 58</a>
p246
sS'language'
p247
NstRp248
sS'updated_parsed'
p249
g57
((I2011
I2
I7
I13
I39
I14
I0
I38
I0
t(dtRp250
sS'links'
p251
(lp252
g1
(g2
g3
(dp253
S'href'
p254
Vhttp://wondermark.com/058/
p255
sg243
S'text/html'
p256
sS'rel'
p257
S'alternate'
p258
stRp259
asS'title'
p260
VWondermark: Strip 58
p261
sS'updated'
p262
VMon, 07 Feb 2011 05:39:14 -0800
p263
sS'summary'
p264
g246
sS'guidislink'
p265
I01
sS'title_detail'
p266
g1
(g2
g3
(dp267
g241
S'http://archivebinge.net/rss.php?feed=7366'
p268
sg243
S'text/plain'
p269
sg245
g261
sg247
NstRp270
sS'link'
p271
g255
sS'canto_state'
p272
(lp273
VArchive Binge: Wondermark
p274
aV*
aS'read'
p275
asS'id'
p276
Vhttp://wondermark.com/058/
p277
stRp278
ag1
(g2
g3
(dp279
S'summary_detail'
p280
g1
(g2
g3
(dp281
S'base'
p282
S'http://archivebinge.net/rss.php?feed=7366'
p283
sS'type'
p284
S'text/html'
p285
sS'language'
p286
NsS'value'
p287
V<a href="http://wondermark.com/057/">Wondermark: Strip 57</a>
p288
stRp289
sS'updated_parsed'
p290
g57
((I2011
I2
I6
I13
I39
I14
I6
I37
I0
t(dtRp291
sS'links'
p292
(lp293
g1
(g2
g3
(dp294
S'href'
p295
Vhttp://wondermark.com/057/
p296
sg284
S'text/html'
p297
sS'rel'
p298
S'alternate'
p299
stRp300
asS'title'
p301
VWondermark: Strip 57
p302
sS'updated'
p303
VSun, 06 Feb 2011 05:39:14 -0800
p304
sS'summary'
p305
g288
sS'guidislink'
p306
I01
sS'title_detail'
p307
g1
(g2
g3
(dp308
g282
S'http://archivebinge.net/rss.php?feed=7366'
p309
sg284
S'text/plain'
p310
sg286
Nsg287
g302
stRp311
sS'link'
p312
g296
sS'canto_state'
p313
(lp314
VArchive Binge: Wondermark
p315
aV*
aS'read'
p316
asS'id'
p317
Vhttp://wondermark.com/057/
p318
stRp319
ag1
(g2
g3
(dp320
S'summary_detail'
p321
g1
(g2
g3
(dp322
S'base'
p323
S'http://archivebinge.net/rss.php?feed=7366'
p324
sS'type'
p325
S'text/html'
p326
sS'value'
p327
V<a href="http://wondermark.com/056/">Wondermark: Strip 56</a>
p328
sS'language'
p329
NstRp330
sS'updated_parsed'
p331
g57
((I2011
I2
I5
I13
I39
I14
I5
I36
I0
t(dtRp332
sS'links'
p333
(lp334
g1
(g2
g3
(dp335
S'href'
p336
Vhttp://wondermark.com/056/
p337
sg325
S'text/html'
p338
sS'rel'
p339
S'alternate'
p340
stRp341
asS'title'
p342
VWondermark: Strip 56
p343
sS'updated'
p344
VSat, 05 Feb 2011 05:39:14 -0800
p345
sS'summary'
p346
g328
sS'guidislink'
p347
I01
sS'title_detail'
p348
g1
(g2
g3
(dp349
g323
S'http://archivebinge.net/rss.php?feed=7366'
p350
sg325
S'text/plain'
p351
sg327
g343
sg329
NstRp352
sS'link'
p353
g337
sS'canto_state'
p354
(lp355
VArchive Binge: Wondermark
p356
aV*
aS'read'
p357
asS'id'
p358
Vhttp://wondermark.com/056/
p359
stRp360
ag1
(g2
g3
(dp361
S'summary_detail'
p362
g1
(g2
g3
(dp363
S'base'
p364
S'http://archivebinge.net/rss.php?feed=7366'
p365
sS'type'
p366
S'text/html'
p367
sS'language'
p368
NsS'value'
p369
V<a href="http://wondermark.com/055/">Wondermark: Strip 55</a>
p370
stRp371
sS'updated_parsed'
p372
g57
((I2011
I2
I4
I13
I39
I14
I4
I35
I0
t(dtRp373
sS'links'
p374
(lp375
g1
(g2
g3
(dp376
S'href'
p377
Vhttp://wondermark.com/055/
p378
sg366
S'text/html'
p379
sS'rel'
p380
S'alternate'
p381
stRp382
asS'title'
p383
VWondermark: Strip 55
p384
sS'updated'
p385
VFri, 04 Feb 2011 05:39:14 -0800
p386
sS'summary'
p387
g370
sS'guidislink'
p388
I01
sS'title_detail'
p389
g1
(g2
g3
(dp390
g364
S'http://archivebinge.net/rss.php?feed=7366'
p391
sg366
S'text/plain'
p392
sg368
Nsg369
g384
stRp393
sS'link'
p394
g378
sS'canto_state'
p395
(lp396
VArchive Binge: Wondermark
p397
aV*
aS'read'
p398
asS'id'
p399
Vhttp://wondermark.com/055/
p400
stRp401
ag1
(g2
g3
(dp402
S'summary_detail'
p403
g1
(g2
g3
(dp404
S'base'
p405
S'http://archivebinge.net/rss.php?feed=7366'
p406
sS'type'
p407
S'text/html'
p408
sS'language'
p409
NsS'value'
p410
V<a href="http://wondermark.com/054/">Wondermark: Strip 54</a>
p411
stRp412
sS'updated_parsed'
p413
g57
((I2011
I2
I3
I13
I39
I14
I3
I34
I0
t(dtRp414
sS'links'
p415
(lp416
g1
(g2
g3
(dp417
S'href'
p418
Vhttp://wondermark.com/054/
p419
sg407
S'text/html'
p420
sS'rel'
p421
S'alternate'
p422
stRp423
asS'title'
p424
VWondermark: Strip 54
p425
sS'updated'
p426
VThu, 03 Feb 2011 05:39:14 -0800
p427
sS'summary'
p428
g411
sS'guidislink'
p429
I01
sS'title_detail'
p430
g1
(g2
g3
(dp431
g405
S'http://archivebinge.net/rss.php?feed=7366'
p432
sg407
S'text/plain'
p433
sg409
Nsg410
g425
stRp434
sS'link'
p435
g419
sS'canto_state'
p436
(lp437
VArchive Binge: Wondermark
p438
aV*
aS'read'
p439
asS'id'
p440
Vhttp://wondermark.com/054/
p441
stRp442
ag1
(g2
g3
(dp443
S'summary_detail'
p444
g1
(g2
g3
(dp445
S'base'
p446
S'http://archivebinge.net/rss.php?feed=7366'
p447
sS'type'
p448
S'text/html'
p449
sS'value'
p450
V<img src="http://wondermark.com/c/2004-05-04-053.gif" alt="Wondermark: Strip 53;  In which Soup is made" title="chairman kaga's gone too far" />
p451
sS'language'
p452
NstRp453
sS'updated_parsed'
p454
g57
((I2011
I2
I2
I18
I11
I46
I2
I33
I0
t(dtRp455
sS'links'
p456
(lp457
g1
(g2
g3
(dp458
S'href'
p459
Vhttp://wondermark.com/053/
p460
sg448
S'text/html'
p461
sS'rel'
p462
S'alternate'
p463
stRp464
asS'title'
p465
VWondermark: Strip 53;  In which Soup is made
p466
sS'updated'
p467
VWed, 02 Feb 2011 10:11:46 -0800
p468
sS'summary'
p469
g451
sS'guidislink'
p470
I01
sS'title_detail'
p471
g1
(g2
g3
(dp472
g446
S'http://archivebinge.net/rss.php?feed=7366'
p473
sg448
S'text/plain'
p474
sg450
g466
sg452
NstRp475
sS'link'
p476
g460
sS'canto_state'
p477
(lp478
VArchive Binge: Wondermark
p479
aV*
aS'read'
p480
asS'id'
p481
Vhttp://wondermark.com/053/
p482
stRp483
ag1
(g2
g3
(dp484
S'summary_detail'
p485
g1
(g2
g3
(dp486
S'base'
p487
S'http://archivebinge.net/rss.php?feed=7366'
p488
sS'type'
p489
S'text/html'
p490
sS'value'
p491
V<img src="http://wondermark.com/c/2004-04-27-052.gif" alt="Wondermark: Strip 52;  In which a Hasty Union is reconsidered" title="in case you're wondering, there have been eleven" />
p492
sS'language'
p493
NstRp494
sS'updated_parsed'
p495
g57
((I2011
I2
I1
I18
I11
I46
I1
I32
I0
t(dtRp496
sS'links'
p497
(lp498
g1
(g2
g3
(dp499
S'href'
p500
Vhttp://wondermark.com/052/
p501
sg489
S'text/html'
p502
sS'rel'
p503
S'alternate'
p504
stRp505
asS'title'
p506
VWondermark: Strip 52;  In which a Hasty Union is reconsidered
p507
sS'updated'
p508
VTue, 01 Feb 2011 10:11:46 -0800
p509
sS'summary'
p510
g492
sS'guidislink'
p511
I01
sS'title_detail'
p512
g1
(g2
g3
(dp513
g487
S'http://archivebinge.net/rss.php?feed=7366'
p514
sg489
S'text/plain'
p515
sg491
g507
sg493
NstRp516
sS'link'
p517
g501
sS'canto_state'
p518
(lp519
VArchive Binge: Wondermark
p520
aV*
aS'read'
p521
asS'id'
p522
Vhttp://wondermark.com/052/
p523
stRp524
ag1
(g2
g3
(dp525
S'summary_detail'
p526
g1
(g2
g3
(dp527
S'base'
p528
S'http://archivebinge.net/rss.php?feed=7366'
p529
sS'type'
p530
S'text/html'
p531
sS'language'
p532
NsS'value'
p533
V<img src="http://wondermark.com/c/2004-04-20-051.gif" alt="Wondermark: Strip 51;  In which Man's Creator is dissed" title="look it up" />
p534
stRp535
sS'updated_parsed'
p536
g57
((I2011
I1
I31
I18
I11
I46
I0
I31
I0
t(dtRp537
sS'links'
p538
(lp539
g1
(g2
g3
(dp540
S'href'
p541
Vhttp://wondermark.com/051/
p542
sg530
S'text/html'
p543
sS'rel'
p544
S'alternate'
p545
stRp546
asS'title'
p547
VWondermark: Strip 51;  In which Man's Creator is dissed
p548
sS'updated'
p549
VMon, 31 Jan 2011 10:11:46 -0800
p550
sS'summary'
p551
g534
sS'guidislink'
p552
I01
sS'title_detail'
p553
g1
(g2
g3
(dp554
g528
S'http://archivebinge.net/rss.php?feed=7366'
p555
sg530
S'text/plain'
p556
sg532
Nsg533
g548
stRp557
sS'link'
p558
g542
sS'canto_state'
p559
(lp560
VArchive Binge: Wondermark
p561
aV*
aVnew
p562
aS'read'
p563
asS'id'
p564
Vhttp://wondermark.com/051/
p565
stRp566
ag1
(g2
g3
(dp567
S'summary_detail'
p568
g1
(g2
g3
(dp569
S'base'
p570
S'http://archivebinge.net/rss.php?feed=7366'
p571
sS'type'
p572
S'text/html'
p573
sS'value'
p574
V<img src="http://wondermark.com/c/2004-04-13-050.gif" alt="Wondermark: Strip 50;  In which Nausea overtakes Two" title="ferrets are illegal where i live, probably for just such a reason" />
p575
sS'language'
p576
NstRp577
sS'updated_parsed'
p578
g57
((I2011
I1
I30
I18
I11
I46
I6
I30
I0
t(dtRp579
sS'links'
p580
(lp581
g1
(g2
g3
(dp582
S'href'
p583
Vhttp://wondermark.com/050/
p584
sg572
S'text/html'
p585
sS'rel'
p586
S'alternate'
p587
stRp588
asS'title'
p589
VWondermark: Strip 50;  In which Nausea overtakes Two
p590
sS'updated'
p591
VSun, 30 Jan 2011 10:11:46 -0800
p592
sS'summary'
p593
g575
sS'guidislink'
p594
I01
sS'title_detail'
p595
g1
(g2
g3
(dp596
g570
S'http://archivebinge.net/rss.php?feed=7366'
p597
sg572
S'text/plain'
p598
sg574
g590
sg576
NstRp599
sS'link'
p600
g584
sS'canto_state'
p601
(lp602
g561
aV*
ag562
ag563
asS'id'
p603
Vhttp://wondermark.com/050/
p604
stRp605
ag1
(g2
g3
(dp606
S'summary_detail'
p607
g1
(g2
g3
(dp608
S'base'
p609
S'http://archivebinge.net/rss.php?feed=7366'
p610
sS'type'
p611
S'text/html'
p612
sS'language'
p613
NsS'value'
p614
V<img src="http://wondermark.com/c/2004-04-06-049.gif" alt="Wondermark: Strip 49;  In which Majesty is trivialised" title="sequential poop comic #2 (of 2)" />
p615
stRp616
sS'updated_parsed'
p617
g57
((I2011
I1
I29
I18
I11
I46
I5
I29
I0
t(dtRp618
sS'links'
p619
(lp620
g1
(g2
g3
(dp621
S'href'
p622
Vhttp://wondermark.com/049/
p623
sg611
S'text/html'
p624
sS'rel'
p625
S'alternate'
p626
stRp627
asS'title'
p628
VWondermark: Strip 49;  In which Majesty is trivialised
p629
sS'updated'
p630
VSat, 29 Jan 2011 10:11:46 -0800
p631
sS'summary'
p632
g615
sS'guidislink'
p633
I01
sS'title_detail'
p634
g1
(g2
g3
(dp635
g609
S'http://archivebinge.net/rss.php?feed=7366'
p636
sg611
S'text/plain'
p637
sg613
Nsg614
g629
stRp638
sS'link'
p639
g623
sS'canto_state'
p640
(lp641
g561
aV*
ag562
ag563
asS'id'
p642
Vhttp://wondermark.com/049/
p643
stRp644
ag1
(g2
g3
(dp645
S'summary_detail'
p646
g1
(g2
g3
(dp647
S'base'
p648
S'http://archivebinge.net/rss.php?feed=7366'
p649
sS'type'
p650
S'text/html'
p651
sS'value'
p652
V<img src="http://wondermark.com/c/2004-03-30-048.gif" alt="Wondermark: Strip 48;  In which Joviality proves Unwise" title="sequential poop comic #1 (of 2)" />
p653
sS'language'
p654
NstRp655
sS'updated_parsed'
p656
g57
((I2011
I1
I28
I18
I11
I46
I4
I28
I0
t(dtRp657
sS'links'
p658
(lp659
g1
(g2
g3
(dp660
S'href'
p661
Vhttp://wondermark.com/048/
p662
sg650
S'text/html'
p663
sS'rel'
p664
S'alternate'
p665
stRp666
asS'title'
p667
VWondermark: Strip 48;  In which Joviality proves Unwise
p668
sS'updated'
p669
VFri, 28 Jan 2011 10:11:46 -0800
p670
sS'summary'
p671
g653
sS'guidislink'
p672
I01
sS'title_detail'
p673
g1
(g2
g3
(dp674
g648
S'http://archivebinge.net/rss.php?feed=7366'
p675
sg650
S'text/plain'
p676
sg652
g668
sg654
NstRp677
sS'link'
p678
g662
sS'canto_state'
p679
(lp680
VArchive Binge: Wondermark
p681
aV*
aVnew
p682
aS'read'
p683
asS'id'
p684
Vhttp://wondermark.com/048/
p685
stRp686
ag1
(g2
g3
(dp687
S'summary_detail'
p688
g1
(g2
g3
(dp689
S'base'
p690
S'http://archivebinge.net/rss.php?feed=7366'
p691
sS'type'
p692
S'text/html'
p693
sS'language'
p694
NsS'value'
p695
V<img src="http://wondermark.com/c/2004-03-23-047.gif" alt="Wondermark: Strip 47;  In which Laughing-Gas features" title="even laughing gas cannot make him forget the memory of his dead children" />
p696
stRp697
sS'updated_parsed'
p698
g57
((I2011
I1
I27
I18
I11
I46
I3
I27
I0
t(dtRp699
sS'links'
p700
(lp701
g1
(g2
g3
(dp702
S'href'
p703
Vhttp://wondermark.com/047/
p704
sg692
S'text/html'
p705
sS'rel'
p706
S'alternate'
p707
stRp708
asS'title'
p709
VWondermark: Strip 47;  In which Laughing-Gas features
p710
sS'updated'
p711
VThu, 27 Jan 2011 10:11:46 -0800
p712
sS'summary'
p713
g696
sS'guidislink'
p714
I01
sS'title_detail'
p715
g1
(g2
g3
(dp716
g690
S'http://archivebinge.net/rss.php?feed=7366'
p717
sg692
S'text/plain'
p718
sg694
Nsg695
g710
stRp719
sS'link'
p720
g704
sS'canto_state'
p721
(lp722
VArchive Binge: Wondermark
p723
aV*
aVnew
p724
aS'read'
p725
asS'id'
p726
Vhttp://wondermark.com/047/
p727
stRp728
ag1
(g2
g3
(dp729
S'summary_detail'
p730
g1
(g2
g3
(dp731
S'base'
p732
S'http://archivebinge.net/rss.php?feed=7366'
p733
sS'type'
p734
S'text/html'
p735
sS'language'
p736
NsS'value'
p737
V<img src="http://wondermark.com/c/2004-03-16-046.gif" alt="Wondermark: Strip 46;  In which a Horse flies on a Skateboard" title="icarus + equus = icareq" />
p738
stRp739
sS'updated_parsed'
p740
g57
((I2011
I1
I26
I18
I11
I46
I2
I26
I0
t(dtRp741
sS'links'
p742
(lp743
g1
(g2
g3
(dp744
S'href'
p745
Vhttp://wondermark.com/046/
p746
sg734
S'text/html'
p747
sS'rel'
p748
S'alternate'
p749
stRp750
asS'title'
p751
VWondermark: Strip 46;  In which a Horse flies on a Skateboard
p752
sS'updated'
p753
VWed, 26 Jan 2011 10:11:46 -0800
p754
sS'summary'
p755
g738
sS'guidislink'
p756
I01
sS'title_detail'
p757
g1
(g2
g3
(dp758
g732
S'http://archivebinge.net/rss.php?feed=7366'
p759
sg734
S'text/plain'
p760
sg736
Nsg737
g752
stRp761
sS'link'
p762
g746
sS'canto_state'
p763
(lp764
VArchive Binge: Wondermark
p765
aV*
aVnew
p766
aS'read'
p767
asS'id'
p768
Vhttp://wondermark.com/046/
p769
stRp770
ag1
(g2
g3
(dp771
S'summary_detail'
p772
g1
(g2
g3
(dp773
S'base'
p774
S'http://archivebinge.net/rss.php?feed=7366'
p775
sS'type'
p776
S'text/html'
p777
sS'value'
p778
V<img src="http://wondermark.com/c/2004-03-09-045.gif" alt="Wondermark: Strip 45;  In which Geo-Politics stymy" title="in fact, the issue is more nuanced than it has been portrayed in this comic" />
p779
sS'language'
p780
NstRp781
sS'updated_parsed'
p782
g57
((I2011
I1
I25
I18
I11
I46
I1
I25
I0
t(dtRp783
sS'links'
p784
(lp785
g1
(g2
g3
(dp786
S'href'
p787
Vhttp://wondermark.com/045/
p788
sg776
S'text/html'
p789
sS'rel'
p790
S'alternate'
p791
stRp792
asS'title'
p793
VWondermark: Strip 45;  In which Geo-Politics stymy
p794
sS'updated'
p795
VTue, 25 Jan 2011 10:11:46 -0800
p796
sS'summary'
p797
g779
sS'guidislink'
p798
I01
sS'title_detail'
p799
g1
(g2
g3
(dp800
g774
S'http://archivebinge.net/rss.php?feed=7366'
p801
sg776
S'text/plain'
p802
sg778
g794
sg780
NstRp803
sS'link'
p804
g788
sS'canto_state'
p805
(lp806
VArchive Binge: Wondermark
p807
aV*
aVnew
p808
aS'read'
p809
asS'id'
p810
Vhttp://wondermark.com/045/
p811
stRp812
ag1
(g2
g3
(dp813
S'summary_detail'
p814
g1
(g2
g3
(dp815
S'base'
p816
S'http://archivebinge.net/rss.php?feed=7366'
p817
sS'type'
p818
S'text/html'
p819
sS'value'
p820
V<img src="http://wondermark.com/c/2004-03-02-044.gif" alt="Wondermark: Strip 44;  In which Urges are indulged" title="to muslims, any artistic depiction of a living thing is haraam" />
p821
sS'language'
p822
NstRp823
sS'updated_parsed'
p824
g57
((I2011
I1
I24
I18
I11
I46
I0
I24
I0
t(dtRp825
sS'links'
p826
(lp827
g1
(g2
g3
(dp828
S'href'
p829
Vhttp://wondermark.com/044/
p830
sg818
S'text/html'
p831
sS'rel'
p832
S'alternate'
p833
stRp834
asS'title'
p835
VWondermark: Strip 44;  In which Urges are indulged
p836
sS'updated'
p837
VMon, 24 Jan 2011 10:11:46 -0800
p838
sS'summary'
p839
g821
sS'guidislink'
p840
I01
sS'title_detail'
p841
g1
(g2
g3
(dp842
g816
S'http://archivebinge.net/rss.php?feed=7366'
p843
sg818
S'text/plain'
p844
sg820
g836
sg822
NstRp845
sS'link'
p846
g830
sS'canto_state'
p847
(lp848
VArchive Binge: Wondermark
p849
aV*
aVnew
p850
aS'read'
p851
asS'id'
p852
Vhttp://wondermark.com/044/
p853
stRp854
ag1
(g2
g3
(dp855
S'summary_detail'
p856
g1
(g2
g3
(dp857
g816
S'http://archivebinge.net/rss.php?feed=7366'
p858
sg818
S'text/html'
p859
sg820
V<img src="http://wondermark.com/c/2004-02-24-043.gif" alt="Wondermark: Strip 43;  In which Propriety is abandoned" title="don't ask, don't tell" />
p860
sg822
NstRp861
sg824
g57
((I2011
I1
I23
I18
I11
I46
I6
I23
I0
t(dtRp862
sg826
(lp863
g1
(g2
g3
(dp864
g829
Vhttp://wondermark.com/043/
p865
sg818
g831
sg832
g833
stRp866
asg835
VWondermark: Strip 43;  In which Propriety is abandoned
p867
sg837
VSun, 23 Jan 2011 10:11:46 -0800
p868
sg839
g860
sg840
I01
sS'title_detail'
p869
g1
(g2
g3
(dp870
g816
S'http://archivebinge.net/rss.php?feed=7366'
p871
sg818
S'text/plain'
p872
sg820
g867
sg822
NstRp873
sg846
g865
sg847
(lp874
VArchive Binge: Wondermark
p875
aV*
aVnew
p876
aS'read'
p877
asg852
Vhttp://wondermark.com/043/
p878
stRp879
ag1
(g2
g3
(dp880
S'summary_detail'
p881
g1
(g2
g3
(dp882
g816
S'http://archivebinge.net/rss.php?feed=7366'
p883
sg818
S'text/html'
p884
sg820
V<img src="http://wondermark.com/c/2004-02-17-042.gif" alt="Wondermark: Strip 42;  In which Mario proves Insensitive" title="technically, he would have to bring a suit on behalf of the copyright holder" />
p885
sg822
NstRp886
sg824
g57
((I2011
I1
I22
I18
I11
I46
I5
I22
I0
t(dtRp887
sg826
(lp888
g1
(g2
g3
(dp889
g829
Vhttp://wondermark.com/042/
p890
sg818
g831
sg832
g833
stRp891
asg835
VWondermark: Strip 42;  In which Mario proves Insensitive
p892
sg837
VSat, 22 Jan 2011 10:11:46 -0800
p893
sg839
g885
sg840
I01
sS'title_detail'
p894
g1
(g2
g3
(dp895
g816
S'http://archivebinge.net/rss.php?feed=7366'
p896
sg818
S'text/plain'
p897
sg820
g892
sg822
NstRp898
sg846
g890
sg847
(lp899
g875
aV*
ag876
ag877
asg852
Vhttp://wondermark.com/042/
p900
stRp901
ag1
(g2
g3
(dp902
S'summary_detail'
p903
g1
(g2
g3
(dp904
S'base'
p905
S'http://archivebinge.net/rss.php?feed=7366'
p906
sS'type'
p907
S'text/html'
p908
sS'language'
p909
NsS'value'
p910
V<img src="http://wondermark.com/c/2004-02-10-041.gif" alt="Wondermark: Strip 41;  In which Assassination is plotted" title="i think the tree is a nice touch" />
p911
stRp912
sS'updated_parsed'
p913
g57
((I2011
I1
I21
I18
I11
I46
I4
I21
I0
t(dtRp914
sS'links'
p915
(lp916
g1
(g2
g3
(dp917
S'href'
p918
Vhttp://wondermark.com/041/
p919
sg907
S'text/html'
p920
sS'rel'
p921
S'alternate'
p922
stRp923
asS'title'
p924
VWondermark: Strip 41;  In which Assassination is plotted
p925
sS'updated'
p926
VFri, 21 Jan 2011 10:11:46 -0800
p927
sS'summary'
p928
g911
sS'guidislink'
p929
I01
sS'title_detail'
p930
g1
(g2
g3
(dp931
g905
S'http://archivebinge.net/rss.php?feed=7366'
p932
sg907
S'text/plain'
p933
sg909
Nsg910
g925
stRp934
sS'link'
p935
g919
sS'canto_state'
p936
(lp937
g875
aV*
ag876
ag877
asS'id'
p938
Vhttp://wondermark.com/041/
p939
stRp940
ag1
(g2
g3
(dp941
S'summary_detail'
p942
g1
(g2
g3
(dp943
S'base'
p944
S'http://archivebinge.net/rss.php?feed=7366'
p945
sS'type'
p946
S'text/html'
p947
sS'language'
p948
NsS'value'
p949
V<img src="http://wondermark.com/c/2004-02-03-040.gif" alt="Wondermark: Strip 40;  In which Bobby causes Awkwardness" title="furthermore, i am appalled that anyone would require chemical aids to achieve euphoria" />
p950
stRp951
sS'updated_parsed'
p952
g57
((I2011
I1
I20
I18
I11
I46
I3
I20
I0
t(dtRp953
sS'links'
p954
(lp955
g1
(g2
g3
(dp956
S'href'
p957
Vhttp://wondermark.com/040/
p958
sg946
S'text/html'
p959
sS'rel'
p960
S'alternate'
p961
stRp962
asS'title'
p963
VWondermark: Strip 40;  In which Bobby causes Awkwardness
p964
sS'updated'
p965
VThu, 20 Jan 2011 10:11:46 -0800
p966
sS'summary'
p967
g950
sS'guidislink'
p968
I01
sS'title_detail'
p969
g1
(g2
g3
(dp970
g944
S'http://archivebinge.net/rss.php?feed=7366'
p971
sg946
S'text/plain'
p972
sg948
Nsg949
g964
stRp973
sS'link'
p974
g958
sS'canto_state'
p975
(lp976
g875
aV*
ag876
ag877
asS'id'
p977
Vhttp://wondermark.com/040/
p978
stRp979
ag1
(g2
g3
(dp980
S'summary_detail'
p981
g1
(g2
g3
(dp982
S'base'
p983
S'http://archivebinge.net/rss.php?feed=7366'
p984
sS'type'
p985
S'text/html'
p986
sS'language'
p987
NsS'value'
p988
V<img src="http://wondermark.com/c/2004-01-27-039.gif" alt="Wondermark: Strip 39;  In which Indecency is suggested" title="maybe!" />
p989
stRp990
sS'updated_parsed'
p991
g57
((I2011
I1
I19
I18
I11
I46
I2
I19
I0
t(dtRp992
sS'links'
p993
(lp994
g1
(g2
g3
(dp995
S'href'
p996
Vhttp://wondermark.com/039/
p997
sg985
S'text/html'
p998
sS'rel'
p999
S'alternate'
p1000
stRp1001
asS'title'
p1002
VWondermark: Strip 39;  In which Indecency is suggested
p1003
sS'updated'
p1004
VWed, 19 Jan 2011 10:11:46 -0800
p1005
sS'summary'
p1006
g989
sS'guidislink'
p1007
I01
sS'title_detail'
p1008
g1
(g2
g3
(dp1009
g983
S'http://archivebinge.net/rss.php?feed=7366'
p1010
sg985
S'text/plain'
p1011
sg987
Nsg988
g1003
stRp1012
sS'link'
p1013
g997
sS'canto_state'
p1014
(lp1015
g875
aV*
ag876
ag877
asS'id'
p1016
Vhttp://wondermark.com/039/
p1017
stRp1018
ag1
(g2
g3
(dp1019
S'summary_detail'
p1020
g1
(g2
g3
(dp1021
S'base'
p1022
S'http://archivebinge.net/rss.php?feed=7366'
p1023
sS'type'
p1024
S'text/html'
p1025
sS'language'
p1026
NsS'value'
p1027
V<img src="http://wondermark.com/c/2004-01-20-038.gif" alt="Wondermark: Strip 38;  In which Dialect is adopted" title="don't worry, they are just rehearsing a play" />
p1028
stRp1029
sS'updated_parsed'
p1030
g57
((I2011
I1
I18
I18
I11
I46
I1
I18
I0
t(dtRp1031
sS'links'
p1032
(lp1033
g1
(g2
g3
(dp1034
S'href'
p1035
Vhttp://wondermark.com/038/
p1036
sg1024
S'text/html'
p1037
sS'rel'
p1038
S'alternate'
p1039
stRp1040
asS'title'
p1041
VWondermark: Strip 38;  In which Dialect is adopted
p1042
sS'updated'
p1043
VTue, 18 Jan 2011 10:11:46 -0800
p1044
sS'summary'
p1045
g1028
sS'guidislink'
p1046
I01
sS'title_detail'
p1047
g1
(g2
g3
(dp1048
g1022
S'http://archivebinge.net/rss.php?feed=7366'
p1049
sg1024
S'text/plain'
p1050
sg1026
Nsg1027
g1042
stRp1051
sS'link'
p1052
g1036
sS'canto_state'
p1053
(lp1054
g875
aV*
ag876
ag877
asS'id'
p1055
Vhttp://wondermark.com/038/
p1056
stRp1057
ag1
(g2
g3
(dp1058
S'summary_detail'
p1059
g1
(g2
g3
(dp1060
S'base'
p1061
S'http://archivebinge.net/rss.php?feed=7366'
p1062
sS'type'
p1063
S'text/html'
p1064
sS'language'
p1065
NsS'value'
p1066
V<img src="http://wondermark.com/c/2004-01-13-037.gif" alt="Wondermark: Strip 37;  In which Poultry is referenced" title="it's ALWAYS chicken butt" />
p1067
stRp1068
sS'updated_parsed'
p1069
g57
((I2011
I1
I17
I18
I11
I46
I0
I17
I0
t(dtRp1070
sS'links'
p1071
(lp1072
g1
(g2
g3
(dp1073
S'href'
p1074
Vhttp://wondermark.com/037/
p1075
sg1063
S'text/html'
p1076
sS'rel'
p1077
S'alternate'
p1078
stRp1079
asS'title'
p1080
VWondermark: Strip 37;  In which Poultry is referenced
p1081
sS'updated'
p1082
VMon, 17 Jan 2011 10:11:46 -0800
p1083
sS'summary'
p1084
g1067
sS'guidislink'
p1085
I01
sS'title_detail'
p1086
g1
(g2
g3
(dp1087
g1061
S'http://archivebinge.net/rss.php?feed=7366'
p1088
sg1063
S'text/plain'
p1089
sg1065
Nsg1066
g1081
stRp1090
sS'link'
p1091
g1075
sS'canto_state'
p1092
(lp1093
g875
aV*
ag876
ag877
asS'id'
p1094
Vhttp://wondermark.com/037/
p1095
stRp1096
asS'canto_update'
p1097
F1297684104.8417151
sS'headers'
p1098
(dp1099
S'date'
p1100
S'Mon, 14 Feb 2011 11:48:29 GMT'
p1101
sS'transfer-encoding'
p1102
S'chunked'
p1103
sS'connection'
p1104
S'close'
p1105
sS'content-type'
p1106
S'application/rss+xml'
p1107
sS'server'
p1108
S'Apache'
p1109
ssS'version'
p1110
S'rss20'
p1111
sg87
(lp1112
sg16
S'http://archivebinge.net/rss.php?feed=7366'
p1113
sS'namespaces'
p1114
(dp1115
sS'canto_version'
p1116
(I0
I7
I9
tp1117
stRp1118
.