ccopy_reg
_reconstructor
p1
(cfeedparser
FeedParserDict
p2
c__builtin__
dict
p3
(dp4
S'feed'
p5
g1
(g2
g3
(dp6
S'lastbuilddate'
p7
VSun, 30 Jan 2011 20:20:14 -0800
p8
sS'subtitle'
p9
VWebcomics of a specialized length.
p10
sS'links'
p11
(lp12
g1
(g2
g3
(dp13
S'href'
p14
Vhttp://www.threepanelsoul.com/
p15
sS'type'
p16
S'text/html'
p17
sS'rel'
p18
S'alternate'
p19
stRp20
asS'language'
p21
Ven-us
p22
sS'title'
p23
VThree Panel Soul
p24
sS'subtitle_detail'
p25
g1
(g2
g3
(dp26
S'base'
p27
S'http://www.rsspect.com/rss/threeps.xml'
p28
sg16
S'text/html'
p29
sg21
NsS'value'
p30
g10
stRp31
sS'title_detail'
p32
g1
(g2
g3
(dp33
g27
S'http://www.rsspect.com/rss/threeps.xml'
p34
sg16
S'text/plain'
p35
sg21
Nsg30
g24
stRp36
sS'link'
p37
g15
stRp38
sS'status'
p39
I200
sS'updated'
p40
ctime
struct_time
p41
((I2011
I1
I31
I4
I20
I17
I0
I31
I0
t(dtRp42
sS'encoding'
p43
S'iso-8859-1'
p44
sS'bozo'
p45
I0
sS'entries'
p46
(lp47
g1
(g2
g3
(dp48
S'summary_detail'
p49
g1
(g2
g3
(dp50
g27
S'http://www.rsspect.com/rss/threeps.xml'
p51
sg16
S'text/html'
p52
sg21
Nsg30
V<img src="http://www.threepanelsoul.com/comics/186.png" alt="" border="0" /><p></p>
p53
stRp54
sS'updated_parsed'
p55
g41
((I2011
I1
I31
I4
I20
I1
I0
I31
I0
t(dtRp56
sg11
(lp57
g1
(g2
g3
(dp58
g14
Vhttp://www.threepanelsoul.com/
p59
sg16
g17
sg18
g19
stRp60
asg23
VOn Propositions
p61
sg40
VSun, 30 Jan 2011 20:20:01 -0800
p62
sS'summary'
p63
g53
sS'guidislink'
p64
I00
sS'title_detail'
p65
g1
(g2
g3
(dp66
g27
S'http://www.rsspect.com/rss/threeps.xml'
p67
sg16
S'text/plain'
p68
sg21
Nsg30
g61
stRp69
sg37
g59
sS'canto_state'
p70
(lp71
VThree Panel Soul
p72
aV*
aS'read'
p73
asS'id'
p74
Vhttp://www.rsspect.com/rss/RSSPECT-001236830
p75
stRp76
ag1
(g2
g3
(dp77
S'summary_detail'
p78
g1
(g2
g3
(dp79
g27
S'http://www.rsspect.com/rss/threeps.xml'
p80
sg16
S'text/html'
p81
sg21
Nsg30
V<img src="http://www.threepanelsoul.com/comics/185.png" alt="" border="0" /><p></p>
p82
stRp83
sg55
g41
((I2011
I1
I25
I13
I14
I57
I1
I25
I0
t(dtRp84
sg11
(lp85
g1
(g2
g3
(dp86
g14
Vhttp://www.threepanelsoul.com/
p87
sg16
g17
sg18
g19
stRp88
asg23
VOn Minecraft
p89
sg40
VTue, 25 Jan 2011 05:14:57 -0800
p90
sg63
g82
sg64
I00
sS'title_detail'
p91
g1
(g2
g3
(dp92
g27
S'http://www.rsspect.com/rss/threeps.xml'
p93
sg16
S'text/plain'
p94
sg21
Nsg30
g89
stRp95
sg37
g87
sg70
(lp96
VThree Panel Soul
p97
aV*
aVnew
p98
aS'read'
p99
asg74
Vhttp://www.rsspect.com/rss/RSSPECT-001234051
p100
stRp101
ag1
(g2
g3
(dp102
S'summary_detail'
p103
g1
(g2
g3
(dp104
g27
S'http://www.rsspect.com/rss/threeps.xml'
p105
sg16
S'text/html'
p106
sg21
Nsg30
V<img src="http://www.threepanelsoul.com/comics/184.png" alt="" border="0" /><p></p>
p107
stRp108
sg55
g41
((I2011
I1
I18
I10
I58
I48
I1
I18
I0
t(dtRp109
sg11
(lp110
g1
(g2
g3
(dp111
g14
Vhttp://www.threepanelsoul.com/
p112
sg16
g17
sg18
g19
stRp113
asg23
VOn Household Duties
p114
sg40
VTue, 18 Jan 2011 02:58:48 -0800
p115
sg63
g107
sg64
I00
sS'title_detail'
p116
g1
(g2
g3
(dp117
g27
S'http://www.rsspect.com/rss/threeps.xml'
p118
sg16
S'text/plain'
p119
sg21
Nsg30
g114
stRp120
sg37
g112
sg70
(lp121
VThree Panel Soul
p122
aV*
aVnew
p123
aS'read'
p124
asg74
Vhttp://www.rsspect.com/rss/RSSPECT-001230712
p125
stRp126
ag1
(g2
g3
(dp127
S'summary_detail'
p128
g1
(g2
g3
(dp129
g27
S'http://www.rsspect.com/rss/threeps.xml'
p130
sg16
S'text/html'
p131
sg21
Nsg30
V<img src="http://www.threepanelsoul.com/comics/183.png" alt="" border="0" /><p></p>
p132
stRp133
sg55
g41
((I2011
I1
I3
I8
I58
I20
I0
I3
I0
t(dtRp134
sg11
(lp135
g1
(g2
g3
(dp136
g14
Vhttp://www.threepanelsoul.com/
p137
sg16
g17
sg18
g19
stRp138
asg23
Von Christmas Music
p139
sg40
VMon, 03 Jan 2011 00:58:20 -0800
p140
sg63
g132
sg64
I00
sS'title_detail'
p141
g1
(g2
g3
(dp142
g27
S'http://www.rsspect.com/rss/threeps.xml'
p143
sg16
S'text/plain'
p144
sg21
Nsg30
g139
stRp145
sg37
g137
sg70
(lp146
g122
aV*
ag123
ag124
asg74
Vhttp://www.rsspect.com/rss/RSSPECT-001222326
p147
stRp148
ag1
(g2
g3
(dp149
S'summary_detail'
p150
g1
(g2
g3
(dp151
g27
S'http://www.rsspect.com/rss/threeps.xml'
p152
sg16
S'text/html'
p153
sg21
Nsg30
V<img src="http://www.threepanelsoul.com/comics/183_doodle.jpg" alt="Super busy with work; So, have a doodle!" border="0" /><p>Super busy with work; So, have a doodle!</p>
p154
stRp155
sg55
g41
((I2010
I12
I21
I6
I54
I31
I1
I355
I0
t(dtRp156
sg11
(lp157
g1
(g2
g3
(dp158
g14
Vhttp://www.threepanelsoul.com/
p159
sg16
g17
sg18
g19
stRp160
asg23
VDoodle: 2nd Anniversary Present
p161
sg40
VMon, 20 Dec 2010 22:54:31 -0800
p162
sg63
g154
sg64
I00
sS'title_detail'
p163
g1
(g2
g3
(dp164
g27
S'http://www.rsspect.com/rss/threeps.xml'
p165
sg16
S'text/plain'
p166
sg21
Nsg30
g161
stRp167
sg37
g159
sg70
(lp168
g122
aV*
ag123
ag124
asg74
Vhttp://www.rsspect.com/rss/RSSPECT-001214770
p169
stRp170
ag1
(g2
g3
(dp171
S'summary_detail'
p172
g1
(g2
g3
(dp173
g27
S'http://www.rsspect.com/rss/threeps.xml'
p174
sg16
S'text/html'
p175
sg21
Nsg30
V<img src="http://www.threepanelsoul.com/comics/182.png" alt="" border="0" /><p></p>
p176
stRp177
sg55
g41
((I2010
I12
I7
I12
I50
I1
I1
I341
I0
t(dtRp178
sg11
(lp179
g1
(g2
g3
(dp180
g14
Vhttp://www.threepanelsoul.com/
p181
sg16
g17
sg18
g19
stRp182
asg23
VOn Video Browsing
p183
sg40
VTue, 07 Dec 2010 04:50:01 -0800
p184
sg63
g176
sg64
I00
sS'title_detail'
p185
g1
(g2
g3
(dp186
g27
S'http://www.rsspect.com/rss/threeps.xml'
p187
sg16
S'text/plain'
p188
sg21
Nsg30
g183
stRp189
sg37
g181
sg70
(lp190
g122
aV*
ag123
ag124
asg74
Vhttp://www.rsspect.com/rss/RSSPECT-001204489
p191
stRp192
ag1
(g2
g3
(dp193
S'summary_detail'
p194
g1
(g2
g3
(dp195
g27
S'http://www.rsspect.com/rss/threeps.xml'
p196
sg16
S'text/html'
p197
sg21
Nsg30
V<img src="http://www.threepanelsoul.com/comics/181.jpg" alt="" border="0" /><p></p>
p198
stRp199
sg55
g41
((I2010
I11
I29
I12
I3
I9
I0
I333
I0
t(dtRp200
sg11
(lp201
g1
(g2
g3
(dp202
g14
Vhttp://www.threepanelsoul.com/
p203
sg16
g17
sg18
g19
stRp204
asg23
VOn Cataclysms
p205
sg40
VMon, 29 Nov 2010 04:03:09 -0800
p206
sg63
g198
sg64
I00
sS'title_detail'
p207
g1
(g2
g3
(dp208
g27
S'http://www.rsspect.com/rss/threeps.xml'
p209
sg16
S'text/plain'
p210
sg21
Nsg30
g205
stRp211
sg37
g203
sg70
(lp212
g122
aV*
ag123
ag124
asg74
Vhttp://www.rsspect.com/rss/RSSPECT-001199166
p213
stRp214
ag1
(g2
g3
(dp215
S'summary_detail'
p216
g1
(g2
g3
(dp217
g27
S'http://www.rsspect.com/rss/threeps.xml'
p218
sg16
S'text/html'
p219
sg21
Nsg30
V<img src="http://www.threepanelsoul.com/comics/180.png" alt="" border="0" /><p></p>
p220
stRp221
sg55
g41
((I2010
I11
I22
I12
I32
I49
I0
I326
I0
t(dtRp222
sg11
(lp223
g1
(g2
g3
(dp224
g14
Vhttp://www.threepanelsoul.com/
p225
sg16
g17
sg18
g19
stRp226
asg23
VOn Sports That Are Mostly Drinking
p227
sg40
VMon, 22 Nov 2010 04:32:49 -0800
p228
sg63
g220
sg64
I00
sS'title_detail'
p229
g1
(g2
g3
(dp230
g27
S'http://www.rsspect.com/rss/threeps.xml'
p231
sg16
S'text/plain'
p232
sg21
Nsg30
g227
stRp233
sg37
g225
sg70
(lp234
g122
aV*
ag123
ag124
asg74
Vhttp://www.rsspect.com/rss/RSSPECT-001193941
p235
stRp236
ag1
(g2
g3
(dp237
S'summary_detail'
p238
g1
(g2
g3
(dp239
g27
S'http://www.rsspect.com/rss/threeps.xml'
p240
sg16
S'text/html'
p241
sg21
Nsg30
V<img src="http://www.threepanelsoul.com/comics/179.png" alt="You know when you Google a female creator and a picture of her comes up before a picture of her work? Also me." border="0" /><p>You know when you Google a female creator and a picture of her comes up before a picture of her work? Also me.</p>
p242
stRp243
sg55
g41
((I2010
I11
I15
I11
I4
I56
I0
I319
I0
t(dtRp244
sg11
(lp245
g1
(g2
g3
(dp246
g14
Vhttp://www.threepanelsoul.com/
p247
sg16
g17
sg18
g19
stRp248
asg23
VOn That Guy
p249
sg40
VMon, 15 Nov 2010 03:04:56 -0800
p250
sg63
g242
sg64
I00
sS'title_detail'
p251
g1
(g2
g3
(dp252
g27
S'http://www.rsspect.com/rss/threeps.xml'
p253
sg16
S'text/plain'
p254
sg21
Nsg30
g249
stRp255
sg37
g247
sg70
(lp256
g122
aV*
ag123
ag124
asg74
Vhttp://www.rsspect.com/rss/RSSPECT-001188924
p257
stRp258
ag1
(g2
g3
(dp259
S'summary_detail'
p260
g1
(g2
g3
(dp261
g27
S'http://www.rsspect.com/rss/threeps.xml'
p262
sg16
S'text/html'
p263
sg21
Nsg30
V<img src="http://www.threepanelsoul.com/comics/178.png" alt="" border="0" /><p></p>
p264
stRp265
sg55
g41
((I2010
I11
I1
I6
I14
I26
I0
I305
I0
t(dtRp266
sg11
(lp267
g1
(g2
g3
(dp268
g14
Vhttp://www.threepanelsoul.com/
p269
sg16
g17
sg18
g19
stRp270
asg23
VOn Costumes that should not be made Sexy
p271
sg40
VSun, 31 Oct 2010 23:14:26 -0700
p272
sg63
g264
sg64
I00
sS'title_detail'
p273
g1
(g2
g3
(dp274
g27
S'http://www.rsspect.com/rss/threeps.xml'
p275
sg16
S'text/plain'
p276
sg21
Nsg30
g271
stRp277
sg37
g269
sg70
(lp278
g122
aV*
ag123
ag124
asg74
Vhttp://www.rsspect.com/rss/RSSPECT-001180611
p279
stRp280
ag1
(g2
g3
(dp281
S'summary_detail'
p282
g1
(g2
g3
(dp283
g27
S'http://www.rsspect.com/rss/threeps.xml'
p284
sg16
S'text/html'
p285
sg21
Nsg30
V<img src="http://www.threepanelsoul.com/comics/177.png" alt="" border="0" /><p></p>
p286
stRp287
sg55
g41
((I2010
I10
I25
I8
I54
I13
I0
I298
I0
t(dtRp288
sg11
(lp289
g1
(g2
g3
(dp290
g14
Vhttp://www.threepanelsoul.com/
p291
sg16
g17
sg18
g19
stRp292
asg23
VOn Inspiration
p293
sg40
VMon, 25 Oct 2010 01:54:13 -0700
p294
sg63
g286
sg64
I00
sS'title_detail'
p295
g1
(g2
g3
(dp296
g27
S'http://www.rsspect.com/rss/threeps.xml'
p297
sg16
S'text/plain'
p298
sg21
Nsg30
g293
stRp299
sg37
g291
sg70
(lp300
g122
aV*
ag123
ag124
asg74
Vhttp://www.rsspect.com/rss/RSSPECT-001176699
p301
stRp302
ag1
(g2
g3
(dp303
S'summary_detail'
p304
g1
(g2
g3
(dp305
g27
S'http://www.rsspect.com/rss/threeps.xml'
p306
sg16
S'text/html'
p307
sg21
Nsg30
V<img src="http://www.threepanelsoul.com/comics/176.png" alt="" border="0" /><p></p>
p308
stRp309
sg55
g41
((I2010
I10
I12
I11
I45
I53
I1
I285
I0
t(dtRp310
sg11
(lp311
g1
(g2
g3
(dp312
g14
Vhttp://www.threepanelsoul.com/
p313
sg16
g17
sg18
g19
stRp314
asg23
VOn Salesmanship
p315
sg40
VTue, 12 Oct 2010 04:45:53 -0700
p316
sg63
g308
sg64
I00
sS'title_detail'
p317
g1
(g2
g3
(dp318
g27
S'http://www.rsspect.com/rss/threeps.xml'
p319
sg16
S'text/plain'
p320
sg21
Nsg30
g315
stRp321
sg37
g313
sg70
(lp322
g122
aV*
ag123
ag124
asg74
Vhttp://www.rsspect.com/rss/RSSPECT-001169673
p323
stRp324
ag1
(g2
g3
(dp325
S'summary_detail'
p326
g1
(g2
g3
(dp327
g27
S'http://www.rsspect.com/rss/threeps.xml'
p328
sg16
S'text/html'
p329
sg21
Nsg30
V<img src="http://www.threepanelsoul.com/comics/175.png" alt="" border="0" /><p></p>
p330
stRp331
sg55
g41
((I2010
I10
I4
I6
I7
I37
I0
I277
I0
t(dtRp332
sg11
(lp333
g1
(g2
g3
(dp334
g14
Vhttp://www.threepanelsoul.com/
p335
sg16
g17
sg18
g19
stRp336
asg23
VOn EV Points
p337
sg40
VSun, 03 Oct 2010 23:07:37 -0700
p338
sg63
g330
sg64
I00
sS'title_detail'
p339
g1
(g2
g3
(dp340
g27
S'http://www.rsspect.com/rss/threeps.xml'
p341
sg16
S'text/plain'
p342
sg21
Nsg30
g337
stRp343
sg37
g335
sg70
(lp344
g122
aV*
ag123
ag124
asg74
Vhttp://www.rsspect.com/rss/RSSPECT-001166269
p345
stRp346
ag1
(g2
g3
(dp347
S'summary_detail'
p348
g1
(g2
g3
(dp349
g27
S'http://www.rsspect.com/rss/threeps.xml'
p350
sg16
S'text/html'
p351
sg21
Nsg30
V<img src="http://www.threepanelsoul.com/comics/174.png" alt="" border="0" /><p></p>
p352
stRp353
sg55
g41
((I2010
I9
I27
I7
I55
I41
I0
I270
I0
t(dtRp354
sg11
(lp355
g1
(g2
g3
(dp356
g14
Vhttp://www.threepanelsoul.com/
p357
sg16
g17
sg18
g19
stRp358
asg23
VOn Expediency
p359
sg40
VMon, 27 Sep 2010 00:55:41 -0700
p360
sg63
g352
sg64
I00
sS'title_detail'
p361
g1
(g2
g3
(dp362
g27
S'http://www.rsspect.com/rss/threeps.xml'
p363
sg16
S'text/plain'
p364
sg21
Nsg30
g359
stRp365
sg37
g357
sg70
(lp366
g122
aV*
ag123
ag124
asg74
Vhttp://www.rsspect.com/rss/RSSPECT-001162562
p367
stRp368
ag1
(g2
g3
(dp369
S'summary_detail'
p370
g1
(g2
g3
(dp371
g27
S'http://www.rsspect.com/rss/threeps.xml'
p372
sg16
S'text/html'
p373
sg21
Nsg30
V<img src="http://www.threepanelsoul.com/comics/173.png" alt="" border="0" /><p></p>
p374
stRp375
sg55
g41
((I2010
I9
I16
I15
I37
I54
I3
I259
I0
t(dtRp376
sg11
(lp377
g1
(g2
g3
(dp378
g14
Vhttp://www.threepanelsoul.com/
p379
sg16
g17
sg18
g19
stRp380
asg23
VOn Convenience
p381
sg40
VThu, 16 Sep 2010 08:37:54 -0700
p382
sg63
g374
sg64
I00
sS'title_detail'
p383
g1
(g2
g3
(dp384
g27
S'http://www.rsspect.com/rss/threeps.xml'
p385
sg16
S'text/plain'
p386
sg21
Nsg30
g381
stRp387
sg37
g379
sg70
(lp388
g122
aV*
ag123
ag124
asg74
Vhttp://www.rsspect.com/rss/RSSPECT-001156798
p389
stRp390
ag1
(g2
g3
(dp391
S'summary_detail'
p392
g1
(g2
g3
(dp393
S'base'
p394
S'http://www.rsspect.com/rss/threeps.xml'
p395
sS'type'
p396
S'text/html'
p397
sS'value'
p398
V<img src="http://www.threepanelsoul.com/comics/172.png" alt="" border="0" /><p></p>
p399
sS'language'
p400
NstRp401
sS'updated_parsed'
p402
g41
((I2010
I9
I7
I5
I21
I25
I1
I250
I0
t(dtRp403
sS'links'
p404
(lp405
g1
(g2
g3
(dp406
S'href'
p407
Vhttp://www.threepanelsoul.com/
p408
sg396
S'text/html'
p409
sS'rel'
p410
S'alternate'
p411
stRp412
asS'title'
p413
VOn Office Mandatory Nap-Time
p414
sS'updated'
p415
VMon, 06 Sep 2010 22:21:25 -0700
p416
sS'summary'
p417
g399
sS'guidislink'
p418
I00
sS'title_detail'
p419
g1
(g2
g3
(dp420
g394
S'http://www.rsspect.com/rss/threeps.xml'
p421
sg396
S'text/plain'
p422
sg398
g414
sg400
NstRp423
sS'link'
p424
g408
sS'canto_state'
p425
(lp426
g122
aV*
ag123
ag124
asS'id'
p427
Vhttp://www.rsspect.com/rss/RSSPECT-001152730
p428
stRp429
ag1
(g2
g3
(dp430
S'summary_detail'
p431
g1
(g2
g3
(dp432
S'base'
p433
S'http://www.rsspect.com/rss/threeps.xml'
p434
sS'type'
p435
S'text/html'
p436
sS'value'
p437
V<img src="http://www.threepanelsoul.com/comics/171.png" alt="" border="0" /><p></p>
p438
sS'language'
p439
NstRp440
sS'updated_parsed'
p441
g41
((I2010
I8
I23
I12
I24
I23
I0
I235
I0
t(dtRp442
sS'links'
p443
(lp444
g1
(g2
g3
(dp445
S'href'
p446
Vhttp://www.threepanelsoul.com/
p447
sg435
S'text/html'
p448
sS'rel'
p449
S'alternate'
p450
stRp451
asS'title'
p452
VOn Bachelor Cooking
p453
sS'updated'
p454
VMon, 23 Aug 2010 05:24:23 -0700
p455
sS'summary'
p456
g438
sS'guidislink'
p457
I00
sS'title_detail'
p458
g1
(g2
g3
(dp459
g433
S'http://www.rsspect.com/rss/threeps.xml'
p460
sg435
S'text/plain'
p461
sg437
g453
sg439
NstRp462
sS'link'
p463
g447
sS'canto_state'
p464
(lp465
g122
aV*
ag123
ag124
asS'id'
p466
Vhttp://www.rsspect.com/rss/RSSPECT-001147346
p467
stRp468
asS'canto_update'
p469
F1297684098.3940091
sS'headers'
p470
(dp471
S'content-length'
p472
S'5588'
p473
sS'accept-ranges'
p474
S'bytes'
p475
sS'server'
p476
S'Apache'
p477
sS'last-modified'
p478
S'Mon, 31 Jan 2011 04:20:17 GMT'
p479
sS'connection'
p480
S'close'
p481
sS'etag'
p482
S'"91acc33-15d4-49b1cbbae6240"'
p483
sS'date'
p484
S'Mon, 14 Feb 2011 11:48:24 GMT'
p485
sS'content-type'
p486
S'application/xml'
p487
ssg14
S'http://www.rsspect.com/rss/threeps.xml'
p488
sS'version'
p489
S'rss20'
p490
sg70
(lp491
sS'etag'
p492
g483
sS'namespaces'
p493
(dp494
sS'canto_version'
p495
(I0
I7
I9
tp496
stRp497
.