ccopy_reg
_reconstructor
p1
(cfeedparser
FeedParserDict
p2
c__builtin__
dict
p3
(dp4
S'feed'
p5
g1
(g2
g3
(dp6
S'updated'
p7
V2011-02-14T04:01:10.566-07:00
p8
sS'subtitle'
p9
VBlog of Indescribable Awesomeness
p10
sS'updated_parsed'
p11
ctime
struct_time
p12
((I2011
I2
I14
I4
I1
I10
I0
I45
I0
t(dtRp13
sS'links'
p14
(lp15
g1
(g2
g3
(dp16
S'href'
p17
Vhttp://hyperboleandahalf.blogspot.com/feeds/posts/default
p18
sS'type'
p19
Vapplication/atom+xml
p20
sS'rel'
p21
Vhttp://schemas.google.com/g/2005#feed
p22
stRp23
ag1
(g2
g3
(dp24
S'href'
p25
Vhttp://hyperboleandahalf.blogspot.com/
p26
sS'type'
p27
Vtext/html
p28
sS'rel'
p29
Valternate
p30
stRp31
ag1
(g2
g3
(dp32
S'href'
p33
Vhttp://www.blogger.com/feeds/4643741973264866223/posts/default?start-index=4&max-results=3&redirect=false&v=2
p34
sS'type'
p35
Vapplication/atom+xml
p36
sS'rel'
p37
Vnext
p38
stRp39
ag1
(g2
g3
(dp40
S'href'
p41
Vhttp://feeds.feedburner.com/Hyperbole-and-a-half
p42
sS'type'
p43
Vapplication/atom+xml
p44
sS'rel'
p45
Vself
p46
stRp47
ag1
(g2
g3
(dp48
S'href'
p49
Vhttp://pubsubhubbub.appspot.com/
p50
sS'type'
p51
S'text/html'
p52
sS'rel'
p53
Vhub
p54
stRp55
ag1
(g2
g3
(dp56
S'href'
p57
Vhttp://creativecommons.org/licenses/by-nd/3.0/
p58
sS'type'
p59
Vtext/html
p60
sS'rel'
p61
Vlicense
p62
stRp63
asS'feedburner_emailserviceid'
p64
VHyperbole-and-a-half
p65
sS'generator_detail'
p66
g1
(g2
g3
(dp67
S'href'
p68
Vhttp://www.blogger.com
p69
sS'version'
p70
V7.00
p71
sS'name'
p72
VBlogger
p73
stRp74
sS'feedburner_info'
p75
V
sg68
Vhttp://www.blogger.com/profile/04259303604002690708
p76
sS'link'
p77
g26
sS'opensearch_totalresults'
p78
V173
p79
sS'author_detail'
p80
g1
(g2
g3
(dp81
g68
g76
sg72
VAllie
p82
sS'email'
p83
Vickybana5@hotmail.com
p84
stRp85
sS'id'
p86
Vtag:blogger.com,1999:blog-4643741973264866223
p87
sS'feedburner_feedburnerhostname'
p88
Vhttp://feedburner.google.com
p89
sS'generator'
p90
g73
sS'title'
p91
VHyperbole and a Half
p92
sS'author'
p93
VAllie (ickybana5@hotmail.com)
p94
sS'subtitle_detail'
p95
g1
(g2
g3
(dp96
S'base'
p97
S'http://feeds.feedburner.com/Hyperbole-and-a-half'
p98
sg51
S'text/html'
p99
sS'language'
p100
NsS'value'
p101
g10
stRp102
sS'title_detail'
p103
g1
(g2
g3
(dp104
g97
S'http://feeds.feedburner.com/Hyperbole-and-a-half'
p105
sg51
S'text/plain'
p106
sg100
Nsg101
g92
stRp107
sS'opensearch_startindex'
p108
V1
sS'opensearch_itemsperpage'
p109
V3
stRp110
sS'status'
p111
I200
sg7
g12
((I2011
I2
I14
I11
I19
I59
I0
I45
I0
t(dtRp112
sS'encoding'
p113
S'UTF-8'
p114
sS'bozo'
p115
I0
sS'entries'
p116
(lp117
g1
(g2
g3
(dp118
g7
V2011-01-18T12:05:09.222-07:00
p119
sg9
VBenny came to the birthday party because his mom had volunteered him to help supervise the children.  He must have felt out of place being the lone teenage boy amidst a flock of over-excited six-year-old girls, but we welcomed his presence.  We saw him as a sort of prop that we could manipulate in our imaginary games - a living, breathing human that would submit to pretending to be whatever we wanted it to pretend to be.  On that particular day, we wanted to play a game called "wolf pack" which we had invented after watching a documentary about the hunting tactics of wolves. <br />\u000a<br />\u000aWe swarmed Benny as he was preparing to pour himself a glass of apple juice.<br />\u000a<div class="separator">\u000a<br /></div>\u000a<div class="separator">\u000a<a href="http://4.bp.blogspot.com/_D_Z-D2tzi14/TTKxn6k59fI/AAAAAAAAETo/E7zdS78gAes/s1600/wolf8.png"><img border="0" height="300" src="http://4.bp.blogspot.com/_D_Z-D2tzi14/TTKxn6k59fI/AAAAAAAAETo/E7zdS78gAes/s400/wolf8.png" width="400" /></a></div>\u000a<div class="separator">\u000a<a href="http://3.bp.blogspot.com/_D_Z-D2tzi14/TTKwUrr8bvI/AAAAAAAAETk/xroB-M5jUwA/s1600/wolf25.png"><img border="0" height="300" src="http://3.bp.blogspot.com/_D_Z-D2tzi14/TTKwUrr8bvI/AAAAAAAAETk/xroB-M5jUwA/s400/wolf25.png" width="400" /></a></div>\u000a<div class="separator">\u000a</div>\u000a<div class="separator">\u000a<a href="http://2.bp.blogspot.com/_D_Z-D2tzi14/TTKtX_5sdDI/AAAAAAAAETg/_n7tjMl39pk/s1600/wolf9.png"><img border="0" height="300" src="http://2.bp.blogspot.com/_D_Z-D2tzi14/TTKtX_5sdDI/AAAAAAAAETg/_n7tjMl39pk/s400/wolf9.png" width="400" /></a></div>\u000a<div class="separator">\u000a<br /></div>\u000a<div class="separator">\u000aAs a 13-year-old boy, Benny probably did not relish the idea of wasting an entire day entertaining us.  But he was a good-natured young man, and he had agreed to help keep us out of trouble, so he reluctantly asked us what we wanted to play.  </div>\u000a<div class="separator">\u000a<br /></div>\u000a<div class="separator">\u000a<b>Us:</b> &nbsp;"Wolf pack!"&nbsp;</div>\u000a<div class="separator">\u000a<br /></div>\u000a<div class="separator">\u000a<b>Benny:</b> "How do you play 'wolf pack'?"&nbsp;</div>\u000a<div class="separator">\u000a<br /></div>\u000a<div class="separator">\u000a<b>Us:</b>  "We're the wolves and you're the deer. We close our eyes and count to twenty and you run away. Then we try to find you and catch you!"</div>\u000a<div class="separator">\u000a<br /></div>\u000a<div class="separator">\u000a<b>Benny:</b> &nbsp;"Okay. Where do you want to play?"&nbsp;</div>\u000a<div class="separator">\u000a<br /></div>\u000a<div class="separator">\u000a<b>Us:</b> &nbsp;"In the forest!"&nbsp;</div>\u000a<div class="separator">\u000a<br /></div>\u000a<div class="separator">\u000aBenny followed us outside and we led him deep into the vast expanse of backwoods wilderness that was to be our playing field. &nbsp;We reached a small clearing and decided to start the game there. &nbsp;We yelled at Benny, "<i>Now run away</i>!" &nbsp;</div>\u000a<div class="separator">\u000a<br /></div>\u000a<div class="separator">\u000aAnd we began to count. &nbsp;</div>\u000a<div class="separator">\u000a<br /></div>\u000a<div class="separator">\u000aBenny scurried off into the forest, calling out behind himself to help make the game easier for us. &nbsp;He thought we would have trouble finding and catching him. &nbsp;</div>\u000a<div class="separator">\u000a<br /></div>\u000a<div class="separator">\u000a<a href="http://3.bp.blogspot.com/_D_Z-D2tzi14/TTKzqSfExhI/AAAAAAAAETs/_8m101tJ9TI/s1600/wolf19.png"><img border="0" height="300" src="http://3.bp.blogspot.com/_D_Z-D2tzi14/TTKzqSfExhI/AAAAAAAAETs/_8m101tJ9TI/s400/wolf19.png" width="400" /></a></div>\u000a<div class="separator">\u000a<a href="http://3.bp.blogspot.com/_D_Z-D2tzi14/TTK0GLhkGkI/AAAAAAAAETw/54n2IjvMaus/s1600/wolf20.png"><img border="0" height="300" src="http://3.bp.blogspot.com/_D_Z-D2tzi14/TTK0GLhkGkI/AAAAAAAAETw/54n2IjvMaus/s400/wolf20.png" width="400" /></a></div>\u000a<div class="separator">\u000a<br /></div>\u000a<div>\u000aWhat Benny did not know was that we were incredibly serious about the realistic aspects of "wolf pack." &nbsp;In our wildly vivid imaginations, we were actually wolves and Benny was actually a deer.&nbsp;</div>\u000a<div>\u000a<br />\u000a<div>\u000a<div class="separator">\u000a<a href="http://4.bp.blogspot.com/_D_Z-D2tzi14/TTQQjEbilhI/AAAAAAAAEXQ/yzX67zLW05Q/s1600/wolf47.png"><img border="0" height="300" src="http://4.bp.blogspot.com/_D_Z-D2tzi14/TTQQjEbilhI/AAAAAAAAEXQ/yzX67zLW05Q/s400/wolf47.png" width="400" /></a></div>\u000a</div>\u000a</div>\u000a<div class="separator">\u000a<a href="http://1.bp.blogspot.com/_D_Z-D2tzi14/TTK0dyJQvqI/AAAAAAAAET0/il5gUOSFO50/s1600/wolf21.png"><img border="0" height="300" src="http://1.bp.blogspot.com/_D_Z-D2tzi14/TTK0dyJQvqI/AAAAAAAAET0/il5gUOSFO50/s400/wolf21.png" width="400" /></a></div>\u000a<div class="separator">\u000a<br /></div>\u000a<div class="separator">\u000aWe found him almost immediately. &nbsp;&nbsp;</div>\u000a<div class="separator">\u000a<br /></div>\u000a<div class="separator">\u000a<a href="http://1.bp.blogspot.com/_D_Z-D2tzi14/TTK03duomrI/AAAAAAAAET4/wMXbWsJceZs/s1600/wolf23.png"><img border="0" height="300" src="http://1.bp.blogspot.com/_D_Z-D2tzi14/TTK03duomrI/AAAAAAAAET4/wMXbWsJceZs/s400/wolf23.png" width="400" /></a></div>\u000a<div class="separator">\u000a<a href="http://3.bp.blogspot.com/_D_Z-D2tzi14/TTOA0QvjEwI/AAAAAAAAEVI/pAtQPh_hXaU/s1600/wolf4.png"><img border="0" height="300" src="http://3.bp.blogspot.com/_D_Z-D2tzi14/TTOA0QvjEwI/AAAAAAAAEVI/pAtQPh_hXaU/s400/wolf4.png" width="400" /></a></div>\u000a<div class="separator">\u000a</div>\u000a<div class="separator">\u000a</div>\u000a<div class="separator">\u000a</div>\u000a<div class="separator">\u000a<a href="http://4.bp.blogspot.com/_D_Z-D2tzi14/TTK12b5aCiI/AAAAAAAAEUE/7Sesa3_dZI0/s1600/wolf2.png"><img border="0" height="300" src="http://4.bp.blogspot.com/_D_Z-D2tzi14/TTK12b5aCiI/AAAAAAAAEUE/7Sesa3_dZI0/s400/wolf2.png" width="400" /></a></div>\u000a<div class="separator">\u000a</div>\u000a<div class="separator">\u000a</div>\u000a<div class="separator">\u000a<a href="http://4.bp.blogspot.com/_D_Z-D2tzi14/TTK1i02FXBI/AAAAAAAAEUA/oOSpmaPy4lA/s1600/wolf7.png"><img border="0" height="300" src="http://4.bp.blogspot.com/_D_Z-D2tzi14/TTK1i02FXBI/AAAAAAAAEUA/oOSpmaPy4lA/s400/wolf7.png" width="400" /></a></div>\u000a<div>\u000a<br /></div>\u000a<div>\u000aBenny probably would have tried harder if he knew that losing the game involved so much biting. &nbsp;But he did not expect that the game would be so true to life. I'm sure it was quite painful for him, but that was a necessary casualty for the game to feel convincing and fun. &nbsp;</div>\u000a<div>\u000a<br /></div>\u000a<div>\u000aBenny fought bravely, but there were too many of us and he was handicapped by his reluctance to punch and kick a bunch of six-year-olds.  We wrestled him to the ground and bit him repeatedly until we were satisfied that we had "killed" him.</div>\u000a<div>\u000a<br /></div>\u000a<div class="separator">\u000a<a href="http://4.bp.blogspot.com/_D_Z-D2tzi14/TTK3GXRHzgI/AAAAAAAAEUI/LVi21OvIPjM/s1600/wolf11.png"><img border="0" height="300" src="http://4.bp.blogspot.com/_D_Z-D2tzi14/TTK3GXRHzgI/AAAAAAAAEUI/LVi21OvIPjM/s400/wolf11.png" width="400" /></a></div>\u000a<div class="separator">\u000a<a href="http://2.bp.blogspot.com/_D_Z-D2tzi14/TTK3NwmBTWI/AAAAAAAAEUM/limZrzIdwE8/s1600/wolf10.png"><img border="0" height="300" src="http://2.bp.blogspot.com/_D_Z-D2tzi14/TTK3NwmBTWI/AAAAAAAAEUM/limZrzIdwE8/s400/wolf10.png" width="400" /></a></div>\u000a<div class="separator">\u000a<a href="http://1.bp.blogspot.com/_D_Z-D2tzi14/TTK3ZpWdUSI/AAAAAAAAEUQ/Fl88Whad3kk/s1600/wolf18.png"><img border="0" height="300" src="http://1.bp.blogspot.com/_D_Z-D2tzi14/TTK3ZpWdUSI/AAAAAAAAEUQ/Fl88Whad3kk/s400/wolf18.png" width="400" /></a></div>\u000a<div class="separator">\u000a<a href="http://4.bp.blogspot.com/_D_Z-D2tzi14/TTK3mgSBRXI/AAAAAAAAEUU/O5bav9Uppw8/s1600/wolf12.png"><img border="0" height="300" src="http://4.bp.blogspot.com/_D_Z-D2tzi14/TTK3mgSBRXI/AAAAAAAAEUU/O5bav9Uppw8/s400/wolf12.png" width="400" /></a></div>\u000a<div class="separator">\u000a<a href="http://2.bp.blogspot.com/_D_Z-D2tzi14/TTK3sFYheVI/AAAAAAAAEUY/1425vO2tHB8/s1600/wolf15.png"><img border="0" height="300" src="http://2.bp.blogspot.com/_D_Z-D2tzi14/TTK3sFYheVI/AAAAAAAAEUY/1425vO2tHB8/s400/wolf15.png" width="400" /></a></div>\u000a<div class="separator">\u000a<a href="http://3.bp.blogspot.com/_D_Z-D2tzi14/TTK3x7xuhCI/AAAAAAAAEUc/oKu9o14yeyk/s1600/wolf13.png"><img border="0" height="300" src="http://3.bp.blogspot.com/_D_Z-D2tzi14/TTK3x7xuhCI/AAAAAAAAEUc/oKu9o14yeyk/s400/wolf13.png" width="400" /></a></div>\u000a<div class="separator">\u000a<a href="http://2.bp.blogspot.com/_D_Z-D2tzi14/TTK4BrYxpFI/AAAAAAAAEUk/TYGlgQn2I_w/s1600/wolf16.png"><img border="0" height="300" src="http://2.bp.blogspot.com/_D_Z-D2tzi14/TTK4BrYxpFI/AAAAAAAAEUk/TYGlgQn2I_w/s400/wolf16.png" width="400" /></a></div>\u000a<div class="separator">\u000a<a href="http://2.bp.blogspot.com/_D_Z-D2tzi14/TTK366BgKlI/AAAAAAAAEUg/57ixdclhyik/s1600/wolf14.png"><img border="0" height="300" src="http://2.bp.blogspot.com/_D_Z-D2tzi14/TTK366BgKlI/AAAAAAAAEUg/57ixdclhyik/s400/wolf14.png" width="400" /></a></div>\u000a<div class="separator">\u000a<a href="http://3.bp.blogspot.com/_D_Z-D2tzi14/TTK4IKSgnWI/AAAAAAAAEUo/8DpERY6u_ks/s1600/wolf17.png"><img border="0" height="300" src="http://3.bp.blogspot.com/_D_Z-D2tzi14/TTK4IKSgnWI/AAAAAAAAEUo/8DpERY6u_ks/s400/wolf17.png" width="400" /></a></div>\u000a<div>\u000a<br /></div>\u000a<div>\u000aAt that point, Benny had two options: he could stand there and try to reason with us until we finished counting and mauled him again, or he could flee and try to find his way back to the safety of the house before we caught him.&nbsp;</div>\u000a<div>\u000a<br /></div>\u000a<div>\u000aBenny chose fleeing. &nbsp;</div>\u000a<div>\u000a<br /></div>\u000a<div>\u000aBut it was starting to get dark and the woods were unfamiliar to Benny. &nbsp;There were labyrinths of footprints, left behind from our previous forest adventures, providing a confusing web of false trails. &nbsp;He desperately clawed his way through the underbrush in a random direction that he hoped was the right one, but he only had twenty seconds and things weren't looking good for him. &nbsp;We finished counting and took off after him.&nbsp;</div>\u000a<div>\u000a<br /></div>\u000a<div class="separator">\u000a<a href="http://4.bp.blogspot.com/_D_Z-D2tzi14/TTK6TuXiGjI/AAAAAAAAEUw/-vwo5OVFlkg/s1600/wolf26.png"><img border="0" height="300" src="http://4.bp.blogspot.com/_D_Z-D2tzi14/TTK6TuXiGjI/AAAAAAAAEUw/-vwo5OVFlkg/s400/wolf26.png" width="400" /></a></div>\u000a<div class="separator">\u000a<a href="http://3.bp.blogspot.com/_D_Z-D2tzi14/TTQePpdlIpI/AAAAAAAAEXU/s76wHuxkLGw/s1600/wolf48.png"><img border="0" height="300" src="http://3.bp.blogspot.com/_D_Z-D2tzi14/TTQePpdlIpI/AAAAAAAAEXU/s76wHuxkLGw/s400/wolf48.png" width="400" /></a></div>\u000a<div class="separator">\u000a</div>\u000a<div class="separator">\u000a<a href="http://2.bp.blogspot.com/_D_Z-D2tzi14/TTK6jDxEz2I/AAAAAAAAEU4/TBa_Xug6jOc/s1600/wolf6.png"><img border="0" height="300" src="http://2.bp.blogspot.com/_D_Z-D2tzi14/TTK6jDxEz2I/AAAAAAAAEU4/TBa_Xug6jOc/s400/wolf6.png" width="400" /></a></div>\u000a<div class="separator">\u000a<a href="http://3.bp.blogspot.com/_D_Z-D2tzi14/TTQegiWEnVI/AAAAAAAAEXY/WoVEPeTVHNs/s1600/wolf.png"><img border="0" height="300" src="http://3.bp.blogspot.com/_D_Z-D2tzi14/TTQegiWEnVI/AAAAAAAAEXY/WoVEPeTVHNs/s400/wolf.png" width="400" /></a></div>\u000a<div class="separator">\u000a</div>\u000a<div>\u000a<br /></div>\u000a<div>\u000aBenny was faster than us, but we greatly outnumbered him and we were able to strategically "herd" him into a clearing where we surrounded him and went in for the kill. &nbsp;</div>\u000a<div>\u000a<br /></div>\u000a<div class="separator">\u000a<a href="http://1.bp.blogspot.com/_D_Z-D2tzi14/TTK7Xt_sEMI/AAAAAAAAEU8/vhb4mLxaISM/s1600/wolf24.png"><img border="0" height="300" src="http://1.bp.blogspot.com/_D_Z-D2tzi14/TTK7Xt_sEMI/AAAAAAAAEU8/vhb4mLxaISM/s400/wolf24.png" width="400" /></a></div>\u000a<div>\u000a<br />\u000a<div>\u000aBenny had severely underestimated our hunting and maiming capabilities. &nbsp;We were not like ordinary little girls who frittered away their time hosting tea parties and pretending to be princesses. &nbsp;We had spent countless hours out in the forest, sharpening our hunting tactics on imaginary prey and we finally had an opportunity to put all of our practice to use on a real thing that would run away from us and struggle for survival. &nbsp;Unfortunately for Benny, we had not yet developed the ability to empathize with the pain and suffering of other people, and his terrified fleeing was pretty much the most fun thing that had ever happened to us.&nbsp;</div>\u000a<div>\u000a<br /></div>\u000a<div>\u000aOnce again, we let him stand up after we were satisfied that we had bitten him enough times. &nbsp;</div>\u000a<div>\u000a<br /></div>\u000a<div class="separator">\u000a<a href="http://1.bp.blogspot.com/_D_Z-D2tzi14/TTPCX40Ce-I/AAAAAAAAEWU/OvHfDyR8aok/s1600/wolf41.png"><img border="0" height="300" src="http://1.bp.blogspot.com/_D_Z-D2tzi14/TTPCX40Ce-I/AAAAAAAAEWU/OvHfDyR8aok/s400/wolf41.png" width="400" /></a></div>\u000a<div class="separator">\u000a<a href="http://4.bp.blogspot.com/_D_Z-D2tzi14/TTPClRZ6loI/AAAAAAAAEWc/bZoZspSdGkA/s1600/wolf41.png"><img border="0" height="300" src="http://4.bp.blogspot.com/_D_Z-D2tzi14/TTPClRZ6loI/AAAAAAAAEWc/bZoZspSdGkA/s400/wolf41.png" width="400" /></a></div>\u000a<div class="separator">\u000a<a href="http://3.bp.blogspot.com/_D_Z-D2tzi14/TTPCe-FgpHI/AAAAAAAAEWY/QPE8NUfykLo/s1600/wolf40.png"><img border="0" height="300" src="http://3.bp.blogspot.com/_D_Z-D2tzi14/TTPCe-FgpHI/AAAAAAAAEWY/QPE8NUfykLo/s400/wolf40.png" width="400" /></a></div>\u000a<div>\u000a<br /></div>\u000a<div>\u000aIt became clear to Benny that he was going to have to play the game over and over and over until he could find his way back to the house. &nbsp;He had to make the most of the 20 seconds we gave him to flee and try to make as much progress as possible in between maulings. &nbsp;</div>\u000a<div>\u000a<br /></div>\u000a<div>\u000aWe were exhausted from all of the chasing, but we weren't ready to stop playing, so we began to rely much more heavily on stealth.  We stalked Benny through the darkening woods, waiting for him to make himself vulnerable to attack.</div>\u000a<div>\u000a<br /></div>\u000a<div class="separator">\u000a<a href="http://2.bp.blogspot.com/_D_Z-D2tzi14/TTO0TZvoIlI/AAAAAAAAEVM/U66U4rIcfsQ/s1600/wolf30.png"><img border="0" height="300" src="http://2.bp.blogspot.com/_D_Z-D2tzi14/TTO0TZvoIlI/AAAAAAAAEVM/U66U4rIcfsQ/s400/wolf30.png" width="400" /></a></div>\u000a<div class="separator">\u000a<a href="http://4.bp.blogspot.com/_D_Z-D2tzi14/TTO0bP14ZhI/AAAAAAAAEVQ/JjNTN1RoyLI/s1600/wolf29.png"><img border="0" height="300" src="http://4.bp.blogspot.com/_D_Z-D2tzi14/TTO0bP14ZhI/AAAAAAAAEVQ/JjNTN1RoyLI/s400/wolf29.png" width="400" /></a></div>\u000a<div class="separator">\u000a<a href="http://4.bp.blogspot.com/_D_Z-D2tzi14/TTO8M9j_J2I/AAAAAAAAEWQ/YLj_7qpFuqg/s1600/wolf28alt.png"><img border="0" height="300" src="http://4.bp.blogspot.com/_D_Z-D2tzi14/TTO8M9j_J2I/AAAAAAAAEWQ/YLj_7qpFuqg/s400/wolf28alt.png" width="400" /></a></div>\u000a<div class="separator">\u000a<a href="http://2.bp.blogspot.com/_D_Z-D2tzi14/TTO0gqYZ7HI/AAAAAAAAEVU/HVpVL_fQ1j0/s1600/wolf28.png"><img border="0" height="300" src="http://2.bp.blogspot.com/_D_Z-D2tzi14/TTO0gqYZ7HI/AAAAAAAAEVU/HVpVL_fQ1j0/s400/wolf28.png" width="400" /></a></div>\u000a<div class="separator">\u000a<a href="http://1.bp.blogspot.com/_D_Z-D2tzi14/TTO0pwdoyGI/AAAAAAAAEVY/XK197_vxa-s/s1600/wolf31.png"><img border="0" height="300" src="http://1.bp.blogspot.com/_D_Z-D2tzi14/TTO0pwdoyGI/AAAAAAAAEVY/XK197_vxa-s/s400/wolf31.png" width="400" /></a></div>\u000a<div class="separator">\u000a<a href="http://3.bp.blogspot.com/_D_Z-D2tzi14/TTO5ZXkw4KI/AAAAAAAAEWA/4lD5lo6gujI/s1600/wolf36alt.png"><img border="0" height="300" src="http://3.bp.blogspot.com/_D_Z-D2tzi14/TTO5ZXkw4KI/AAAAAAAAEWA/4lD5lo6gujI/s400/wolf36alt.png" width="400" /></a></div>\u000a<div class="separator">\u000a</div>\u000a<div class="separator">\u000a<a href="http://2.bp.blogspot.com/_D_Z-D2tzi14/TTO0xXHg_rI/AAAAAAAAEVc/lFi9oJcSFmc/s1600/wolf32alt.png"><img border="0" height="300" src="http://2.bp.blogspot.com/_D_Z-D2tzi14/TTO0xXHg_rI/AAAAAAAAEVc/lFi9oJcSFmc/s400/wolf32alt.png" width="400" /></a></div>\u000a<div class="separator">\u000a<a href="http://1.bp.blogspot.com/_D_Z-D2tzi14/TTO7vSVAY6I/AAAAAAAAEWM/uevdBPe5ZBc/s1600/wolf32alt.png"><img border="0" height="300" src="http://1.bp.blogspot.com/_D_Z-D2tzi14/TTO7vSVAY6I/AAAAAAAAEWM/uevdBPe5ZBc/s400/wolf32alt.png" width="400" /></a></div>\u000a<div class="separator">\u000a</div>\u000a<div class="separator">\u000a<a href="http://2.bp.blogspot.com/_D_Z-D2tzi14/TTO029KjesI/AAAAAAAAEVg/Rv4HIXoevnM/s1600/wolf33.png"><img border="0" height="300" src="http://2.bp.blogspot.com/_D_Z-D2tzi14/TTO029KjesI/AAAAAAAAEVg/Rv4HIXoevnM/s400/wolf33.png" width="400" /></a></div>\u000a<div class="separator">\u000a<a href="http://1.bp.blogspot.com/_D_Z-D2tzi14/TTO5pOmAWKI/AAAAAAAAEWI/GAe-sx0putc/s1600/wolf39alt.png"><img border="0" height="300" src="http://1.bp.blogspot.com/_D_Z-D2tzi14/TTO5pOmAWKI/AAAAAAAAEWI/GAe-sx0putc/s400/wolf39alt.png" width="400" /></a></div>\u000a<div class="separator">\u000a<a href="http://4.bp.blogspot.com/_D_Z-D2tzi14/TTPEgDZvWHI/AAAAAAAAEWg/mGx1Q-roORc/s1600/wolf32alt.png"><img border="0" height="300" src="http://4.bp.blogspot.com/_D_Z-D2tzi14/TTPEgDZvWHI/AAAAAAAAEWg/mGx1Q-roORc/s400/wolf32alt.png" width="400" /></a></div>\u000a<div class="separator">\u000a</div>\u000a<div class="separator">\u000a<a href="http://1.bp.blogspot.com/_D_Z-D2tzi14/TTO1CPch9lI/AAAAAAAAEVo/FrcSd-ZXIDA/s1600/wolf34.png"><img border="0" height="300" src="http://1.bp.blogspot.com/_D_Z-D2tzi14/TTO1CPch9lI/AAAAAAAAEVo/FrcSd-ZXIDA/s400/wolf34.png" width="400" /></a></div>\u000a<div class="separator">\u000a</div>\u000a<div class="separator">\u000a<a href="http://1.bp.blogspot.com/_D_Z-D2tzi14/TTO1MKeJvaI/AAAAAAAAEVs/eDkCOMhHRv8/s1600/wolf37.png"><img border="0" height="300" src="http://1.bp.blogspot.com/_D_Z-D2tzi14/TTO1MKeJvaI/AAAAAAAAEVs/eDkCOMhHRv8/s400/wolf37.png" width="400" /></a></div>\u000a<div class="separator">\u000a<a href="http://2.bp.blogspot.com/_D_Z-D2tzi14/TTPEoTk4PGI/AAAAAAAAEWk/rwYsrJa_kg0/s1600/wolf32alt.png"><img border="0" height="300" src="http://2.bp.blogspot.com/_D_Z-D2tzi14/TTPEoTk4PGI/AAAAAAAAEWk/rwYsrJa_kg0/s400/wolf32alt.png" width="400" /></a></div>\u000a<div class="separator">\u000a<a href="http://3.bp.blogspot.com/_D_Z-D2tzi14/TTPEs5Qr58I/AAAAAAAAEWo/pF1-fMugeAA/s1600/wolf32alt.png"><img border="0" height="300" src="http://3.bp.blogspot.com/_D_Z-D2tzi14/TTPEs5Qr58I/AAAAAAAAEWo/pF1-fMugeAA/s400/wolf32alt.png" width="400" /></a></div>\u000a<div class="separator">\u000a<a href="http://3.bp.blogspot.com/_D_Z-D2tzi14/TTPE2tyRkRI/AAAAAAAAEWs/v7NSg30K-Y8/s1600/wolf32alt.png"><img border="0" height="300" src="http://3.bp.blogspot.com/_D_Z-D2tzi14/TTPE2tyRkRI/AAAAAAAAEWs/v7NSg30K-Y8/s400/wolf32alt.png" width="400" /></a></div>\u000a<div class="separator">\u000a<a href="http://1.bp.blogspot.com/_D_Z-D2tzi14/TTO1UBmhH8I/AAAAAAAAEVw/8s0zx9uo_sk/s1600/wolf35.png"><img border="0" height="300" src="http://1.bp.blogspot.com/_D_Z-D2tzi14/TTO1UBmhH8I/AAAAAAAAEVw/8s0zx9uo_sk/s400/wolf35.png" width="400" /></a></div>\u000a<div class="separator">\u000a<a href="http://3.bp.blogspot.com/_D_Z-D2tzi14/TTO1ZQtlPDI/AAAAAAAAEV0/RgQBVeSSH1M/s1600/wolf38.png"><img border="0" height="300" src="http://3.bp.blogspot.com/_D_Z-D2tzi14/TTO1ZQtlPDI/AAAAAAAAEV0/RgQBVeSSH1M/s400/wolf38.png" width="400" /></a></div>\u000a<div class="separator">\u000a<a href="http://4.bp.blogspot.com/_D_Z-D2tzi14/TTPFIW82olI/AAAAAAAAEWw/iKLbjZFwFzU/s1600/wolf32alt.png"><img border="0" height="300" src="http://4.bp.blogspot.com/_D_Z-D2tzi14/TTPFIW82olI/AAAAAAAAEWw/iKLbjZFwFzU/s400/wolf32alt.png" width="400" /></a></div>\u000a<div>\u000a<br /></div>\u000a<div>\u000aThe psychological torment of waiting to be attacked was almost worse than the attacks themselves. &nbsp;We darted around in the shadows, snapping twigs and making strange growling noises. &nbsp;We sounded like tiny chainsaws. &nbsp;</div>\u000a<div>\u000a<br /></div>\u000a<div>\u000aWe would have continued to torture Benny for hours, possibly even days, but our parents called us home for birthday cake. </div>\u000a<div>\u000a<br /></div>\u000a<div class="separator">\u000a<a href="http://2.bp.blogspot.com/_D_Z-D2tzi14/TTPSVMrQiLI/AAAAAAAAEW0/2uUP1os92mQ/s1600/wolf43.png"><img border="0" height="300" src="http://2.bp.blogspot.com/_D_Z-D2tzi14/TTPSVMrQiLI/AAAAAAAAEW0/2uUP1os92mQ/s400/wolf43.png" width="400" /></a></div>\u000a<div class="separator">\u000a<a href="http://1.bp.blogspot.com/_D_Z-D2tzi14/TTPSaffTw5I/AAAAAAAAEW4/GqKvxHnlJpM/s1600/wolf42.png"><img border="0" height="300" src="http://1.bp.blogspot.com/_D_Z-D2tzi14/TTPSaffTw5I/AAAAAAAAEW4/GqKvxHnlJpM/s400/wolf42.png" width="400" /></a></div>\u000a<div class="separator">\u000a<a href="http://2.bp.blogspot.com/_D_Z-D2tzi14/TTPUMoMM3JI/AAAAAAAAEW8/DAwy86QYZAQ/s1600/wolf44.png"><img border="0" height="300" src="http://2.bp.blogspot.com/_D_Z-D2tzi14/TTPUMoMM3JI/AAAAAAAAEW8/DAwy86QYZAQ/s400/wolf44.png" width="400" /></a></div>\u000a<div class="separator">\u000a<br /></div>\u000a<div class="separator">\u000aWe cared about cake more than we cared about Benny, so we abandoned him in the woods and ran back to the house.  Benny heard us being called, but he couldn't see where we went from his hiding spot. He tried to follow our shrieking voices, but just ended up getting turned around. </div>\u000a<div class="separator">\u000a<br /></div>\u000a<div class="separator">\u000aAt&nbsp;first,&nbsp;no&nbsp;one&nbsp;noticed&nbsp;that&nbsp;we had arrived back at the house without Benny, but the topic did eventually come up.</div>\u000a<div class="separator">\u000a<br /></div>\u000a<div class="separator">\u000a<b>My mom:</b> "Where's Benny?"</div>\u000a<div class="separator">\u000a<br /></div>\u000a<div class="separator">\u000a<b>Us:</b> "Outside."&nbsp;</div>\u000a<div class="separator">\u000a<br /></div>\u000a<div class="separator">\u000a<b>My mom:</b> "Doesn't he want some cake?"</div>\u000a<div class="separator">\u000a<br /></div>\u000a<div class="separator">\u000a<b>Us: </b>"No."&nbsp;</div>\u000a<div class="separator">\u000a<br /></div>\u000a<div class="separator">\u000a<b>My mom:</b> "He should at least come inside and get warm..."&nbsp;</div>\u000a<div class="separator">\u000a<br /></div>\u000a<div class="separator">\u000a<b>Us:</b> "He's fine."&nbsp;</div>\u000a<div class="separator">\u000a<br /></div>\u000a<div class="separator">\u000aWe didn't actually know if Benny was okay, but we wanted cake and talking about Benny wasn't bringing us any closer to that goal.&nbsp;</div>\u000a<div class="separator">\u000a<br /></div>\u000a<div class="separator">\u000a&nbsp;Eventually, the adults went looking for him.  They tromped into the woods with flashlights, yelling "BEEENNNNYYYYY!  BENNNNYYYYYYYYY!"  They were startled to hear loud crashing and branches snapping behind them, but it turned out to be Benny. He stumbled into the pool of light cast by the flashlight.  </div>\u000a<div class="separator">\u000a<br /></div>\u000a<div class="separator">\u000a<a href="http://3.bp.blogspot.com/_D_Z-D2tzi14/TTPUbXzdOXI/AAAAAAAAEXA/akTIcZEgV40/s1600/wolf27alt.png"><img border="0" height="300" src="http://3.bp.blogspot.com/_D_Z-D2tzi14/TTPUbXzdOXI/AAAAAAAAEXA/akTIcZEgV40/s400/wolf27alt.png" width="400" /></a></div>\u000a<div>\u000a<br /></div>\u000a<div>\u000a<b>Benny's mom:</b> &nbsp;"Benny, what are you doing?"&nbsp;</div>\u000a<div>\u000a<br /></div>\u000a<div>\u000a<b>Benny:</b> "Where are they?"&nbsp;</div>\u000a<div>\u000a<br /></div>\u000a<div>\u000a<b>My mom:</b> &nbsp;"The girls? &nbsp;They came back an hour ago, are you still out here looking for them?"&nbsp;</div>\u000a<div>\u000a<br /></div>\u000a<div>\u000a<b>Benny:</b> "No."&nbsp;</div>\u000a<div>\u000a<br /></div>\u000a<div>\u000a<b>Benny's Mom:</b> ".... Well, you should really come up to the house, sweetie. It's cold out here." &nbsp;</div>\u000a<div>\u000a<br /></div>\u000a<div>\u000aAnd so Benny got to come back to the house. When he walked through the door, we ran over to him and hugged his legs. "Bennybennybennybenny!" we shrieked. <i>Bennybennybennybennybennybenny! </i>We brought him a huge piece of cake on the most special plate we could find, and we watched him eat it to make sure he was enjoying it.<br />\u000a<br />\u000a<div class="separator">\u000a<a href="http://4.bp.blogspot.com/_D_Z-D2tzi14/TTQCOm2T2PI/AAAAAAAAEXM/ejuWZgsBHGE/s1600/wolf46.png"><img border="0" height="300" src="http://4.bp.blogspot.com/_D_Z-D2tzi14/TTQCOm2T2PI/AAAAAAAAEXM/ejuWZgsBHGE/s400/wolf46.png" width="400" /></a></div>\u000a<div class="separator">\u000a</div>\u000a<div class="separator">\u000a<a href="http://4.bp.blogspot.com/_D_Z-D2tzi14/TTQBzJOlcsI/AAAAAAAAEXI/042t4w1AOKQ/s1600/wolf45.png"><img border="0" height="300" src="http://4.bp.blogspot.com/_D_Z-D2tzi14/TTQBzJOlcsI/AAAAAAAAEXI/042t4w1AOKQ/s400/wolf45.png" width="400" /></a></div>\u000a</div>\u000a<div>\u000a<br /></div>\u000a<div>\u000aWhen he finally had to go home, we cried out after him, "<i>Benny, are you coming back? &nbsp;When are you coming back to play with us?</i>" &nbsp;Benny's mom remarked about how cute it was that we loved him so much, "<i>isn't that just adorable, Benny? They really seem to like you!" &nbsp;</i>She assured us that Benny would come back to play with us soon. &nbsp;</div>\u000a</div><div class="blogger-post-footer"><img width="1" height="1" src="https://blogger.googleusercontent.com/tracker/4643741973264866223-3615886148757386270?l=hyperboleandahalf.blogspot.com" alt="" /></div><div class="feedflare">\u000a<a href="http://feeds.feedburner.com/~ff/Hyperbole-and-a-half?a=9uMihWLisig:EZVrL7ZO-r8:yIl2AUoC8zA"><img src="http://feeds.feedburner.com/~ff/Hyperbole-and-a-half?d=yIl2AUoC8zA" border="0" /></a> <a href="http://feeds.feedburner.com/~ff/Hyperbole-and-a-half?a=9uMihWLisig:EZVrL7ZO-r8:63t7Ie-LG7Y"><img src="http://feeds.feedburner.com/~ff/Hyperbole-and-a-half?d=63t7Ie-LG7Y" border="0" /></a> <a href="http://feeds.feedburner.com/~ff/Hyperbole-and-a-half?a=9uMihWLisig:EZVrL7ZO-r8:dnMXMwOfBR0"><img src="http://feeds.feedburner.com/~ff/Hyperbole-and-a-half?d=dnMXMwOfBR0" border="0" /></a> <a href="http://feeds.feedburner.com/~ff/Hyperbole-and-a-half?a=9uMihWLisig:EZVrL7ZO-r8:F7zBnMyn0Lo"><img src="http://feeds.feedburner.com/~ff/Hyperbole-and-a-half?i=9uMihWLisig:EZVrL7ZO-r8:F7zBnMyn0Lo" border="0" /></a> <a href="http://feeds.feedburner.com/~ff/Hyperbole-and-a-half?a=9uMihWLisig:EZVrL7ZO-r8:qj6IDK7rITs"><img src="http://feeds.feedburner.com/~ff/Hyperbole-and-a-half?d=qj6IDK7rITs" border="0" /></a> <a href="http://feeds.feedburner.com/~ff/Hyperbole-and-a-half?a=9uMihWLisig:EZVrL7ZO-r8:V_sGLiPBpWU"><img src="http://feeds.feedburner.com/~ff/Hyperbole-and-a-half?i=9uMihWLisig:EZVrL7ZO-r8:V_sGLiPBpWU" border="0" /></a> <a href="http://feeds.feedburner.com/~ff/Hyperbole-and-a-half?a=9uMihWLisig:EZVrL7ZO-r8:gIN9vFwOqvQ"><img src="http://feeds.feedburner.com/~ff/Hyperbole-and-a-half?i=9uMihWLisig:EZVrL7ZO-r8:gIN9vFwOqvQ" border="0" /></a> <a href="http://feeds.feedburner.com/~ff/Hyperbole-and-a-half?a=9uMihWLisig:EZVrL7ZO-r8:TzevzKxY174"><img src="http://feeds.feedburner.com/~ff/Hyperbole-and-a-half?d=TzevzKxY174" border="0" /></a> <a href="http://feeds.feedburner.com/~ff/Hyperbole-and-a-half?a=9uMihWLisig:EZVrL7ZO-r8:cGdyc7Q-1BI"><img src="http://feeds.feedburner.com/~ff/Hyperbole-and-a-half?d=cGdyc7Q-1BI" border="0" /></a> <a href="http://feeds.feedburner.com/~ff/Hyperbole-and-a-half?a=9uMihWLisig:EZVrL7ZO-r8:I9og5sOYxJI"><img src="http://feeds.feedburner.com/~ff/Hyperbole-and-a-half?d=I9og5sOYxJI" border="0" /></a>\u000a</div><img src="http://feeds.feedburner.com/~r/Hyperbole-and-a-half/~4/9uMihWLisig" height="1" width="1" />
p120
sg11
g12
((I2011
I1
I18
I12
I5
I9
I1
I18
I0
t(dtRp121
sg14
(lp122
g1
(g2
g3
(dp123
S'href'
p124
Vhttp://hyperboleandahalf.blogspot.com/feeds/3615886148757386270/comments/default
p125
sS'type'
p126
Vapplication/atom+xml
p127
sS'rel'
p128
Vreplies
p129
sS'title'
p130
VPost Comments
p131
stRp132
ag1
(g2
g3
(dp133
S'href'
p134
Vhttps://www.blogger.com/comment.g?blogID=4643741973264866223&postID=3615886148757386270&isPopup=true
p135
sS'type'
p136
Vtext/html
p137
sS'rel'
p138
Vreplies
p139
sS'title'
p140
V1174 Comments
p141
stRp142
ag1
(g2
g3
(dp143
S'href'
p144
Vhttp://www.blogger.com/feeds/4643741973264866223/posts/default/3615886148757386270?v=2
p145
sS'type'
p146
Vapplication/atom+xml
p147
sS'rel'
p148
Vedit
p149
stRp150
ag1
(g2
g3
(dp151
S'href'
p152
Vhttp://www.blogger.com/feeds/4643741973264866223/posts/default/3615886148757386270?v=2
p153
sS'type'
p154
Vapplication/atom+xml
p155
sS'rel'
p156
Vself
p157
stRp158
ag1
(g2
g3
(dp159
S'href'
p160
Vhttp://feedproxy.google.com/~r/Hyperbole-and-a-half/~3/9uMihWLisig/wolves.html
p161
sS'type'
p162
Vtext/html
p163
sS'rel'
p164
Valternate
p165
sS'title'
p166
VWolves
p167
stRp168
asS'feedburner_origlink'
p169
Vhttp://hyperboleandahalf.blogspot.com/2011/01/wolves.html
p170
sg68
Vhttp://www.blogger.com/profile/04259303604002690708
p171
sg77
g161
sS'canto_state'
p172
(lp173
VHyperbole and a Half
p174
aV*
asS'app_edited'
p175
V2011-01-18T12:05:09.222-07:00
p176
sS'author_detail'
p177
g1
(g2
g3
(dp178
g68
g171
sg72
VAllie
p179
sg83
Vickybana5@hotmail.com
p180
stRp181
sS'id'
p182
Vtag:blogger.com,1999:blog-4643741973264866223.post-3615886148757386270
p183
sS'published_parsed'
p184
g12
((I2011
I1
I18
I12
I5
I0
I1
I18
I0
t(dtRp185
sg91
VWolves
p186
sg93
VAllie (ickybana5@hotmail.com)
p187
sS'media_thumbnail'
p188
V
sS'content'
p189
(lp190
g1
(g2
g3
(dp191
g97
S'http://feeds.feedburner.com/Hyperbole-and-a-half'
p192
sg51
g99
sg100
Nsg101
g120
stRp193
asS'title_detail'
p194
g1
(g2
g3
(dp195
g97
S'http://feeds.feedburner.com/Hyperbole-and-a-half'
p196
sg51
S'text/plain'
p197
sg100
Nsg101
g186
stRp198
sS'gd_extendedproperty'
p199
V
sS'published'
p200
V2011-01-18T12:05:00.000-07:00
p201
sS'thr_total'
p202
V1174
p203
stRp204
ag1
(g2
g3
(dp205
g7
V2010-12-21T15:11:03.416-07:00
p206
sg9
VThe year I learned that Christmas did not, in fact, originate as a celebration of my amazing ability to temporarily transform into a "good" child for a few weeks was the year my grandparents took me to see their church's nativity play. &nbsp;My dad's parents were heavily involved in their church and felt that, at six years old, it was time that I start appreciating the miracle of Jesus instead of using Christmas as an excuse to whore out my integrity for presents. &nbsp;Even though my parents weren't religious, they let me go to the play because it was important to my grandparents.<br />\u000a<br />\u000aFrom my grandparents' flowery explanation and frequent use of the word "miracle," I went in expecting to be blown away by the production.  Unfortunately, the church moms and the pathetic excuses for actors that they called their offspring failed to bring the characters to life in the way I had hoped. &nbsp;And&nbsp;the story just seemed to center around everyone being really impressed with Jesus and there wasn't much suspense and not a single battle scene.<br />\u000a<br />\u000a<div class="separator">\u000a<a href="http://4.bp.blogspot.com/_D_Z-D2tzi14/TQ_t9f971vI/AAAAAAAAEOI/TSDfExtMr4Q/s1600/nativity33.png"><img border="0" height="480" src="http://4.bp.blogspot.com/_D_Z-D2tzi14/TQ_t9f971vI/AAAAAAAAEOI/TSDfExtMr4Q/s640/nativity33.png" width="640" /></a></div>\u000a<div>\u000a<br /></div>\u000a<br />\u000aI could see that the story had potential, but I was deeply disappointed by the whole experience.<br />\u000a<br />\u000a<div class="separator">\u000a<a href="http://2.bp.blogspot.com/_D_Z-D2tzi14/TREY9IW3lNI/AAAAAAAAEP4/njQgkUqIbe4/s1600/nativity51.png"><img border="0" height="240" src="http://2.bp.blogspot.com/_D_Z-D2tzi14/TREY9IW3lNI/AAAAAAAAEP4/njQgkUqIbe4/s320/nativity51.png" width="320" /></a></div>\u000a<br />\u000aBy the time my grandparents dropped me off at home, I had convinced myself that I needed to take matters into my own hands and reinvent the birth of Christ so that it conformed to my expectations.  My parents and I lived with my maternal grandmother and my aunt, so I would have more than enough talent to work with - all I had to do was create a compelling story line.<br />\u000a<br />\u000aI walked through my front door with purpose and gathered my family members in the living room to tell them about my vision.  I was going to rewrite the birth of Jesus Christ and I was going to make it POP.<br />\u000a<br />\u000aMy mom, always wanting to nurture my creative side, agreed on behalf of everyone that we should go forward with the production.  I would be playing the part of Mary and my dad would be Joseph.  My aunt and my grandma would play the wise men.  My mom would be filming.  The dogs were slated to play the animals in the manger, but they kept trying to chew the eyes off of the doll I'd chosen to play Jesus, so their parts were cut and they were relegated to the bedroom for the duration of the production.<br />\u000a<br />\u000aOnce I had assigned everyone their parts, we set about the task of gathering costumes and props.  Joseph was outfitted in a brown bath robe and Mary wore a blue blanket over her head like a cloak.  The wise men, who were heavily intoxicated at that point in the evening, decided to dress themselves like gypsies.<br />\u000a<br />\u000a<div class="separator">\u000a<a href="http://4.bp.blogspot.com/_D_Z-D2tzi14/TREMJy6QuxI/AAAAAAAAEPY/pMH1lmBgUFs/s1600/nativity45.png"><img border="0" height="300" src="http://4.bp.blogspot.com/_D_Z-D2tzi14/TREMJy6QuxI/AAAAAAAAEPY/pMH1lmBgUFs/s400/nativity45.png" width="400" /></a></div>\u000a<br />\u000aI felt that the struggles of my character, Mary, needed to be emphasized.  The audience really needed to understand that she was <i>suffering</i>. I constructed my costume accordingly.<br />\u000a<br />\u000a<div class="separator">\u000a<a href="http://3.bp.blogspot.com/_D_Z-D2tzi14/TQ6WyLFjovI/AAAAAAAAEKQ/Kw-yr8UFmdE/s1600/nativity1alt.png"><img border="0" height="300" src="http://3.bp.blogspot.com/_D_Z-D2tzi14/TQ6WyLFjovI/AAAAAAAAEKQ/Kw-yr8UFmdE/s400/nativity1alt.png" width="400" /></a></div>\u000a<div class="separator">\u000a<a href="http://4.bp.blogspot.com/_D_Z-D2tzi14/TQ6W3gF00HI/AAAAAAAAEKU/zOCCIW2k6iM/s1600/nativity3.png"><img border="0" height="300" src="http://4.bp.blogspot.com/_D_Z-D2tzi14/TQ6W3gF00HI/AAAAAAAAEKU/zOCCIW2k6iM/s400/nativity3.png" width="400" /></a></div>\u000a<div class="separator">\u000a<a href="http://3.bp.blogspot.com/_D_Z-D2tzi14/TQ6W9c7yV_I/AAAAAAAAEKY/QLsRTOA1ibg/s1600/nativity2alt.png"><img border="0" height="300" src="http://3.bp.blogspot.com/_D_Z-D2tzi14/TQ6W9c7yV_I/AAAAAAAAEKY/QLsRTOA1ibg/s400/nativity2alt.png" width="400" /></a></div>\u000a<br />\u000aBy the time I was done reinventing her, Mary carried a cane, walked with an exaggerated limp and was completely covered in BandAids.<br />\u000a<br />\u000a<div class="separator">\u000a<a href="http://4.bp.blogspot.com/_D_Z-D2tzi14/TQ_0YzACcuI/AAAAAAAAEOU/D0RU7OiRzoU/s1600/nativity8.png"><img border="0" height="300" src="http://4.bp.blogspot.com/_D_Z-D2tzi14/TQ_0YzACcuI/AAAAAAAAEOU/D0RU7OiRzoU/s400/nativity8.png" width="400" /></a></div>\u000a<br />\u000aShe was also blind.<br />\u000a<br />\u000aThe first scene opened with Mary and Joseph walking across the desert in search of shelter.  I took my dad's hand and slowly paraded around the house, making a big show of being horribly disabled. <br />\u000a<br />\u000a<div class="separator">\u000a<a href="http://4.bp.blogspot.com/_D_Z-D2tzi14/TREGa4ihLRI/AAAAAAAAEPU/IPXdNiJigzo/s1600/nativity40.png"><img border="0" height="300" src="http://4.bp.blogspot.com/_D_Z-D2tzi14/TREGa4ihLRI/AAAAAAAAEPU/IPXdNiJigzo/s400/nativity40.png" width="400" /></a></div>\u000a<br />\u000aI was slightly annoyed when my dad broke character to ask my mom if she put the leftovers in the refrigerator, but I tried to work around the interruption and carry on. I couldn't let myself be distracted by the incompetence of others.<br />\u000a<br />\u000aI had never been more serious about anything in my little life. &nbsp;I ad-libbed my lines with the greatest sincerity, pausing after each one to let the weight of my plight sink in. <br />\u000a<br />\u000a<div class="separator">\u000a</div>\u000a<div class="separator">\u000a</div>\u000a<div class="separator">\u000a<a href="http://2.bp.blogspot.com/_D_Z-D2tzi14/TQ6Wda7RjsI/AAAAAAAAEKM/2lG6EoIRhEE/s1600/nativity13altalt.png"><img border="0" height="300" src="http://2.bp.blogspot.com/_D_Z-D2tzi14/TQ6Wda7RjsI/AAAAAAAAEKM/2lG6EoIRhEE/s400/nativity13altalt.png" width="400" /></a></div>\u000a<div class="separator">\u000a</div>\u000a<div class="separator">\u000a<a href="http://4.bp.blogspot.com/_D_Z-D2tzi14/TQ6U530LUdI/AAAAAAAAEKA/ShTiHOBQ7K8/s1600/nativity13.png"><img border="0" height="300" src="http://4.bp.blogspot.com/_D_Z-D2tzi14/TQ6U530LUdI/AAAAAAAAEKA/ShTiHOBQ7K8/s400/nativity13.png" width="400" /></a></div>\u000a<div class="separator">\u000a<a href="http://2.bp.blogspot.com/_D_Z-D2tzi14/TQ6U_Dn_tiI/AAAAAAAAEKE/aPwYUtAbQ5w/s1600/nativity14.png"><img border="0" height="300" src="http://2.bp.blogspot.com/_D_Z-D2tzi14/TQ6U_Dn_tiI/AAAAAAAAEKE/aPwYUtAbQ5w/s400/nativity14.png" width="400" /></a></div>\u000a<div class="separator">\u000a<a href="http://2.bp.blogspot.com/_D_Z-D2tzi14/TQ6VEuuKkLI/AAAAAAAAEKI/0qS5mO-udyE/s1600/nativity14alt.png"><img border="0" height="300" src="http://2.bp.blogspot.com/_D_Z-D2tzi14/TQ6VEuuKkLI/AAAAAAAAEKI/0qS5mO-udyE/s400/nativity14alt.png" width="400" /></a></div>\u000a<br />\u000aEvery now and then, I would pause my dramatic musings and make my dad knock on a door and ask "Is there room at the inn?" At which point, my mother's disembodied voice would say "I'm sorry. There is no room at the inn."  And then I'd make my dad feign complete outrage at the detached voice.<br />\u000a<br />\u000a<b>Me:</b> "Now yell at the innkeeper!"<br />\u000a<br />\u000a<b>My Dad:</b> "Arrggghhhh!"<br />\u000a<br />\u000a<b>Me:</b> "No, Dad! Actually yell words at him!"<br />\u000a<br />\u000a<b>My Dad:</b> "<i>You... innkeeper!&nbsp;You&nbsp;dirty&nbsp;innkeeper!</i>"<br />\u000a<br />\u000a<b>Me:</b> "Do it better than that."<br />\u000a<br />\u000a<b>My Dad:</b> "Oh, I'll... I'll show you, you rascally innkeeper!"<br />\u000a<br />\u000a<b>Me: </b>"NO! You aren't saying it mean enough."<br />\u000a<br />\u000a<b>My Dad:</b> "How do I say it mean enough?"<br />\u000a<br />\u000a<b>Me:</b> "Say 'I'll rip out your guts and feed them to a monster and then I'll kill you!'"<br />\u000a<br />\u000a<b>My Dad:</b> "I'll rip out your guts and feed them to a monster and then I'll kill you."<br />\u000a<br />\u000a<b>Me:</b> "Louder."<br />\u000a<br />\u000a<b>My Dad:</b> "I'LL RIP OUT YOUR GUTS AND FEED THEM TO A MONSTER AND THEN I'LL KILL YOU!!!"<br />\u000a<br />\u000aWorking with my family was turning out to be more of a struggle than I had anticipated. &nbsp;They seemed to be actually <i>looking</i> for opportunities to derail my theatrical masterpiece. <br />\u000a<br />\u000aOnce we had cycled through knocking on every door in the house in much the same fashion, I went back to the first door and started the process over.   At some point in this endless litany of repetitive scenes, my mom interrupted to try to get things moving a little faster.<br />\u000a<br />\u000a<div class="separator">\u000a<a href="http://4.bp.blogspot.com/_D_Z-D2tzi14/TQ7O8lFL32I/AAAAAAAAELw/djLxwSYjXgM/s1600/nativity31.png"><img border="0" height="240" src="http://4.bp.blogspot.com/_D_Z-D2tzi14/TQ7O8lFL32I/AAAAAAAAELw/djLxwSYjXgM/s320/nativity31.png" width="320" /></a></div>\u000a<div class="separator">\u000a</div>\u000a<div class="separator">\u000a<a href="http://3.bp.blogspot.com/_D_Z-D2tzi14/TQ7MRDB4uzI/AAAAAAAAELs/YEoPrKsKG9Y/s1600/nativity28.png"><img border="0" height="240" src="http://3.bp.blogspot.com/_D_Z-D2tzi14/TQ7MRDB4uzI/AAAAAAAAELs/YEoPrKsKG9Y/s320/nativity28.png" width="320" /></a></div>\u000a<div class="separator">\u000a</div>\u000a<div class="separator">\u000a<a href="http://4.bp.blogspot.com/_D_Z-D2tzi14/TQ7PFjN8NlI/AAAAAAAAEL0/a6zOgU3AHCo/s1600/nativity31alt.png"><img border="0" height="240" src="http://4.bp.blogspot.com/_D_Z-D2tzi14/TQ7PFjN8NlI/AAAAAAAAEL0/a6zOgU3AHCo/s320/nativity31alt.png" width="320" /></a></div>\u000a<div class="separator">\u000a<a href="http://4.bp.blogspot.com/_D_Z-D2tzi14/TQ7PMtStXFI/AAAAAAAAEL4/q9g22SHdt2Q/s1600/nativity29.png"><img border="0" height="240" src="http://4.bp.blogspot.com/_D_Z-D2tzi14/TQ7PMtStXFI/AAAAAAAAEL4/q9g22SHdt2Q/s320/nativity29.png" width="320" /></a></div>\u000a<div class="separator">\u000a<a href="http://1.bp.blogspot.com/_D_Z-D2tzi14/TQ7PRDZFugI/AAAAAAAAEL8/ETaw3TAI0BE/s1600/nativity31altalt.png"><img border="0" height="240" src="http://1.bp.blogspot.com/_D_Z-D2tzi14/TQ7PRDZFugI/AAAAAAAAEL8/ETaw3TAI0BE/s320/nativity31altalt.png" width="320" /></a></div>\u000a<div class="separator">\u000a<a href="http://4.bp.blogspot.com/_D_Z-D2tzi14/TQ7RLOgSfDI/AAAAAAAAEMI/t9ZtXyUz6T8/s1600/nativity12.png"><img border="0" height="240" src="http://4.bp.blogspot.com/_D_Z-D2tzi14/TQ7RLOgSfDI/AAAAAAAAEMI/t9ZtXyUz6T8/s320/nativity12.png" width="320" /></a></div>\u000a<div class="separator">\u000a<a href="http://4.bp.blogspot.com/_D_Z-D2tzi14/TQ7PWG3LVVI/AAAAAAAAEMA/5ulbHUytulY/s1600/nativity30altalt.png"><img border="0" height="240" src="http://4.bp.blogspot.com/_D_Z-D2tzi14/TQ7PWG3LVVI/AAAAAAAAEMA/5ulbHUytulY/s320/nativity30altalt.png" width="320" /></a></div>\u000a<div class="separator">\u000a<a href="http://3.bp.blogspot.com/_D_Z-D2tzi14/TQ7PbowuFBI/AAAAAAAAEME/B6UorA4xjkc/s1600/nativity30alt.png"><img border="0" height="240" src="http://3.bp.blogspot.com/_D_Z-D2tzi14/TQ7PbowuFBI/AAAAAAAAEME/B6UorA4xjkc/s320/nativity30alt.png" width="320" /></a></div>\u000a<br />\u000aMy mother didn't seem to understand how serious I was about my part. &nbsp;Fortunately, I got bored with the scene well before I'd gotten around to reenacting it a million times.<br />\u000a<br />\u000aIt was finally time for Jesus to be born.  Due to my incomplete understanding of childbirth, the scene involved Jesus being tossed across the room, as if in flight, and me running over to where he landed and acting really surprised to find him there.<br />\u000a<br />\u000a<div class="separator">\u000a<a href="http://1.bp.blogspot.com/_D_Z-D2tzi14/TQ6YNW5lZ5I/AAAAAAAAEKc/aaEcnk0mGrc/s1600/nativity18.png"><img border="0" height="300" src="http://1.bp.blogspot.com/_D_Z-D2tzi14/TQ6YNW5lZ5I/AAAAAAAAEKc/aaEcnk0mGrc/s400/nativity18.png" width="400" /></a></div>\u000a<div class="separator">\u000a<a href="http://1.bp.blogspot.com/_D_Z-D2tzi14/TQ6YSE3BynI/AAAAAAAAEKg/HemUix2d44w/s1600/nativity20.png"><img border="0" height="300" src="http://1.bp.blogspot.com/_D_Z-D2tzi14/TQ6YSE3BynI/AAAAAAAAEKg/HemUix2d44w/s400/nativity20.png" width="400" /></a></div>\u000a<div class="separator">\u000a<a href="http://2.bp.blogspot.com/_D_Z-D2tzi14/TQ6YXyihUDI/AAAAAAAAEKk/dQ5_6eHuY-E/s1600/nativity19.png"><img border="0" height="300" src="http://2.bp.blogspot.com/_D_Z-D2tzi14/TQ6YXyihUDI/AAAAAAAAEKk/dQ5_6eHuY-E/s400/nativity19.png" width="400" /></a></div>\u000a<div class="separator">\u000a<a href="http://1.bp.blogspot.com/_D_Z-D2tzi14/TQ6Ye0BVqPI/AAAAAAAAEKo/u5S0hbBjVm8/s1600/nativity22.png"><img border="0" height="300" src="http://1.bp.blogspot.com/_D_Z-D2tzi14/TQ6Ye0BVqPI/AAAAAAAAEKo/u5S0hbBjVm8/s400/nativity22.png" width="400" /></a></div>\u000a<div class="separator">\u000a<a href="http://2.bp.blogspot.com/_D_Z-D2tzi14/TQ6YjVlt9RI/AAAAAAAAEKs/8c1PiP0sG60/s1600/nativity21.png"><img border="0" height="300" src="http://2.bp.blogspot.com/_D_Z-D2tzi14/TQ6YjVlt9RI/AAAAAAAAEKs/8c1PiP0sG60/s400/nativity21.png" width="400" /></a></div>\u000a<br />\u000aThe wise men were in the kitchen making more cocktails while Jesus was being "born" and they missed their cue.  My mom ran into the kitchen and yelled "Jesus is here!" to which the wise men responded "Oh! Right!  Shit. Hang in there, Jesus! We're coming!! "<br />\u000a<br />\u000aThey stumbled into the living room, still clutching half-full glasses of vodka which they hadn't had time to pour orange juice into, and yelled, as if the baby Jesus were partially deaf or mentally challenged "<i>HELLO JESUS.  WE COME BEARING GIFTS</i>."<br />\u000a<br />\u000a<b>Grandma:</b> "Wait, where are the gifts?"<br />\u000a<br />\u000a<b>Aunt:</b> "Didn't you bring them? We were supposed to bring gold, frankincense and that other one."&nbsp;\u000a\u000a<br />\u000a<br />\u000a<b>Grandma:</b> "I thought you were going to bring them."<br />\u000a<br />\u000a<b>Aunt:</b> "I was busy keeping my eye on that star and trying not to get us lost. You were on gold, frankincense and whatever duty."<br />\u000a<br />\u000a<b>Grandma:</b> "Well, <i>I</i> was brushing the camels."<br />\u000a<br />\u000a<b>Aunt:</b> "You aren't supposed to brush camels."&nbsp;\u000a<br />\u000a<br />\u000a<b>Grandma:</b> "You don't know that. Have you ever owned a camel?"<br />\u000a<br />\u000a<b>Aunt:</b> "Of course. I'm a wise man.  I know all there is to know about camels."<br />\u000a<br />\u000a<b>Grandma:</b> "Well, then you should know that camels need to be brushed. A lot."<br />\u000a<br />\u000a<b>Aunt:</b> (skeptical silence).<br />\u000a<br />\u000a<b>Grandma:</b> "Well, I guess we don't have any gifts after all. Sorry Jesus."<br />\u000a<br />\u000aI was not happy.  I ordered them to go find some gifts for Jesus.<br />\u000a<br />\u000aThey scavenged around the living room for a few minutes and then returned bearing a pack of cigarettes, the remote control and a Kenny Loggins tape.<br />\u000a<br />\u000a<div class="separator">\u000a<a href="http://1.bp.blogspot.com/_D_Z-D2tzi14/TQ6gMh8F41I/AAAAAAAAEKw/j7TOcfwUne8/s1600/nativity23.png"><img border="0" height="300" src="http://1.bp.blogspot.com/_D_Z-D2tzi14/TQ6gMh8F41I/AAAAAAAAEKw/j7TOcfwUne8/s400/nativity23.png" width="400" /></a></div>\u000a<br />\u000a<b>Aunt:</b> "We're back! And we have the gifts!"<br />\u000a<br />\u000a<b>Grandma:</b> "They are specially imported from distant lands."<br />\u000a<br />\u000aThe gifts were most definitely <i>not</i> imported from distant lands. I had just seen my aunt and grandmother pick them up off of the floor, seemingly at random. &nbsp;Their inattention to detail infuriated me. They weren't even <i>trying</i> to make the play seem realistic. &nbsp;They were sabotaging my monumental production with their lazy, unrealistic props.<br />\u000a<br />\u000a<b>Me:</b> "Jesus doesn't want those things."<br />\u000a<br />\u000a<b>Grandma:</b> "Sure he does. Jesus loves Kenny Loggins."<br />\u000a<br />\u000a<b>Me:</b> "No. He hates him."<br />\u000a<br />\u000aMy dire seriousness only served to fuel their desire to toy with me.<br />\u000a<br />\u000a<b>Aunt:</b> "No, no, no. Jesus was a huge Kenny Loggins fan."<br />\u000a<br />\u000a<b>Grandma:</b> "It's true. I saw it in the Bible once."<br />\u000a<br />\u000a<b>Me:</b> "Grandma, Kenny Loggins wasn't even <i>alive </i>back then." <br />\u000a<br />\u000a<b>Grandma:</b> "Oh yes he was. &nbsp;Kenny Loggins is immortal."<br />\u000a<br />\u000aThey&nbsp;both burst into raucous laughter. &nbsp;They thought they were being awfully clever. &nbsp;Apparently my mom and dad thought so too, because they joined in.<br />\u000a<br />\u000a<div class="separator">\u000a<a href="http://1.bp.blogspot.com/_D_Z-D2tzi14/TREQj2eiLoI/AAAAAAAAEPc/Jwro3dvYUic/s1600/nativity47.png"><img border="0" height="300" src="http://1.bp.blogspot.com/_D_Z-D2tzi14/TREQj2eiLoI/AAAAAAAAEPc/Jwro3dvYUic/s400/nativity47.png" width="400" /></a></div>\u000a<div class="separator">\u000a<a href="http://3.bp.blogspot.com/_D_Z-D2tzi14/TREQpR4lTXI/AAAAAAAAEPg/A9mfzCTuftY/s1600/nativity48.png"><img border="0" height="300" src="http://3.bp.blogspot.com/_D_Z-D2tzi14/TREQpR4lTXI/AAAAAAAAEPg/A9mfzCTuftY/s400/nativity48.png" width="400" /></a></div>\u000a<div class="separator">\u000a<a href="http://3.bp.blogspot.com/_D_Z-D2tzi14/TREi_Fs_xEI/AAAAAAAAEP8/ezGNvXorLbo/s1600/nativity52alt.png"><img border="0" height="300" src="http://3.bp.blogspot.com/_D_Z-D2tzi14/TREi_Fs_xEI/AAAAAAAAEP8/ezGNvXorLbo/s400/nativity52alt.png" width="400" /></a></div>\u000a<div class="separator">\u000a<a href="http://4.bp.blogspot.com/_D_Z-D2tzi14/TREjF_272UI/AAAAAAAAEQA/Q8DHz6OJs0s/s1600/nativity53.png"><img border="0" height="300" src="http://4.bp.blogspot.com/_D_Z-D2tzi14/TREjF_272UI/AAAAAAAAEQA/Q8DHz6OJs0s/s400/nativity53.png" width="400" /></a></div>\u000a<div class="separator">\u000a<a href="http://1.bp.blogspot.com/_D_Z-D2tzi14/TREQw9pQs2I/AAAAAAAAEPk/_6AFdl37HS4/s1600/nativity46.png"><img border="0" height="300" src="http://1.bp.blogspot.com/_D_Z-D2tzi14/TREQw9pQs2I/AAAAAAAAEPk/_6AFdl37HS4/s400/nativity46.png" width="400" /></a></div>\u000a<div class="separator">\u000a<a href="http://3.bp.blogspot.com/_D_Z-D2tzi14/TREQ6HRV2mI/AAAAAAAAEPo/3RikdJ4OBws/s1600/nativity35.png"><img border="0" height="300" src="http://3.bp.blogspot.com/_D_Z-D2tzi14/TREQ6HRV2mI/AAAAAAAAEPo/3RikdJ4OBws/s400/nativity35.png" width="400" /></a></div>\u000a<div class="separator">\u000a<a href="http://3.bp.blogspot.com/_D_Z-D2tzi14/TREQ_w8hzQI/AAAAAAAAEPs/fslbYlTJjNk/s1600/nativity37.png"><img border="0" height="300" src="http://3.bp.blogspot.com/_D_Z-D2tzi14/TREQ_w8hzQI/AAAAAAAAEPs/fslbYlTJjNk/s400/nativity37.png" width="400" /></a></div>\u000a<br />\u000aAt that point, they were all laughing too hard to clearly impart any further knowledge of Kenny Loggins. <br />\u000a<br />\u000aI looked at them, strewn about the room; contorted with laughter over their own stupid jokes.<br />\u000a<br />\u000a<div class="separator">\u000a<a href="http://1.bp.blogspot.com/_D_Z-D2tzi14/TRERzwr2Z5I/AAAAAAAAEPw/wkC8U1idEMM/s1600/nativity38.png"><img border="0" height="253" src="http://1.bp.blogspot.com/_D_Z-D2tzi14/TRERzwr2Z5I/AAAAAAAAEPw/wkC8U1idEMM/s400/nativity38.png" width="400" /></a></div>\u000a<br />\u000aThey were a disgrace. &nbsp;They had somehow managed to take my moment in the spotlight and irreversibly derail it until it was entirely about Kenny Loggins. This was supposed to be&nbsp;<i>MY</i> moment, not Kenny Loggins' moment. It was so unfair. They were ruining my life. <br />\u000a<br />\u000a<div class="separator">\u000a<a href="http://4.bp.blogspot.com/_D_Z-D2tzi14/TQ_07ifAKEI/AAAAAAAAEOY/e2zDZP_Mo4U/s1600/nativity7alt.png"><img border="0" height="240" src="http://4.bp.blogspot.com/_D_Z-D2tzi14/TQ_07ifAKEI/AAAAAAAAEOY/e2zDZP_Mo4U/s320/nativity7alt.png" width="320" /></a></div>\u000a<br />\u000aI couldn't contain my fury any longer.<br />\u000a<br />\u000a<div class="separator">\u000a<a href="http://1.bp.blogspot.com/_D_Z-D2tzi14/TQ_1FdhnpyI/AAAAAAAAEOc/-tvtixtFopc/s1600/nativity7altalt.png"><img border="0" height="240" src="http://1.bp.blogspot.com/_D_Z-D2tzi14/TQ_1FdhnpyI/AAAAAAAAEOc/-tvtixtFopc/s320/nativity7altalt.png" width="320" /></a></div>\u000a<div class="separator">\u000a<a href="http://4.bp.blogspot.com/_D_Z-D2tzi14/TQ_1Vd5uD6I/AAAAAAAAEOg/fzxqwsKc_HI/s1600/nativity9.png"><img border="0" height="240" src="http://4.bp.blogspot.com/_D_Z-D2tzi14/TQ_1Vd5uD6I/AAAAAAAAEOg/fzxqwsKc_HI/s320/nativity9.png" width="320" /></a></div>\u000a<div class="separator">\u000a<a href="http://2.bp.blogspot.com/_D_Z-D2tzi14/TQ_1d30Az5I/AAAAAAAAEOk/QuoEeweQXrw/s1600/nativity15.png"><img border="0" height="240" src="http://2.bp.blogspot.com/_D_Z-D2tzi14/TQ_1d30Az5I/AAAAAAAAEOk/QuoEeweQXrw/s320/nativity15.png" width="320" /></a></div>\u000a<div class="separator">\u000a<a href="http://4.bp.blogspot.com/_D_Z-D2tzi14/TQ_1iCSjkqI/AAAAAAAAEOo/6hScYXER5VM/s1600/nativity15alt.png"><img border="0" height="240" src="http://4.bp.blogspot.com/_D_Z-D2tzi14/TQ_1iCSjkqI/AAAAAAAAEOo/6hScYXER5VM/s320/nativity15alt.png" width="320" /></a></div>\u000a<div class="separator">\u000a<a href="http://3.bp.blogspot.com/_D_Z-D2tzi14/TQ_1qGGpIQI/AAAAAAAAEOs/7-m5GhZ5_V8/s1600/nativity16.png"><img border="0" height="240" src="http://3.bp.blogspot.com/_D_Z-D2tzi14/TQ_1qGGpIQI/AAAAAAAAEOs/7-m5GhZ5_V8/s320/nativity16.png" width="320" /></a></div>\u000a<br />\u000aAn unforeseen plot twist arose when, in a final attempt to jar my family into cooperation, I cast the baby Jesus to the ground and began to repeatedly bludgeon him with my cane.<br />\u000a<br />\u000aEven though they weren't religious, the violent blasphemy unfolding before them made my family feel slightly uncomfortable. <br />\u000a<br />\u000a<div class="separator">\u000a<a href="http://3.bp.blogspot.com/_D_Z-D2tzi14/TQ_12NWLPnI/AAAAAAAAEOw/EAhuVkWjpqY/s1600/nativity17alt.png"><img border="0" height="240" src="http://3.bp.blogspot.com/_D_Z-D2tzi14/TQ_12NWLPnI/AAAAAAAAEOw/EAhuVkWjpqY/s320/nativity17alt.png" width="320" /></a></div>\u000a<div class="separator">\u000a<br /></div>\u000a<div class="separator">\u000aMy grandmother tried to intervene.&nbsp;</div>\u000a<div class="separator">\u000a<br /></div>\u000a<div class="separator">\u000a<a href="http://4.bp.blogspot.com/_D_Z-D2tzi14/TREXU6HeU1I/AAAAAAAAEP0/60SvpStTxxE/s1600/nativity49.png"><img border="0" height="240" src="http://4.bp.blogspot.com/_D_Z-D2tzi14/TREXU6HeU1I/AAAAAAAAEP0/60SvpStTxxE/s320/nativity49.png" width="320" /></a></div>\u000a<div class="separator">\u000a<a href="http://4.bp.blogspot.com/_D_Z-D2tzi14/TQ_18rUOLnI/AAAAAAAAEO0/JeJFWz1blZM/s1600/nativity17altalt.png"><img border="0" height="240" src="http://4.bp.blogspot.com/_D_Z-D2tzi14/TQ_18rUOLnI/AAAAAAAAEO0/JeJFWz1blZM/s320/nativity17altalt.png" width="320" /></a></div>\u000a<br />\u000aFor&nbsp;a&nbsp;moment,&nbsp;it&nbsp;seemed&nbsp;as&nbsp;though&nbsp;my&nbsp;outburst&nbsp;had&nbsp;succeeded&nbsp;in&nbsp;bringing&nbsp;my&nbsp;family&nbsp;back&nbsp;into&nbsp;a&nbsp;more&nbsp;serious&nbsp;mindset.&nbsp;But after a few moments of tense silence, my aunt quietly squeaked "Kenny Loggins wouldn't beat the baby Jesus..."<br />\u000a<br />\u000aIt was over. &nbsp;Any hope I had ever had of getting my family members to act out their parts with integrity was shattered. &nbsp;They laughed and laughed until I thought they were going to asphyxiate on their own wretched spittle.<br />\u000a<br />\u000aMy mom eventually realized that it was her maternal duty to step in and discipline me when I did things like strike the baby Jesus repeatedly with a blunt object, so she tried to pull herself together and send me to my room.&nbsp;\u000a\u000a<br />\u000a<br />\u000a<div class="separator">\u000a<a href="http://3.bp.blogspot.com/_D_Z-D2tzi14/TQ6qiiIeRGI/AAAAAAAAEK0/IXY27GvrKtg/s1600/nativity5alt.png"><img border="0" height="240" src="http://3.bp.blogspot.com/_D_Z-D2tzi14/TQ6qiiIeRGI/AAAAAAAAEK0/IXY27GvrKtg/s320/nativity5alt.png" width="320" /></a></div>\u000a<div class="separator">\u000a<a href="http://1.bp.blogspot.com/_D_Z-D2tzi14/TQ6uh6UpRBI/AAAAAAAAELk/63ZdG8UGCow/s1600/nativity5altnext.png"><img border="0" height="240" src="http://1.bp.blogspot.com/_D_Z-D2tzi14/TQ6uh6UpRBI/AAAAAAAAELk/63ZdG8UGCow/s320/nativity5altnext.png" width="320" /></a></div>\u000a<div class="separator">\u000a<a href="http://2.bp.blogspot.com/_D_Z-D2tzi14/TQ6qrqVe7iI/AAAAAAAAEK4/esBHwG-5tMM/s1600/nativity4altalt2.png"><img border="0" height="240" src="http://2.bp.blogspot.com/_D_Z-D2tzi14/TQ6qrqVe7iI/AAAAAAAAEK4/esBHwG-5tMM/s320/nativity4altalt2.png" width="320" /></a></div>\u000a<div class="separator">\u000a<a href="http://2.bp.blogspot.com/_D_Z-D2tzi14/TQ_wNs41DRI/AAAAAAAAEOQ/EDUB-_Sd8Uw/s1600/nativity34.png"><img border="0" height="240" src="http://2.bp.blogspot.com/_D_Z-D2tzi14/TQ_wNs41DRI/AAAAAAAAEOQ/EDUB-_Sd8Uw/s320/nativity34.png" width="320" /></a></div>\u000a<div class="separator">\u000a</div>\u000a<div class="separator">\u000a<a href="http://2.bp.blogspot.com/_D_Z-D2tzi14/TQ6qyMpuyXI/AAAAAAAAEK8/-P5h_zWqO9A/s1600/nativity4altalt.png"><img border="0" height="240" src="http://2.bp.blogspot.com/_D_Z-D2tzi14/TQ6qyMpuyXI/AAAAAAAAEK8/-P5h_zWqO9A/s320/nativity4altalt.png" width="320" /></a></div>\u000a<div class="separator">\u000a<a href="http://3.bp.blogspot.com/_D_Z-D2tzi14/TQ6q3bU6BbI/AAAAAAAAELA/VKLqWwTk6IU/s1600/nativity4alt.png"><img border="0" height="240" src="http://3.bp.blogspot.com/_D_Z-D2tzi14/TQ6q3bU6BbI/AAAAAAAAELA/VKLqWwTk6IU/s320/nativity4alt.png" width="320" /></a></div>\u000a<div class="separator">\u000a<a href="http://3.bp.blogspot.com/_D_Z-D2tzi14/TQ6q_YBJNOI/AAAAAAAAELE/zSADgQZlb7g/s1600/nativity4altalt4.png"><img border="0" height="240" src="http://3.bp.blogspot.com/_D_Z-D2tzi14/TQ6q_YBJNOI/AAAAAAAAELE/zSADgQZlb7g/s320/nativity4altalt4.png" width="320" /></a></div>\u000a<div class="separator">\u000a<a href="http://2.bp.blogspot.com/_D_Z-D2tzi14/TQ_wNs41DRI/AAAAAAAAEOQ/EDUB-_Sd8Uw/s1600/nativity34.png"><img border="0" height="240" src="http://2.bp.blogspot.com/_D_Z-D2tzi14/TQ_wNs41DRI/AAAAAAAAEOQ/EDUB-_Sd8Uw/s320/nativity34.png" width="320" /></a></div>\u000a<div class="separator">\u000a</div>\u000a<div class="separator">\u000a<a href="http://1.bp.blogspot.com/_D_Z-D2tzi14/TQ6rEl2PHFI/AAAAAAAAELI/04_e2JJwxec/s1600/nativity4altalt3.png"><img border="0" height="240" src="http://1.bp.blogspot.com/_D_Z-D2tzi14/TQ6rEl2PHFI/AAAAAAAAELI/04_e2JJwxec/s320/nativity4altalt3.png" width="320" /></a></div>\u000a<div class="separator">\u000a<a href="http://2.bp.blogspot.com/_D_Z-D2tzi14/TQ6rNvxqCSI/AAAAAAAAELM/CcfLd-eyD9M/s1600/nativity4altalt5.png"><img border="0" height="240" src="http://2.bp.blogspot.com/_D_Z-D2tzi14/TQ6rNvxqCSI/AAAAAAAAELM/CcfLd-eyD9M/s320/nativity4altalt5.png" width="320" /></a></div>\u000a<div class="separator">\u000a<a href="http://4.bp.blogspot.com/_D_Z-D2tzi14/TRAHxcAejvI/AAAAAAAAEO4/L75I_KT-VOQ/s1600/nativity4altalt7kennyloggins.png"><img border="0" height="240" src="http://4.bp.blogspot.com/_D_Z-D2tzi14/TRAHxcAejvI/AAAAAAAAEO4/L75I_KT-VOQ/s320/nativity4altalt7kennyloggins.png" width="320" /></a></div>\u000a<div class="separator">\u000a</div>\u000a<div class="separator">\u000a</div>\u000a<div class="separator">\u000a<a href="http://1.bp.blogspot.com/_D_Z-D2tzi14/TQ6rmnZLiSI/AAAAAAAAELU/9CBfNzSW9kY/s1600/nativity4alt4.png"><img border="0" height="240" src="http://1.bp.blogspot.com/_D_Z-D2tzi14/TQ6rmnZLiSI/AAAAAAAAELU/9CBfNzSW9kY/s320/nativity4alt4.png" width="320" /></a></div>\u000a<div class="separator">\u000a<a href="http://2.bp.blogspot.com/_D_Z-D2tzi14/TQ6rrM9BOTI/AAAAAAAAELY/61b8F-dbr0A/s1600/nativity4.png"><img border="0" height="240" src="http://2.bp.blogspot.com/_D_Z-D2tzi14/TQ6rrM9BOTI/AAAAAAAAELY/61b8F-dbr0A/s320/nativity4.png" width="320" /></a></div>\u000a<div class="separator">\u000a<a href="http://2.bp.blogspot.com/_D_Z-D2tzi14/TQ_wNs41DRI/AAAAAAAAEOQ/EDUB-_Sd8Uw/s1600/nativity34.png"><img border="0" height="240" src="http://2.bp.blogspot.com/_D_Z-D2tzi14/TQ_wNs41DRI/AAAAAAAAEOQ/EDUB-_Sd8Uw/s320/nativity34.png" width="320" /></a></div>\u000a<div class="separator">\u000a<a href="http://2.bp.blogspot.com/_D_Z-D2tzi14/TRAH7pj8U_I/AAAAAAAAEO8/CRyYdWYDo9Y/s1600/nativity4alt5kennyloggins2.png"><img border="0" height="240" src="http://2.bp.blogspot.com/_D_Z-D2tzi14/TRAH7pj8U_I/AAAAAAAAEO8/CRyYdWYDo9Y/s320/nativity4alt5kennyloggins2.png" width="320" /></a></div>\u000a<div class="separator">\u000a<a href="http://1.bp.blogspot.com/_D_Z-D2tzi14/TRAIETPK91I/AAAAAAAAEPA/U6CNew8Glyk/s1600/nativity34.png"><img border="0" height="240" src="http://1.bp.blogspot.com/_D_Z-D2tzi14/TRAIETPK91I/AAAAAAAAEPA/U6CNew8Glyk/s320/nativity34.png" width="320" /></a></div>\u000a<div class="separator">\u000a</div>\u000a<div class="separator">\u000a</div>\u000a<div class="separator">\u000a<a href="http://3.bp.blogspot.com/_D_Z-D2tzi14/TQ6sPrXw2LI/AAAAAAAAELg/qiR0UpbLn70/s1600/nativity4altalt62.png"><img border="0" height="240" src="http://3.bp.blogspot.com/_D_Z-D2tzi14/TQ6sPrXw2LI/AAAAAAAAELg/qiR0UpbLn70/s320/nativity4altalt62.png" width="320" /></a></div>\u000a<br />\u000aI didn't want to spend any more time around these horrible, undignified people anyway, so I stomped away to my room where I could reenact the play with a more <i>cooperative</i> cast.<br />\u000a<br />\u000a<div class="separator">\u000a<a href="http://2.bp.blogspot.com/_D_Z-D2tzi14/TREFn3E7H8I/AAAAAAAAEPE/L6fT4t6zwOw/s1600/nativity42.png"><img border="0" height="300" src="http://2.bp.blogspot.com/_D_Z-D2tzi14/TREFn3E7H8I/AAAAAAAAEPE/L6fT4t6zwOw/s400/nativity42.png" width="400" /></a></div>\u000a<div class="separator">\u000a<a href="http://1.bp.blogspot.com/_D_Z-D2tzi14/TREFuJaHjgI/AAAAAAAAEPI/bQBSYhR2x2E/s1600/nativity43.png"><img border="0" height="300" src="http://1.bp.blogspot.com/_D_Z-D2tzi14/TREFuJaHjgI/AAAAAAAAEPI/bQBSYhR2x2E/s400/nativity43.png" width="400" /></a></div>\u000a<div class="separator">\u000a<a href="http://4.bp.blogspot.com/_D_Z-D2tzi14/TREF187MgwI/AAAAAAAAEPM/fRlHB4s-3eM/s1600/nativity41.png"><img border="0" height="300" src="http://4.bp.blogspot.com/_D_Z-D2tzi14/TREF187MgwI/AAAAAAAAEPM/fRlHB4s-3eM/s400/nativity41.png" width="400" /></a></div>\u000a<div class="separator">\u000a<a href="http://4.bp.blogspot.com/_D_Z-D2tzi14/TREF77pjDGI/AAAAAAAAEPQ/kp8-Ldf7sxQ/s1600/nativity44.png"><img border="0" height="300" src="http://4.bp.blogspot.com/_D_Z-D2tzi14/TREF77pjDGI/AAAAAAAAEPQ/kp8-Ldf7sxQ/s400/nativity44.png" width="400" /></a></div>\u000a<div class="separator">\u000a<br /></div>\u000a<div class="separator">\u000aI&nbsp;still&nbsp;hold&nbsp;a&nbsp;small&nbsp;amount&nbsp;of&nbsp;resentment toward Kenny&nbsp;Loggins. &nbsp;</div>\u000a<div class="separator">\u000a<br /></div><div class="blogger-post-footer"><img width="1" height="1" src="https://blogger.googleusercontent.com/tracker/4643741973264866223-6915580247569050500?l=hyperboleandahalf.blogspot.com" alt="" /></div><div class="feedflare">\u000a<a href="http://feeds.feedburner.com/~ff/Hyperbole-and-a-half?a=uWVVc6FuRWs:_uZRKnGtGLU:yIl2AUoC8zA"><img src="http://feeds.feedburner.com/~ff/Hyperbole-and-a-half?d=yIl2AUoC8zA" border="0" /></a> <a href="http://feeds.feedburner.com/~ff/Hyperbole-and-a-half?a=uWVVc6FuRWs:_uZRKnGtGLU:63t7Ie-LG7Y"><img src="http://feeds.feedburner.com/~ff/Hyperbole-and-a-half?d=63t7Ie-LG7Y" border="0" /></a> <a href="http://feeds.feedburner.com/~ff/Hyperbole-and-a-half?a=uWVVc6FuRWs:_uZRKnGtGLU:dnMXMwOfBR0"><img src="http://feeds.feedburner.com/~ff/Hyperbole-and-a-half?d=dnMXMwOfBR0" border="0" /></a> <a href="http://feeds.feedburner.com/~ff/Hyperbole-and-a-half?a=uWVVc6FuRWs:_uZRKnGtGLU:F7zBnMyn0Lo"><img src="http://feeds.feedburner.com/~ff/Hyperbole-and-a-half?i=uWVVc6FuRWs:_uZRKnGtGLU:F7zBnMyn0Lo" border="0" /></a> <a href="http://feeds.feedburner.com/~ff/Hyperbole-and-a-half?a=uWVVc6FuRWs:_uZRKnGtGLU:qj6IDK7rITs"><img src="http://feeds.feedburner.com/~ff/Hyperbole-and-a-half?d=qj6IDK7rITs" border="0" /></a> <a href="http://feeds.feedburner.com/~ff/Hyperbole-and-a-half?a=uWVVc6FuRWs:_uZRKnGtGLU:V_sGLiPBpWU"><img src="http://feeds.feedburner.com/~ff/Hyperbole-and-a-half?i=uWVVc6FuRWs:_uZRKnGtGLU:V_sGLiPBpWU" border="0" /></a> <a href="http://feeds.feedburner.com/~ff/Hyperbole-and-a-half?a=uWVVc6FuRWs:_uZRKnGtGLU:gIN9vFwOqvQ"><img src="http://feeds.feedburner.com/~ff/Hyperbole-and-a-half?i=uWVVc6FuRWs:_uZRKnGtGLU:gIN9vFwOqvQ" border="0" /></a> <a href="http://feeds.feedburner.com/~ff/Hyperbole-and-a-half?a=uWVVc6FuRWs:_uZRKnGtGLU:TzevzKxY174"><img src="http://feeds.feedburner.com/~ff/Hyperbole-and-a-half?d=TzevzKxY174" border="0" /></a> <a href="http://feeds.feedburner.com/~ff/Hyperbole-and-a-half?a=uWVVc6FuRWs:_uZRKnGtGLU:cGdyc7Q-1BI"><img src="http://feeds.feedburner.com/~ff/Hyperbole-and-a-half?d=cGdyc7Q-1BI" border="0" /></a> <a href="http://feeds.feedburner.com/~ff/Hyperbole-and-a-half?a=uWVVc6FuRWs:_uZRKnGtGLU:I9og5sOYxJI"><img src="http://feeds.feedburner.com/~ff/Hyperbole-and-a-half?d=I9og5sOYxJI" border="0" /></a>\u000a</div><img src="http://feeds.feedburner.com/~r/Hyperbole-and-a-half/~4/uWVVc6FuRWs" height="1" width="1" />
p207
sg11
g12
((I2010
I12
I21
I15
I11
I3
I1
I355
I0
t(dtRp208
sg14
(lp209
g1
(g2
g3
(dp210
S'href'
p211
Vhttp://hyperboleandahalf.blogspot.com/feeds/6915580247569050500/comments/default
p212
sS'type'
p213
Vapplication/atom+xml
p214
sS'rel'
p215
Vreplies
p216
sS'title'
p217
VPost Comments
p218
stRp219
ag1
(g2
g3
(dp220
S'href'
p221
Vhttps://www.blogger.com/comment.g?blogID=4643741973264866223&postID=6915580247569050500&isPopup=true
p222
sS'type'
p223
Vtext/html
p224
sS'rel'
p225
Vreplies
p226
sS'title'
p227
V1499 Comments
p228
stRp229
ag1
(g2
g3
(dp230
S'href'
p231
Vhttp://www.blogger.com/feeds/4643741973264866223/posts/default/6915580247569050500?v=2
p232
sS'type'
p233
Vapplication/atom+xml
p234
sS'rel'
p235
Vedit
p236
stRp237
ag1
(g2
g3
(dp238
S'href'
p239
Vhttp://www.blogger.com/feeds/4643741973264866223/posts/default/6915580247569050500?v=2
p240
sS'type'
p241
Vapplication/atom+xml
p242
sS'rel'
p243
Vself
p244
stRp245
ag1
(g2
g3
(dp246
S'href'
p247
Vhttp://feedproxy.google.com/~r/Hyperbole-and-a-half/~3/uWVVc6FuRWs/year-kenny-loggins-ruined-christmas.html
p248
sS'type'
p249
Vtext/html
p250
sS'rel'
p251
Valternate
p252
sS'title'
p253
VThe Year Kenny Loggins Ruined Christmas
p254
stRp255
asS'feedburner_origlink'
p256
Vhttp://hyperboleandahalf.blogspot.com/2010/12/year-kenny-loggins-ruined-christmas.html
p257
sg68
Vhttp://www.blogger.com/profile/04259303604002690708
p258
sg77
g248
sg172
(lp259
g174
aV*
asS'app_edited'
p260
V2010-12-21T15:11:03.416-07:00
p261
sS'author_detail'
p262
g1
(g2
g3
(dp263
g68
g258
sg72
VAllie
p264
sg83
Vickybana5@hotmail.com
p265
stRp266
sS'id'
p267
Vtag:blogger.com,1999:blog-4643741973264866223.post-6915580247569050500
p268
sg184
g12
((I2010
I12
I21
I15
I11
I0
I1
I355
I0
t(dtRp269
sg91
VThe Year Kenny Loggins Ruined Christmas
p270
sg93
VAllie (ickybana5@hotmail.com)
p271
sS'media_thumbnail'
p272
V
sg189
(lp273
g1
(g2
g3
(dp274
g97
S'http://feeds.feedburner.com/Hyperbole-and-a-half'
p275
sg51
g99
sg100
Nsg101
g207
stRp276
asS'title_detail'
p277
g1
(g2
g3
(dp278
g97
S'http://feeds.feedburner.com/Hyperbole-and-a-half'
p279
sg51
S'text/plain'
p280
sg100
Nsg101
g270
stRp281
sS'gd_extendedproperty'
p282
V
sg200
V2010-12-21T15:11:00.000-07:00
p283
sS'thr_total'
p284
V1499
p285
stRp286
ag1
(g2
g3
(dp287
g7
V2010-11-17T17:37:20.706-07:00
p288
sg9
V<div class="separator">\u000a</div>\u000a<div class="separator">\u000a</div>\u000a<div class="separator">\u000a</div>\u000a<div class="separator">\u000a</div>\u000a<div class="separator">\u000aPacking&nbsp;all&nbsp;of&nbsp;your&nbsp;belongings&nbsp;into a U-Haul and then transporting them&nbsp;across&nbsp;several&nbsp;states&nbsp;is nearly as stressful and futile as trying to run away from lava in swim fins. &nbsp;</div>\u000a<div class="separator">\u000a<br /></div>\u000a<div class="separator">\u000a<a href="http://2.bp.blogspot.com/_D_Z-D2tzi14/TNeb3Rza7GI/AAAAAAAAEDE/g1UT8IX646A/s1600/dogs23.png"><img border="0" height="480" src="http://2.bp.blogspot.com/_D_Z-D2tzi14/TNeb3Rza7GI/AAAAAAAAEDE/g1UT8IX646A/s640/dogs23.png" width="640" /></a></div>\u000a<div class="separator">\u000a<br /></div>\u000a<div class="separator">\u000aI know this because my boyfriend Duncan and I moved from Montana to Oregon last month. &nbsp;But as harrowing as the move was for us, it was nothing compared to the confusion and insecurity our two dogs had to endure. &nbsp;</div>\u000a<div class="separator">\u000a<br /></div>\u000a<div class="separator">\u000aOur&nbsp;first&nbsp;dog&nbsp;is&nbsp;-&nbsp;to&nbsp;put&nbsp;it&nbsp;delicately&nbsp;-&nbsp;simple-minded.&nbsp;&nbsp;Our other dog is a neurotic German shepherd mix with agonizingly low self-esteem who has taken on the role of "helper dog" for our simple dog. &nbsp;Neither dog is well-equipped with coping mechanisms of any kind. &nbsp;</div>\u000a<div class="separator">\u000a<br /></div>\u000a<div class="separator">\u000aWhen&nbsp;we&nbsp;started&nbsp;packing, the helper dog knew immediately that something was going on. &nbsp;I could tell that she knew because she becomes extremely melodramatic when faced with even a trivial amount of uncertainty. &nbsp;She started following me everywhere, pausing every so often to flop to the ground in an exaggeratedly morose fashion - because maybe that would make me realize how selfish I was being by continuing to pack despite her obvious emotional discomfort. &nbsp; &nbsp;&nbsp;</div>\u000a<div class="separator">\u000a<br /></div>\u000a<div class="separator">\u000a<a href="http://3.bp.blogspot.com/_D_Z-D2tzi14/TNd6imWMgfI/AAAAAAAAECw/9-i8y1EPhzI/s1600/dogs15.png"><img border="0" height="300" src="http://3.bp.blogspot.com/_D_Z-D2tzi14/TNd6imWMgfI/AAAAAAAAECw/9-i8y1EPhzI/s400/dogs15.png" width="400" /></a></div>\u000a<div class="separator">\u000a<a href="http://1.bp.blogspot.com/_D_Z-D2tzi14/TNd6ow3ShTI/AAAAAAAAEC0/GrIaTvGuYCg/s1600/dogs13altaltaltalt.png"><img border="0" height="300" src="http://1.bp.blogspot.com/_D_Z-D2tzi14/TNd6ow3ShTI/AAAAAAAAEC0/GrIaTvGuYCg/s400/dogs13altaltaltalt.png" width="400" /></a></div>\u000a<div class="separator">\u000a<a href="http://3.bp.blogspot.com/_D_Z-D2tzi14/TNd6xW1VeoI/AAAAAAAAEC4/TEwfVJMHYW4/s1600/dogs16alt.png"><img border="0" height="300" src="http://3.bp.blogspot.com/_D_Z-D2tzi14/TNd6xW1VeoI/AAAAAAAAEC4/TEwfVJMHYW4/s400/dogs16alt.png" width="400" /></a></div>\u000a<div class="separator">\u000a<br /></div>\u000a<div class="separator">\u000aWhen the soul-penetrating pathos she was beaming at me failed to prevent me from continuing to put things in boxes, the helper dog became increasingly alarmed. &nbsp;Over the ensuing few days, she slowly descended into psychological chaos. &nbsp;The simple dog remained unfazed.&nbsp;</div>\u000a<div class="separator">\u000a<br /></div>\u000a<div class="separator">\u000a<a href="http://2.bp.blogspot.com/_D_Z-D2tzi14/TNeOOyIRPyI/AAAAAAAAEC8/o2knPYS4YSs/s1600/dogs21altalt.png"><img border="0" height="300" src="http://2.bp.blogspot.com/_D_Z-D2tzi14/TNeOOyIRPyI/AAAAAAAAEC8/o2knPYS4YSs/s400/dogs21altalt.png" width="400" /></a></div>\u000a<div class="separator">\u000a</div>\u000a<div class="separator">\u000a<a href="http://3.bp.blogspot.com/_D_Z-D2tzi14/TNdfY7Zw2sI/AAAAAAAAECQ/e-dAK1MbHow/s1600/dogs12.png"><img border="0" height="300" src="http://3.bp.blogspot.com/_D_Z-D2tzi14/TNdfY7Zw2sI/AAAAAAAAECQ/e-dAK1MbHow/s400/dogs12.png" width="400" /></a></div>\u000a<div class="separator">\u000a<a href="http://3.bp.blogspot.com/_D_Z-D2tzi14/TNeOWsKfOrI/AAAAAAAAEDA/ZAE42QkT89c/s1600/dogs22.png"><img border="0" height="300" src="http://3.bp.blogspot.com/_D_Z-D2tzi14/TNeOWsKfOrI/AAAAAAAAEDA/ZAE42QkT89c/s400/dogs22.png" width="400" /></a></div>\u000a<div class="separator">\u000a<br /></div>\u000a<div class="separator">\u000aUnfortunately for the helper dog, it took us nearly a week to get everything packed up. &nbsp;By the time we were ready to begin the first part of our two-day journey to Oregon, she seemed almost entirely convinced that she was going to die at any moment. &nbsp;She spent the entire car ride drooling and shaking uncontrollably. &nbsp;</div>\u000a<div class="separator">\u000a<br /></div>\u000a<div class="separator">\u000a<a href="http://1.bp.blogspot.com/_D_Z-D2tzi14/TORyMI9Z0PI/AAAAAAAAEHA/OCSq4PDqIoY/s1600/dogs25altaltalt.png"><img border="0" height="300" src="http://1.bp.blogspot.com/_D_Z-D2tzi14/TORyMI9Z0PI/AAAAAAAAEHA/OCSq4PDqIoY/s400/dogs25altaltalt.png" width="400" /></a></div>\u000a<div class="separator">\u000a</div>\u000a<div class="separator">\u000a</div>\u000a<div class="separator">\u000a<br /></div>\u000a<div class="separator">\u000aBut the simple dog seemed to enjoy the trip.&nbsp;</div>\u000a<div class="separator">\u000a<br /></div>\u000a<div class="separator">\u000a<a href="http://1.bp.blogspot.com/_D_Z-D2tzi14/TNiQ01j8SbI/AAAAAAAAEDI/_6uI-kNya3E/s1600/dogs29alt.png"><img border="0" height="300" src="http://1.bp.blogspot.com/_D_Z-D2tzi14/TNiQ01j8SbI/AAAAAAAAEDI/_6uI-kNya3E/s400/dogs29alt.png" width="400" /></a></div>\u000a<div class="separator">\u000a<br /></div>\u000a<div class="separator">\u000aEven though she threw up seven times.&nbsp;</div>\u000a<div class="separator">\u000a<br /></div>\u000a<div class="separator">\u000a<a href="http://2.bp.blogspot.com/_D_Z-D2tzi14/TNiVf51_dfI/AAAAAAAAEDc/gf67HrwlAi8/s1600/dogs26altalt.png"><img border="0" height="300" src="http://2.bp.blogspot.com/_D_Z-D2tzi14/TNiVf51_dfI/AAAAAAAAEDc/gf67HrwlAi8/s400/dogs26altalt.png" width="400" /></a></div>\u000a<div class="separator">\u000a</div>\u000a<div class="separator">\u000a<a href="http://4.bp.blogspot.com/_D_Z-D2tzi14/TNiRAIME4dI/AAAAAAAAEDQ/hUbj-sTVlSE/s1600/dogs27.png"><img border="0" height="300" src="http://4.bp.blogspot.com/_D_Z-D2tzi14/TNiRAIME4dI/AAAAAAAAEDQ/hUbj-sTVlSE/s400/dogs27.png" width="400" /></a></div>\u000a<div class="separator">\u000a<a href="http://1.bp.blogspot.com/_D_Z-D2tzi14/TNjSk2QLttI/AAAAAAAAEEE/CQArjGN6GNI/s1600/dogs28.png"><img border="0" height="300" src="http://1.bp.blogspot.com/_D_Z-D2tzi14/TNjSk2QLttI/AAAAAAAAEEE/CQArjGN6GNI/s400/dogs28.png" width="400" /></a></div>\u000a<div class="separator">\u000a<a href="http://3.bp.blogspot.com/_D_Z-D2tzi14/TNiYLT-CALI/AAAAAAAAEDk/aJ4hQSXqc6w/s1600/dogs28altalt.png"><img border="0" height="300" src="http://3.bp.blogspot.com/_D_Z-D2tzi14/TNiYLT-CALI/AAAAAAAAEDk/aJ4hQSXqc6w/s400/dogs28altalt.png" width="400" /></a></div>\u000a<div class="separator">\u000a</div>\u000a<div class="separator">\u000a<a href="http://2.bp.blogspot.com/_D_Z-D2tzi14/TNiRrq56_fI/AAAAAAAAEDY/iaaOLq3S6N4/s1600/dogs30alt.png"><img border="0" height="300" src="http://2.bp.blogspot.com/_D_Z-D2tzi14/TNiRrq56_fI/AAAAAAAAEDY/iaaOLq3S6N4/s400/dogs30alt.png" width="400" /></a></div>\u000a<div class="separator">\u000a<br /></div>\u000a<div class="separator">\u000aShe actually seemed to like throwing up. &nbsp;To the simple dog, throwing up was like some magical power that she never knew she possessed - the ability to create infinite food. &nbsp;I was less excited about the discovery because it turned my dog into a horrible, vomit-making perpetual motion machine. &nbsp;Whenever I heard her retch in the backseat, I had to pull over as quickly as possible to prevent her from reloading her stomach and starting the whole cycle over again. &nbsp;</div>\u000a<div class="separator">\u000a<br /></div>\u000a<div class="separator">\u000aBut&nbsp;as far as the simple dog was concerned, it was the best, most exciting day of her life. &nbsp;</div>\u000a<div class="separator">\u000a<br /></div>\u000a<div class="separator">\u000a</div>\u000a<div class="separator">\u000a</div>\u000a<div class="separator">\u000a</div>\u000a<div class="separator">\u000a</div>\u000a<div class="separator">\u000a</div>\u000a<div class="separator">\u000a<a href="http://4.bp.blogspot.com/_D_Z-D2tzi14/TNc34c0GWTI/AAAAAAAAEBg/r2vOzmheYNY/s1600/Picture+12.png"><img border="0" height="226" src="http://4.bp.blogspot.com/_D_Z-D2tzi14/TNc34c0GWTI/AAAAAAAAEBg/r2vOzmheYNY/s400/Picture+12.png" width="400" /></a></div>\u000a<div class="separator">\u000a<br /></div>\u000a<div class="separator">\u000aIt wasn't until we stopped for the night in Umatilla that the simple dog became aware that there was any reason for her to feel anxious. &nbsp;But at around two o'clock in the morning, the simple dog finally realized that something was different and maybe she should be alarmed.</div>\u000a<div class="separator">\u000a<br /></div>\u000a<div class="separator">\u000a<a href="http://1.bp.blogspot.com/_D_Z-D2tzi14/TNc4FY3F1GI/AAAAAAAAEBk/LAoQdoQv8f8/s1600/dogs3.png"><img border="0" height="300" src="http://1.bp.blogspot.com/_D_Z-D2tzi14/TNc4FY3F1GI/AAAAAAAAEBk/LAoQdoQv8f8/s400/dogs3.png" width="400" /></a></div>\u000a<div class="separator">\u000a<br /></div>\u000a<div class="separator">\u000aThis particular dog is not anywhere near the gifted spectrum when it comes to solving problems. &nbsp;In fact, she has only one discernible method of problem solving and it isn't even really a method.&nbsp;</div>\u000a<div class="separator">\u000a<br /></div>\u000a<div class="separator">\u000a<a href="http://4.bp.blogspot.com/_D_Z-D2tzi14/TNc4MEFzVRI/AAAAAAAAEBo/1mYo8KmVK_o/s1600/dogs10.png"><img border="0" height="240" src="http://4.bp.blogspot.com/_D_Z-D2tzi14/TNc4MEFzVRI/AAAAAAAAEBo/1mYo8KmVK_o/s640/dogs10.png" width="640" /></a></div>\u000a<div class="separator">\u000a<br /></div>\u000a<div class="separator">\u000aBut making high-pitched noises won't solve your problem if your problem is a complete inability to cope with change. &nbsp;Unfortunately for everyone involved, the simple dog did not understand this concept and she went right ahead and made an interminable amount of noise that was just invasive enough to make sleeping impossible.&nbsp;</div>\u000a<div class="separator">\u000a<br /></div>\u000a<div class="separator">\u000aAfter an hour of failed attempts at comforting the simple dog, her constant, high-pitched emergency-distress-signal became a huge problem. &nbsp;</div>\u000a<div class="separator">\u000a<br /></div>\u000a<div class="separator">\u000aI tried to communicate my displeasure to the simple dog, but communicating with the simple dog usually goes like this:</div>\u000a<div class="separator">\u000a<br /></div>\u000a<div class="separator">\u000a<a href="http://2.bp.blogspot.com/_D_Z-D2tzi14/TOM8Rcw18MI/AAAAAAAAEFk/CQVCsWekZR8/s1600/Picture+18.png"><img border="0" height="356" src="http://2.bp.blogspot.com/_D_Z-D2tzi14/TOM8Rcw18MI/AAAAAAAAEFk/CQVCsWekZR8/s400/Picture+18.png" width="400" /></a></div>\u000a<div class="separator">\u000a<a href="http://4.bp.blogspot.com/_D_Z-D2tzi14/TOM8bCK7rRI/AAAAAAAAEFo/rjD1XRjQKns/s1600/dogs38alt.png"><img border="0" height="300" src="http://4.bp.blogspot.com/_D_Z-D2tzi14/TOM8bCK7rRI/AAAAAAAAEFo/rjD1XRjQKns/s400/dogs38alt.png" width="400" /></a></div>\u000a<div class="separator">\u000a<a href="http://3.bp.blogspot.com/_D_Z-D2tzi14/TOM8glhR_EI/AAAAAAAAEFs/Qe3FG711Mc8/s1600/Picture+18next.png"><img border="0" height="356" src="http://3.bp.blogspot.com/_D_Z-D2tzi14/TOM8glhR_EI/AAAAAAAAEFs/Qe3FG711Mc8/s400/Picture+18next.png" width="400" /></a></div>\u000a<div class="separator">\u000a<a href="http://1.bp.blogspot.com/_D_Z-D2tzi14/TOM8oQLYkdI/AAAAAAAAEFw/pvYb1dGOwME/s1600/dogs38altnext.png"><img border="0" height="300" src="http://1.bp.blogspot.com/_D_Z-D2tzi14/TOM8oQLYkdI/AAAAAAAAEFw/pvYb1dGOwME/s400/dogs38altnext.png" width="400" /></a></div>\u000a<div class="separator">\u000a<a href="http://4.bp.blogspot.com/_D_Z-D2tzi14/TOM8tspXHMI/AAAAAAAAEF0/Mz_gjJ2popU/s1600/Picture+18nextnext.png"><img border="0" height="356" src="http://4.bp.blogspot.com/_D_Z-D2tzi14/TOM8tspXHMI/AAAAAAAAEF0/Mz_gjJ2popU/s400/Picture+18nextnext.png" width="400" /></a></div>\u000a<div class="separator">\u000a<a href="http://3.bp.blogspot.com/_D_Z-D2tzi14/TOM81NLQrKI/AAAAAAAAEF4/6_olTh8hoqU/s1600/dogs38altnextnext.png"><img border="0" height="300" src="http://3.bp.blogspot.com/_D_Z-D2tzi14/TOM81NLQrKI/AAAAAAAAEF4/6_olTh8hoqU/s400/dogs38altnextnext.png" width="400" /></a></div>\u000a<div class="separator">\u000a<br /></div>\u000a<div class="separator">\u000aShe was going to make that sound forever if she felt it was necessary. &nbsp;We tried everything from spooning her to locking her in the bathroom, but none of it was even the slightest bit effective. &nbsp;</div>\u000a<div class="separator">\u000a<br /></div>\u000a<div class="separator">\u000a</div>\u000a<div class="separator">\u000a<a href="http://3.bp.blogspot.com/_D_Z-D2tzi14/TNdCoz5UfzI/AAAAAAAAECA/tT-6U62ITO4/s1600/dogs5altalt.png"><img border="0" height="300" src="http://3.bp.blogspot.com/_D_Z-D2tzi14/TNdCoz5UfzI/AAAAAAAAECA/tT-6U62ITO4/s400/dogs5altalt.png" width="400" /></a></div>\u000a<div class="separator">\u000a<a href="http://4.bp.blogspot.com/_D_Z-D2tzi14/TOM9_L1mmBI/AAAAAAAAEF8/rKtcL17rTIQ/s1600/dogs39.png"><img border="0" height="300" src="http://4.bp.blogspot.com/_D_Z-D2tzi14/TOM9_L1mmBI/AAAAAAAAEF8/rKtcL17rTIQ/s400/dogs39.png" width="400" /></a></div>\u000a<div class="separator">\u000a</div>\u000a<div class="separator">\u000a<a href="http://1.bp.blogspot.com/_D_Z-D2tzi14/TOM-POHazKI/AAAAAAAAEGA/cxW2A6PIYIw/s1600/dogs4alt.png"><img border="0" height="300" src="http://1.bp.blogspot.com/_D_Z-D2tzi14/TOM-POHazKI/AAAAAAAAEGA/cxW2A6PIYIw/s400/dogs4alt.png" width="400" /></a></div>\u000a<div class="separator">\u000a<a href="http://3.bp.blogspot.com/_D_Z-D2tzi14/TOM-bEIZLPI/AAAAAAAAEGE/0dM6xXxSL30/s1600/dogs39next.png"><img border="0" height="300" src="http://3.bp.blogspot.com/_D_Z-D2tzi14/TOM-bEIZLPI/AAAAAAAAEGE/0dM6xXxSL30/s400/dogs39next.png" width="400" /></a></div>\u000a<div class="separator">\u000a<a href="http://3.bp.blogspot.com/_D_Z-D2tzi14/TOM-g9TtiBI/AAAAAAAAEGI/SRI_An-uibw/s1600/dogs4altalt.png"><img border="0" height="300" src="http://3.bp.blogspot.com/_D_Z-D2tzi14/TOM-g9TtiBI/AAAAAAAAEGI/SRI_An-uibw/s400/dogs4altalt.png" width="400" /></a></div>\u000a<div class="separator">\u000a<br /></div>\u000a<div class="separator">\u000a<a href="http://3.bp.blogspot.com/_D_Z-D2tzi14/TOM-qhU2EcI/AAAAAAAAEGM/WpAw6SxwefI/s1600/dogs39nextnext.png"><img border="0" height="300" src="http://3.bp.blogspot.com/_D_Z-D2tzi14/TOM-qhU2EcI/AAAAAAAAEGM/WpAw6SxwefI/s400/dogs39nextnext.png" width="400" /></a></div>\u000a<div class="separator">\u000a<br /></div>\u000a<div class="separator">\u000aThe simple dog made the noise all through the night and was still going strong the next morning. When we were loading the dogs into the car, the constant, high-pitched sound emanating from the simple dog finally broke the helper dog. &nbsp;The helper dog wailed in anguish, which alarmed the simple dog. &nbsp;In her surprise, the simple dog let out a yelp, which further upset the helper dog. &nbsp;And so it continued in a wretched positive-feedback loop of completely unnecessary noise.</div>\u000a<div class="separator">\u000a<br /></div>\u000a<div class="separator">\u000a<a href="http://2.bp.blogspot.com/_D_Z-D2tzi14/TONMmqxniII/AAAAAAAAEGc/zjc6u2qRzeQ/s1600/dogs7altnext.png"><img border="0" height="300" src="http://2.bp.blogspot.com/_D_Z-D2tzi14/TONMmqxniII/AAAAAAAAEGc/zjc6u2qRzeQ/s400/dogs7altnext.png" width="400" /></a></div>\u000a<div class="separator">\u000a<a href="http://1.bp.blogspot.com/_D_Z-D2tzi14/TORi1UvALsI/AAAAAAAAEGk/UjwNVeJpvr0/s1600/dogs45.png"><img border="0" height="300" src="http://1.bp.blogspot.com/_D_Z-D2tzi14/TORi1UvALsI/AAAAAAAAEGk/UjwNVeJpvr0/s400/dogs45.png" width="400" /></a></div>\u000a<div class="separator">\u000a<a href="http://3.bp.blogspot.com/_D_Z-D2tzi14/TORi8siEhWI/AAAAAAAAEGo/jqZV7ASHUcU/s1600/dogs45next.png"><img border="0" height="300" src="http://3.bp.blogspot.com/_D_Z-D2tzi14/TORi8siEhWI/AAAAAAAAEGo/jqZV7ASHUcU/s400/dogs45next.png" width="400" /></a></div>\u000a<div class="separator">\u000a<br /></div>\u000a<div class="separator">\u000aWhen&nbsp;we&nbsp;finally arrived at our new house, the dogs had calmed down considerably. &nbsp;Unfortunately, it had snowed the night before and there was still snow on our front lawn, and that was enough to catapult both dogs back into hysteria. &nbsp;</div>\u000a<div class="separator">\u000a<br /></div>\u000a<div class="separator">\u000aThe simple dog had either never experienced snow or she'd forgotten that she knew what it was, because when we let her out of the car, she walked around normally for about seven seconds, then she noticed the snow and her feeble little mind short-circuited.</div>\u000a<div class="separator">\u000a<br /></div>\u000a<div class="separator">\u000a<a href="http://2.bp.blogspot.com/_D_Z-D2tzi14/TONBPQg7nGI/AAAAAAAAEGQ/P3xJ5nvM73s/s1600/dogs11.png"><img border="0" height="300" src="http://2.bp.blogspot.com/_D_Z-D2tzi14/TONBPQg7nGI/AAAAAAAAEGQ/P3xJ5nvM73s/s400/dogs11.png" width="400" /></a></div>\u000a<div class="separator">\u000a<br /></div>\u000a<div class="separator">\u000aAt first, the simple dog was excited about the snow. &nbsp;She started prancing around the yard like she was the star of a one-dog parade - her recent personal crisis overshadowed by a haze of enthusiasm.&nbsp;</div>\u000a<div class="separator">\u000a<br /></div>\u000a<div class="separator">\u000a<a href="http://2.bp.blogspot.com/_D_Z-D2tzi14/TONBzJqnw4I/AAAAAAAAEGU/hGFkFEtfW24/s1600/dogs36altalt.png"><img border="0" height="300" src="http://2.bp.blogspot.com/_D_Z-D2tzi14/TONBzJqnw4I/AAAAAAAAEGU/hGFkFEtfW24/s400/dogs36altalt.png" width="400" /></a></div>\u000a<div class="separator">\u000a<br /></div>\u000a<div class="separator">\u000aThe prancing turned to leaping and the leaping turned to running chaotically in stupid little circles. Then she just stopped and stared at the ground. &nbsp;There was a visible shift in her demeanor as she realized that she didn't understand snow and it was everywhere and she should probably be scared of it. She started making the noise again.&nbsp;</div>\u000a<div class="separator">\u000a<br /></div>\u000a<div class="separator">\u000a<a href="http://2.bp.blogspot.com/_D_Z-D2tzi14/TNjRs9hmICI/AAAAAAAAED4/idDM3g3KEF0/s1600/dogs18.png"><img border="0" height="300" src="http://2.bp.blogspot.com/_D_Z-D2tzi14/TNjRs9hmICI/AAAAAAAAED4/idDM3g3KEF0/s400/dogs18.png" width="400" /></a></div>\u000a<div class="separator">\u000a<br /></div>\u000a<div class="separator">\u000aNot surprisingly, the helper dog interpreted the snow as a sign of her imminent demise. &nbsp;But she was so exhausted from worrying about all of the other signs of her demise that she just gave up and accepted her death. &nbsp;She peered up at us, half-buried in the snow. &nbsp;Her eyes were filled with pain and helplessness, as if she thought we had summoned the snow for the sole purpose of making her sad.</div>\u000a<div class="separator">\u000a<br /></div>\u000a<div class="separator">\u000a<a href="http://3.bp.blogspot.com/_D_Z-D2tzi14/TNjSBnZcKmI/AAAAAAAAED8/EAiTJlg6PAc/s1600/dogs14altalt.png"><img border="0" height="300" src="http://3.bp.blogspot.com/_D_Z-D2tzi14/TNjSBnZcKmI/AAAAAAAAED8/EAiTJlg6PAc/s400/dogs14altalt.png" width="400" /></a></div>\u000a<div class="separator">\u000a<br /></div>\u000a<div class="separator">\u000aWe decided that it would probably be best to bring the dogs inside. &nbsp;</div>\u000a<div class="separator">\u000a<br /></div>\u000a<div class="separator">\u000aAs a condition for allowing us to have dogs in our rental house, our landlady made us promise that we wouldn't let the dogs scratch the wood floors. &nbsp;We didn't anticipate it being a problem because it hadn't been in the past, but as soon as our dogs set foot in the house, they morphed into perfectly engineered floor-destroying machines. &nbsp;They started sprinting as fast as they could for absolutely no reason - skittering around in circles to avoid running into the walls. &nbsp;</div>\u000a<div class="separator">\u000a<br /></div>\u000a<div class="separator">\u000a<a href="http://4.bp.blogspot.com/_D_Z-D2tzi14/TONEWMK_ujI/AAAAAAAAEGY/vTpl_NZfPgU/s1600/Picture+22.png"><img border="0" height="300" src="http://4.bp.blogspot.com/_D_Z-D2tzi14/TONEWMK_ujI/AAAAAAAAEGY/vTpl_NZfPgU/s400/Picture+22.png" width="400" /></a></div>\u000a<div class="separator">\u000a<br /></div>\u000a<div class="separator">\u000aWe finally corralled them in the bedroom and shut the door to give ourselves a little time to regroup and come up with a plan. &nbsp;Until we could get some rugs or convince the dogs that it was unnecessary to sprint around chaotically for no reason, we would need to find some way to prevent them from scratching the floors. &nbsp;What we ended up doing was going to the pet store and buying two sets of sled dog booties. It was the only way.</div>\u000a<div class="separator">\u000a<br /></div>\u000a<div class="separator">\u000aIt is easy to imagine that a dog who has recently experienced a dramatic upheaval of its formerly safe and predictable life might not react well to suddenly having strange objects attached to all four of its feet. &nbsp;This was most definitely the case with the booties.</div>\u000a<div class="separator">\u000a<br /></div>\u000a<div class="separator">\u000aThe helper dog panicked and started trying to rip the booties off with her teeth.&nbsp;</div>\u000a<div class="separator">\u000a<br /></div>\u000a<div class="separator">\u000a<a href="http://1.bp.blogspot.com/_D_Z-D2tzi14/TNjQ-fjjRUI/AAAAAAAAEDo/3ItzyUlt-Lo/s1600/dogs34.png"><img border="0" height="300" src="http://1.bp.blogspot.com/_D_Z-D2tzi14/TNjQ-fjjRUI/AAAAAAAAEDo/3ItzyUlt-Lo/s400/dogs34.png" width="400" /></a></div>\u000a<div class="separator">\u000a<a href="http://3.bp.blogspot.com/_D_Z-D2tzi14/TNjRHZgUoUI/AAAAAAAAEDs/02KhLYH7zN0/s1600/dogs34next.png"><img border="0" height="300" src="http://3.bp.blogspot.com/_D_Z-D2tzi14/TNjRHZgUoUI/AAAAAAAAEDs/02KhLYH7zN0/s400/dogs34next.png" width="400" /></a></div>\u000a<div class="separator">\u000a<br /></div>\u000a<div class="separator">\u000aI scolded her and she reacted as if I'd ruined her entire life.&nbsp;</div>\u000a<div class="separator">\u000a<br /></div>\u000a<div class="separator">\u000a<a href="http://4.bp.blogspot.com/_D_Z-D2tzi14/TNjRWgfQCUI/AAAAAAAAEDw/vMxckjVt7kE/s1600/dogs14alt.png"><img border="0" height="300" src="http://4.bp.blogspot.com/_D_Z-D2tzi14/TNjRWgfQCUI/AAAAAAAAEDw/vMxckjVt7kE/s400/dogs14alt.png" width="400" /></a></div>\u000a<div class="separator">\u000a<br /></div>\u000a<div class="separator">\u000aBut at least her immobilizing self-pity kept her from chewing the booties off.</div>\u000a<div class="separator">\u000a<br /></div>\u000a<div class="separator">\u000aThe simple dog just stood there and looked at me in a way that would suggest she didn't realize her legs still worked.</div>\u000a<div class="separator">\u000a<br /></div>\u000a<div class="separator">\u000a</div>\u000a<div class="separator">\u000a</div>\u000a<div class="separator">\u000a<a href="http://1.bp.blogspot.com/_D_Z-D2tzi14/TNjRd1gpyjI/AAAAAAAAED0/aJB5QoeXK-w/s1600/dogs35.png"><img border="0" height="300" src="http://1.bp.blogspot.com/_D_Z-D2tzi14/TNjRd1gpyjI/AAAAAAAAED0/aJB5QoeXK-w/s400/dogs35.png" width="400" /></a></div>\u000a<div class="separator">\u000a<br /></div>\u000a<div class="separator">\u000aThey had to wear the booties for two days. &nbsp;Those two days were filled with the most concentrated display of overemotional suffering I have ever witnessed. &nbsp;The simple dog spent most of her time standing in the middle of the room looking bewildered and hurt and the helper dog refused to walk, instead opting to flop her way around the house like a dying fish. &nbsp;</div>\u000a<div class="separator">\u000a<br /></div>\u000a<div class="separator">\u000a<a href="http://4.bp.blogspot.com/_D_Z-D2tzi14/TORvNVRELrI/AAAAAAAAEG8/lCDK5AJZcyI/s1600/dogs47.png"><img border="0" height="300" src="http://4.bp.blogspot.com/_D_Z-D2tzi14/TORvNVRELrI/AAAAAAAAEG8/lCDK5AJZcyI/s400/dogs47.png" width="400" /></a></div>\u000a<div class="separator">\u000a</div>\u000a<div class="separator">\u000a<a href="http://3.bp.blogspot.com/_D_Z-D2tzi14/TORpkrtGo6I/AAAAAAAAEG0/MlemGt5qNeY/s1600/dogs46.png"><img border="0" height="480" src="http://3.bp.blogspot.com/_D_Z-D2tzi14/TORpkrtGo6I/AAAAAAAAEG0/MlemGt5qNeY/s640/dogs46.png" width="640" /></a></div>\u000a<div class="separator">\u000a</div>\u000a<div class="separator">\u000a<br /></div>\u000a<div class="separator">\u000aThe entire ordeal was punctuated by the simple dog's high-pitched confusion alarm.&nbsp;</div>\u000a<div class="separator">\u000a<br /></div>\u000a<div class="separator">\u000aWe were beginning to think that our dogs were permanently broken. Nothing we did helped at all to convince the dogs that we had only changed houses and our new house was not, in fact, some sort of death-camp and we weren't actually planning on killing them to fulfill an organ harvest ritual. &nbsp;Despite our best efforts, they continued to drift around in a sea of confusion and terror, pausing only to look pitiful.&nbsp;</div>\u000a<div class="separator">\u000a<br /></div>\u000a<div class="separator">\u000aBut while we were unpacking, we found a squeaky toy that was given to us as a gift shortly before we moved. &nbsp;We offered the toy to the dogs. &nbsp;This may have been a mistake.&nbsp;</div>\u000a<div class="separator">\u000a<br /></div>\u000a<div class="separator">\u000aUpon&nbsp;discovering&nbsp;that&nbsp;the&nbsp;toy&nbsp;squeaked&nbsp;when&nbsp;it&nbsp;was&nbsp;compressed forcefully,&nbsp;the simple dog immediately forgot that she'd ever experienced doubt or anxiety ever in her life. &nbsp;She pounced on the toy with way more force than necessary, over and over and over. &nbsp;The logic behind her sudden change in outlook was unclear. &nbsp;&nbsp;</div>\u000a<div class="separator">\u000a<br /></div>\u000a<div class="separator">\u000a<a href="http://3.bp.blogspot.com/_D_Z-D2tzi14/TORSbWHwCcI/AAAAAAAAEGg/rsz3zZTL_aE/s1600/dogs44alt.png"><img border="0" height="480" src="http://3.bp.blogspot.com/_D_Z-D2tzi14/TORSbWHwCcI/AAAAAAAAEGg/rsz3zZTL_aE/s640/dogs44alt.png" width="640" /></a></div>\u000a<div class="separator">\u000a<br /></div>\u000a<div class="separator">\u000aBut at least she was happy again.&nbsp;</div>\u000a<div class="separator">\u000a<br /></div>\u000a<div class="separator">\u000a<a href="http://1.bp.blogspot.com/_D_Z-D2tzi14/TORjTr706VI/AAAAAAAAEGs/_SPdW-RYXUc/s1600/dogs43altaltalt.png"><img border="0" height="480" src="http://1.bp.blogspot.com/_D_Z-D2tzi14/TORjTr706VI/AAAAAAAAEGs/_SPdW-RYXUc/s640/dogs43altaltalt.png" width="640" /></a></div><div class="blogger-post-footer"><img width="1" height="1" src="https://blogger.googleusercontent.com/tracker/4643741973264866223-7506787079748909290?l=hyperboleandahalf.blogspot.com" alt="" /></div><div class="feedflare">\u000a<a href="http://feeds.feedburner.com/~ff/Hyperbole-and-a-half?a=S65DC5j_TZI:ZKsky1ilJlE:yIl2AUoC8zA"><img src="http://feeds.feedburner.com/~ff/Hyperbole-and-a-half?d=yIl2AUoC8zA" border="0" /></a> <a href="http://feeds.feedburner.com/~ff/Hyperbole-and-a-half?a=S65DC5j_TZI:ZKsky1ilJlE:63t7Ie-LG7Y"><img src="http://feeds.feedburner.com/~ff/Hyperbole-and-a-half?d=63t7Ie-LG7Y" border="0" /></a> <a href="http://feeds.feedburner.com/~ff/Hyperbole-and-a-half?a=S65DC5j_TZI:ZKsky1ilJlE:dnMXMwOfBR0"><img src="http://feeds.feedburner.com/~ff/Hyperbole-and-a-half?d=dnMXMwOfBR0" border="0" /></a> <a href="http://feeds.feedburner.com/~ff/Hyperbole-and-a-half?a=S65DC5j_TZI:ZKsky1ilJlE:F7zBnMyn0Lo"><img src="http://feeds.feedburner.com/~ff/Hyperbole-and-a-half?i=S65DC5j_TZI:ZKsky1ilJlE:F7zBnMyn0Lo" border="0" /></a> <a href="http://feeds.feedburner.com/~ff/Hyperbole-and-a-half?a=S65DC5j_TZI:ZKsky1ilJlE:qj6IDK7rITs"><img src="http://feeds.feedburner.com/~ff/Hyperbole-and-a-half?d=qj6IDK7rITs" border="0" /></a> <a href="http://feeds.feedburner.com/~ff/Hyperbole-and-a-half?a=S65DC5j_TZI:ZKsky1ilJlE:V_sGLiPBpWU"><img src="http://feeds.feedburner.com/~ff/Hyperbole-and-a-half?i=S65DC5j_TZI:ZKsky1ilJlE:V_sGLiPBpWU" border="0" /></a> <a href="http://feeds.feedburner.com/~ff/Hyperbole-and-a-half?a=S65DC5j_TZI:ZKsky1ilJlE:gIN9vFwOqvQ"><img src="http://feeds.feedburner.com/~ff/Hyperbole-and-a-half?i=S65DC5j_TZI:ZKsky1ilJlE:gIN9vFwOqvQ" border="0" /></a> <a href="http://feeds.feedburner.com/~ff/Hyperbole-and-a-half?a=S65DC5j_TZI:ZKsky1ilJlE:TzevzKxY174"><img src="http://feeds.feedburner.com/~ff/Hyperbole-and-a-half?d=TzevzKxY174" border="0" /></a> <a href="http://feeds.feedburner.com/~ff/Hyperbole-and-a-half?a=S65DC5j_TZI:ZKsky1ilJlE:cGdyc7Q-1BI"><img src="http://feeds.feedburner.com/~ff/Hyperbole-and-a-half?d=cGdyc7Q-1BI" border="0" /></a> <a href="http://feeds.feedburner.com/~ff/Hyperbole-and-a-half?a=S65DC5j_TZI:ZKsky1ilJlE:I9og5sOYxJI"><img src="http://feeds.feedburner.com/~ff/Hyperbole-and-a-half?d=I9og5sOYxJI" border="0" /></a>\u000a</div><img src="http://feeds.feedburner.com/~r/Hyperbole-and-a-half/~4/S65DC5j_TZI" height="1" width="1" />
p289
sg11
g12
((I2010
I11
I17
I17
I37
I20
I2
I321
I0
t(dtRp290
sg14
(lp291
g1
(g2
g3
(dp292
S'href'
p293
Vhttp://hyperboleandahalf.blogspot.com/feeds/7506787079748909290/comments/default
p294
sS'type'
p295
Vapplication/atom+xml
p296
sS'rel'
p297
Vreplies
p298
sS'title'
p299
VPost Comments
p300
stRp301
ag1
(g2
g3
(dp302
S'href'
p303
Vhttps://www.blogger.com/comment.g?blogID=4643741973264866223&postID=7506787079748909290&isPopup=true
p304
sS'type'
p305
Vtext/html
p306
sS'rel'
p307
Vreplies
p308
sS'title'
p309
V2471 Comments
p310
stRp311
ag1
(g2
g3
(dp312
S'href'
p313
Vhttp://www.blogger.com/feeds/4643741973264866223/posts/default/7506787079748909290?v=2
p314
sS'type'
p315
Vapplication/atom+xml
p316
sS'rel'
p317
Vedit
p318
stRp319
ag1
(g2
g3
(dp320
S'href'
p321
Vhttp://www.blogger.com/feeds/4643741973264866223/posts/default/7506787079748909290?v=2
p322
sS'type'
p323
Vapplication/atom+xml
p324
sS'rel'
p325
Vself
p326
stRp327
ag1
(g2
g3
(dp328
S'href'
p329
Vhttp://feedproxy.google.com/~r/Hyperbole-and-a-half/~3/S65DC5j_TZI/dogs-dont-understand-basic-concepts.html
p330
sS'type'
p331
Vtext/html
p332
sS'rel'
p333
Valternate
p334
sS'title'
p335
VDogs Don't Understand Basic Concepts Like Moving
p336
stRp337
asS'feedburner_origlink'
p338
Vhttp://hyperboleandahalf.blogspot.com/2010/11/dogs-dont-understand-basic-concepts.html
p339
sg68
Vhttp://www.blogger.com/profile/04259303604002690708
p340
sg77
g330
sg172
(lp341
g174
aV*
asS'app_edited'
p342
V2010-11-17T17:37:20.706-07:00
p343
sS'author_detail'
p344
g1
(g2
g3
(dp345
g68
g340
sg72
VAllie
p346
sg83
Vickybana5@hotmail.com
p347
stRp348
sS'id'
p349
Vtag:blogger.com,1999:blog-4643741973264866223.post-7506787079748909290
p350
sg184
g12
((I2010
I11
I17
I17
I37
I0
I2
I321
I0
t(dtRp351
sg91
VDogs Don't Understand Basic Concepts Like Moving
p352
sg93
VAllie (ickybana5@hotmail.com)
p353
sS'media_thumbnail'
p354
V
sg189
(lp355
g1
(g2
g3
(dp356
g97
S'http://feeds.feedburner.com/Hyperbole-and-a-half'
p357
sg51
g99
sg100
Nsg101
g289
stRp358
asS'title_detail'
p359
g1
(g2
g3
(dp360
g97
S'http://feeds.feedburner.com/Hyperbole-and-a-half'
p361
sg51
S'text/plain'
p362
sg100
Nsg101
g352
stRp363
sS'gd_extendedproperty'
p364
V
sg200
V2010-11-17T17:37:00.000-07:00
p365
sS'thr_total'
p366
V2471
p367
stRp368
asS'canto_update'
p369
F1297684100.810787
sS'headers'
p370
(dp371
S'x-xss-protection'
p372
S'1; mode=block'
p373
sS'x-content-type-options'
p374
S'nosniff'
p375
sS'expires'
p376
S'Mon, 14 Feb 2011 11:48:25 GMT'
p377
sS'server'
p378
S'GSE'
p379
sS'last-modified'
p380
S'Mon, 14 Feb 2011 11:19:59 GMT'
p381
sS'connection'
p382
S'close'
p383
sS'etag'
p384
S'9EnBqYqZ188HABAk19x/4bef48I'
p385
sS'cache-control'
p386
S'private, max-age=0'
p387
sS'date'
p388
S'Mon, 14 Feb 2011 11:48:25 GMT'
p389
sS'content-type'
p390
S'text/xml; charset=UTF-8'
p391
ssg68
S'http://feeds.feedburner.com/Hyperbole-and-a-half'
p392
sS'version'
p393
S'atom10'
p394
sg172
(lp395
sS'etag'
p396
g385
sS'namespaces'
p397
(dp398
S''
Vhttp://www.w3.org/2005/Atom
p399
sVopenSearch
p400
Vhttp://a9.com/-/spec/opensearch/1.1/
p401
sVmedia
p402
Vhttp://search.yahoo.com/mrss/
p403
sVapp
p404
Vhttp://www.w3.org/2007/app
p405
sVthr
p406
Vhttp://purl.org/syndication/thread/1.0
p407
sVgeorss
p408
Vhttp://www.georss.org/georss
p409
sVgd
p410
Vhttp://schemas.google.com/g/2005
p411
sS'feedburner'
p412
Vhttp://rssnamespace.org/feedburner/ext/1.0
p413
ssS'canto_version'
p414
(I0
I7
I9
tp415
stRp416
.