ccopy_reg
_reconstructor
p1
(cfeedparser
FeedParserDict
p2
c__builtin__
dict
p3
(dp4
S'feed'
p5
g1
(g2
g3
(dp6
S'subtitle'
p7
V
sS'language'
p8
Ven-us
p9
sS'links'
p10
(lp11
g1
(g2
g3
(dp12
S'href'
p13
Vhttp://www.mspaintadventures.com
p14
sS'type'
p15
S'text/html'
p16
sS'rel'
p17
S'alternate'
p18
stRp19
asS'title'
p20
VMSPA News Feed
p21
sS'generator'
p22
VCuteNews
p23
sS'generator_detail'
p24
g1
(g2
g3
(dp25
S'name'
p26
g23
stRp27
sS'subtitle_detail'
p28
g1
(g2
g3
(dp29
S'base'
p30
S'http://www.mspaintadventures.com/mspa_cutenews/cutenews/rss.php'
p31
sg15
S'text/html'
p32
sg8
NsS'value'
p33
V
stRp34
sS'title_detail'
p35
g1
(g2
g3
(dp36
g30
S'http://www.mspaintadventures.com/mspa_cutenews/cutenews/rss.php'
p37
sg15
S'text/plain'
p38
sg8
Nsg33
g21
stRp39
sS'link'
p40
g14
stRp41
sS'status'
p42
I200
sS'encoding'
p43
S'us-ascii'
p44
sS'bozo'
p45
I0
sS'entries'
p46
(lp47
g1
(g2
g3
(dp48
S'summary_detail'
p49
g1
(g2
g3
(dp50
g30
S'http://www.mspaintadventures.com/mspa_cutenews/cutenews/rss.php'
p51
sg15
S'text/html'
p52
sg8
Nsg33
VProbably will look into rehosting real soon because shit has been simmering at "barely adequate" for a little too long. This may mean updates will slow way down shortly, if not grind to an absolute halt for a while.<br /><br />Or it may not mean that. I cannot be held accountable for any threat of suspended content, ever.<br />
p53
stRp54
sS'updated_parsed'
p55
ctime
struct_time
p56
((I2011
I1
I27
I20
I42
I42
I3
I27
I0
t(dtRp57
sg10
(lp58
g1
(g2
g3
(dp59
g13
Vhttp://www.mspaintadventures.com?subaction=showfull&id=1296160962&archive=
p60
sg15
g16
sg17
g18
stRp61
asg20
VHosting
p62
sS'updated'
p63
VThu, 27 Jan 2011 13:42:42 -0700
p64
sS'summary'
p65
g53
sS'guidislink'
p66
I00
sS'title_detail'
p67
g1
(g2
g3
(dp68
g30
S'http://www.mspaintadventures.com/mspa_cutenews/cutenews/rss.php'
p69
sg15
S'text/plain'
p70
sg8
Nsg33
g62
stRp71
sg40
g60
sS'canto_state'
p72
(lp73
VMSPA News Feed
p74
aV*
aVnew
p75
aS'read'
p76
asS'id'
p77
Vhttp://www.mspaintadventures.com/mspa_cutenews/cutenews/1296160962
p78
stRp79
ag1
(g2
g3
(dp80
S'summary_detail'
p81
g1
(g2
g3
(dp82
g30
S'http://www.mspaintadventures.com/mspa_cutenews/cutenews/rss.php'
p83
sg15
S'text/html'
p84
sg8
Nsg33
VAll preordered shirts will ship very soon, if they have not been already! (troll shirts, broken record) Store should also be restocked with stuff in a few days.<br /><br />All personalized books have been deployed in the mail as well! <br />
p85
stRp86
sg55
g56
((I2011
I1
I26
I22
I5
I30
I2
I26
I0
t(dtRp87
sg10
(lp88
g1
(g2
g3
(dp89
g13
Vhttp://www.mspaintadventures.com?subaction=showfull&id=1296079530&archive=
p90
sg15
g16
sg17
g18
stRp91
asg20
VPreorders
p92
sg63
VWed, 26 Jan 2011 15:05:30 -0700
p93
sg65
g85
sg66
I00
sS'title_detail'
p94
g1
(g2
g3
(dp95
g30
S'http://www.mspaintadventures.com/mspa_cutenews/cutenews/rss.php'
p96
sg15
S'text/plain'
p97
sg8
Nsg33
g92
stRp98
sg40
g90
sg72
(lp99
VMSPA News Feed
p100
aV*
aVnew
p101
aS'read'
p102
asg77
Vhttp://www.mspaintadventures.com/mspa_cutenews/cutenews/1296079530
p103
stRp104
ag1
(g2
g3
(dp105
S'summary_detail'
p106
g1
(g2
g3
(dp107
g30
S'http://www.mspaintadventures.com/mspa_cutenews/cutenews/rss.php'
p108
sg15
S'text/html'
p109
sg8
Nsg33
Vbrought to you by HS soundsmithing zealot Radiation and soon to be rockstar Tensei. It is found on <a href="http://homestuck.bandcamp.com/" target="_blank">Volume 6</a>.<br /><br />Let it also be known there is a new <a href="http://www.formspring.me/mspadventures" target="_blank">FS account</a>, now burdened by one thousand two hundred less questions.<br /><br /><a href="http://www.mspaintadventures.com/scraps2/woiposter-small.png" target="_blank">Would anyone like to come to this?</a> There will be video games, and comic guys, and unsurprisingly, no ice skating at all.<br /><br />EDIT ABOUT SBAHJ SHIRTS:<br /><br />I mentioned that the second run of them <span>GLOWN IN THE DARK</span>. And that is true! However, the thing is, some of those new shirts got mixed in the the old ones. So I guess if you order one there is still a CHANCE you will get one that doesn't glow in the dark? So really the offer stands as the wild card <a href="http://www.mspaintadventures.com/sweetbroandhellajeff/?cid=021.gif" target="_blank">originally advertised</a>.<br /><br />I guess if you make a big point of asking topatoco for a glowing one they MAY be able to give you one? It all depends on how much you feel like making guys like <a href="http://gunshowcomic.com/" target="_blank">KC Green</a> and <a href="http://lucid-tv.com/" target="_blank">John Keogh</a> take a shirt into a dark room to verify this. I don't know what else to tell you really.<br /><br />This is just the kind of thing we all have to deal with when a guy is allowed to produce merchandise for the shittiest comic ever made.<br />
p110
stRp111
sg55
g56
((I2011
I1
I17
I1
I52
I52
I0
I17
I0
t(dtRp112
sg10
(lp113
g1
(g2
g3
(dp114
g13
Vhttp://www.mspaintadventures.com?subaction=showfull&id=1295229172&archive=
p115
sg15
g16
sg17
g18
stRp116
asg20
VMegalovania was
p117
sg63
VSun, 16 Jan 2011 18:52:52 -0700
p118
sg65
g110
sg66
I00
sS'title_detail'
p119
g1
(g2
g3
(dp120
g30
S'http://www.mspaintadventures.com/mspa_cutenews/cutenews/rss.php'
p121
sg15
S'text/plain'
p122
sg8
Nsg33
g117
stRp123
sg40
g115
sg72
(lp124
VMSPA News Feed
p125
aV*
aVnew
p126
aS'read'
p127
asg77
Vhttp://www.mspaintadventures.com/mspa_cutenews/cutenews/1295229172
p128
stRp129
ag1
(g2
g3
(dp130
S'summary_detail'
p131
g1
(g2
g3
(dp132
g30
S'http://www.mspaintadventures.com/mspa_cutenews/cutenews/rss.php'
p133
sg15
S'text/html'
p134
sg8
Nsg33
VLast chance to get a <a href="http://www.topatoco.com/merchant.mvc?Screen=CTGY&Store_Code=TO&Category_Code=MSPA-BOOKS" target="_blank">personalized book</a> is 6:00 PM tomorrow!<br />
p135
stRp136
sg55
g56
((I2011
I1
I11
I19
I42
I39
I1
I11
I0
t(dtRp137
sg10
(lp138
g1
(g2
g3
(dp139
g13
Vhttp://www.mspaintadventures.com?subaction=showfull&id=1294774959&archive=
p140
sg15
g16
sg17
g18
stRp141
asg20
VSketch deadline
p142
sg63
VTue, 11 Jan 2011 12:42:39 -0700
p143
sg65
g135
sg66
I00
sS'title_detail'
p144
g1
(g2
g3
(dp145
g30
S'http://www.mspaintadventures.com/mspa_cutenews/cutenews/rss.php'
p146
sg15
S'text/plain'
p147
sg8
Nsg33
g142
stRp148
sg40
g140
sg72
(lp149
g125
aV*
ag126
ag127
asg77
Vhttp://www.mspaintadventures.com/mspa_cutenews/cutenews/1294774959
p150
stRp151
ag1
(g2
g3
(dp152
S'summary_detail'
p153
g1
(g2
g3
(dp154
g30
S'http://www.mspaintadventures.com/mspa_cutenews/cutenews/rss.php'
p155
sg15
S'text/html'
p156
sg8
Nsg33
VAs promised, <a href="http://www.topatoco.com/merchant.mvc?Screen=CTGY&Store_Code=TO&Category_Code=MSPA-BOOKS" target="_blank">PS book personalizations</a> are open again for a brief period. This time, you can select a character from a dropdown, and supply a phrase for me to write. A little less open ended than last time, but this way, it will not take me weeks to do them.<br /><br />Also, <a href="http://www.topatoco.com/merchant.mvc?Screen=CTGY&Store_Code=TO&Category_Code=MSPA-ART" target="_blank">there are some nice new prints in the store</a>! Mostly some album covers, which I know some people have had their eyes on.<br /><br />And finally, <a href="http://www.topatoco.com/merchant.mvc?Screen=PROD&Store_Code=TO&Product_Code=MSPA-DEVILBEAST&Category_Code=MSPA" target="_blank">the Jade shirt</a>, so you and your friends can finally complete your lofty cosplaying ambitions. OR, simply exist in the world fashionably, if you prefer. <br /><br /><a href="http://www.topatoco.com/merchant.mvc?Screen=PROD&Store_Code=TO&Product_Code=MSPA-DEVILBEAST&Category_Code=MSPA" target="_blank"><img src="http://www.mspaintadventures.com/storyfiles/hs2/scraps/devilbeast_shirtgraphic.gif" border="0" /></a><br /><br />Also, you may recall there was some mystery surrounding whether the SBaHJ shirt <a href="http://www.mspaintadventures.com/sweetbroandhellajeff/?cid=021.gif" target="_blank">GLOWNS IN THE DARK, or not</a>.<br /><br />Well here is the thing with that. Originally, it did not, on account of manufacturing limitations at the time. But now, in its second run, <span>IT DOES IN FACT GLOWN IN THE DARK</span>. So if the lights go out at the party, people will see nothing but Hella Jeff's eyes looming in midair. If you wish to make this scenario a terrifying reality, and only bought one the first time, then I can think of no better reason to buy the alternate color and beef up that wardrobe.<br /><br />And once again, my marketing genius strikes like a coiled serpent, entirely on accident, as usual.<br />
p157
stRp158
sg55
g56
((I2011
I1
I6
I22
I48
I58
I3
I6
I0
t(dtRp159
sg10
(lp160
g1
(g2
g3
(dp161
g13
Vhttp://www.mspaintadventures.com?subaction=showfull&id=1294354138&archive=
p162
sg15
g16
sg17
g18
stRp163
asg20
VBook personalizations, prints, and Jadeshirts.
p164
sg63
VThu, 06 Jan 2011 15:48:58 -0700
p165
sg65
g157
sg66
I00
sS'title_detail'
p166
g1
(g2
g3
(dp167
g30
S'http://www.mspaintadventures.com/mspa_cutenews/cutenews/rss.php'
p168
sg15
S'text/plain'
p169
sg8
Nsg33
g164
stRp170
sg40
g162
sg72
(lp171
g125
aV*
ag126
ag127
asg77
Vhttp://www.mspaintadventures.com/mspa_cutenews/cutenews/1294354138
p172
stRp173
ag1
(g2
g3
(dp174
S'summary_detail'
p175
g1
(g2
g3
(dp176
g30
S'http://www.mspaintadventures.com/mspa_cutenews/cutenews/rss.php'
p177
sg15
S'text/html'
p178
sg8
Nsg33
V<a href="http://homestuck.bandcamp.com/" target="_blank">New album!</a><br /><br /><div><a href="http://homestuck.bandcamp.com/" target="_blank"><img src="http://www.mspaintadventures.com/scraps2/vol6_coverthumb.jpg" border="0" /></a><br /></div><br />This is pretty easily my favorite album so far. It's such a great mix of silly songs and kickass songs and all the wonderful moments where those two types of songs intersect. Sometimes those moments even span <span>entire songs</span>. Please enjoy this.<br /><br />Awesome job by the guys as usual. Nice mastering work by Jeremy, author of the first and last songs. <br /><br />I drew the cover in case you couldn't tell. I have a feeling SOMEBODY out there might ask for a desktop version so before you get all flustered about that, <a href="http://www.mspaintadventures.com/scraps2/vol6_wpp.jpg" target="_blank">here it is</a> to be adapted to your viewing device however you choose.<br />
p179
stRp180
sg55
g56
((I2011
I1
I5
I4
I7
I49
I2
I5
I0
t(dtRp181
sg10
(lp182
g1
(g2
g3
(dp183
g13
Vhttp://www.mspaintadventures.com?subaction=showfull&id=1294200469&archive=
p184
sg15
g16
sg17
g18
stRp185
asg20
VVolume 6: Heir Transparent
p186
sg63
VTue, 04 Jan 2011 21:07:49 -0700
p187
sg65
g179
sg66
I00
sS'title_detail'
p188
g1
(g2
g3
(dp189
g30
S'http://www.mspaintadventures.com/mspa_cutenews/cutenews/rss.php'
p190
sg15
S'text/plain'
p191
sg8
Nsg33
g186
stRp192
sg40
g184
sg72
(lp193
g125
aV*
ag126
ag127
asg77
Vhttp://www.mspaintadventures.com/mspa_cutenews/cutenews/1294200469
p194
stRp195
ag1
(g2
g3
(dp196
S'summary_detail'
p197
g1
(g2
g3
(dp198
S'base'
p199
S'http://www.mspaintadventures.com/mspa_cutenews/cutenews/rss.php'
p200
sS'type'
p201
S'text/html'
p202
sS'value'
p203
VWe are restocking some shirts very soon, so <a href="http://www.whatpumpkin.com/store/main.html" target="_blank">there will be a week-long preorder phase</a>. this presents a very good opportunity to buy them for several reasons!<br /><br />1) You are reserving a shirt, so there is no need to try to pounce on a particular item and worry about it selling out right away.<br />2) You can pick from a much wider variety of sizes than are usually offered. Since we're printing up a whole bunch, slipping in some orders for odd sizes becomes no big deal!<br /><br />All shirt designs are preorderable, including the <a href="http://www.whatpumpkin.com/store/trollshirts.html" target="_blank">troll shirts</a> as well as the three designs below. (Note this doesn't apply to Topatoco stuff. That's a whole different thing!) After the week of preorders, stuff will start shipping about two weeks after that. Thanks for the patience!<br /><br /><div><a href="http://www.whatpumpkin.com/store/main.html" target="_blank"><img src="http://www.mspaintadventures.com/scraps2/shirts12-13.jpg" /></a><br />\u000a\u000a</div>
p204
sS'language'
p205
NstRp206
sS'updated_parsed'
p207
g56
((I2010
I12
I29
I23
I58
I45
I2
I363
I0
t(dtRp208
sS'links'
p209
(lp210
g1
(g2
g3
(dp211
S'href'
p212
Vhttp://www.mspaintadventures.com?subaction=showfull&id=1293667125&archive=
p213
sg201
S'text/html'
p214
sS'rel'
p215
S'alternate'
p216
stRp217
asS'title'
p218
VShirt preorders
p219
sS'updated'
p220
VWed, 29 Dec 2010 16:58:45 -0700
p221
sS'summary'
p222
g204
sS'guidislink'
p223
I00
sS'title_detail'
p224
g1
(g2
g3
(dp225
g199
S'http://www.mspaintadventures.com/mspa_cutenews/cutenews/rss.php'
p226
sg201
S'text/plain'
p227
sg203
g219
sg205
NstRp228
sS'link'
p229
g213
sS'canto_state'
p230
(lp231
g125
aV*
ag126
ag127
asS'id'
p232
Vhttp://www.mspaintadventures.com/mspa_cutenews/cutenews/1293667125
p233
stRp234
ag1
(g2
g3
(dp235
S'summary_detail'
p236
g1
(g2
g3
(dp237
g199
S'http://www.mspaintadventures.com/mspa_cutenews/cutenews/rss.php'
p238
sg201
S'text/html'
p239
sg203
VI am pretty sure I am the only guy who gives his comic characters huge windfalls of actual presents every Christmas, who is not also stupid and clinically insane. The good news is that this doubles as a present for YOU, the reader, as a small gesture to compensate for the fact that Jade's presents are all so, so much better than what you got.<br /><br />I might be out of action for a few days! We'll see. Everybody have a great day today, as well as all days that follow it. Oh yes, you heard me right, my well wishes for you span THE LIMITLESS FRONTIER CALLED THE FUTURE. My yuletide benevolence is utterly inexhaustible. <br /><br /><span><span>U</span><span>P<span>D</span>A<span>T</span>E</span><span>:</span></span> WHOA HEY. <a href="http://homestuckgaiden.bandcamp.com/" target="_blank">Check it out. A bunch of guys from the music team put together a sweet Christmas album at breakneck speed!</a> It's quite great, and <span>virtually </span>free. They're giving all the proceeds to charity. NICE JOB DUDES.<br /><br />On the subject of tunes, vol. 6 should be hitting the streets right around new year's, I'm gonna say.<br />
p240
sg205
NstRp241
sg207
g56
((I2010
I12
I25
I8
I2
I18
I5
I359
I0
t(dtRp242
sg209
(lp243
g1
(g2
g3
(dp244
g212
Vhttp://www.mspaintadventures.com?subaction=showfull&id=1293264138&archive=
p245
sg201
g214
sg215
g216
stRp246
asg218
VMerry perpetual 4/13/09
p247
sg220
VSat, 25 Dec 2010 01:02:18 -0700
p248
sg222
g240
sg223
I00
sS'title_detail'
p249
g1
(g2
g3
(dp250
g199
S'http://www.mspaintadventures.com/mspa_cutenews/cutenews/rss.php'
p251
sg201
S'text/plain'
p252
sg203
g247
sg205
NstRp253
sg229
g245
sg230
(lp254
g125
aV*
ag126
ag127
asg232
Vhttp://www.mspaintadventures.com/mspa_cutenews/cutenews/1293264138
p255
stRp256
asS'canto_update'
p257
F1296183867.530906
sS'headers'
p258
(dp259
S'content-length'
p260
S'7799'
p261
sS'x-varnish'
p262
S'2327043767'
p263
sS'x-powered-by'
p264
S'PHP/5.2.6'
p265
sS'age'
p266
S'0'
sS'server'
p267
S'Apache/2.2.8 (Fedora)'
p268
sS'connection'
p269
S'close'
p270
sS'via'
p271
S'1.1 varnish'
p272
sS'date'
p273
S'Thu, 27 Jan 2011 23:18:05 GMT'
p274
sS'content-type'
p275
S'text/xml'
p276
ssg13
S'http://www.mspaintadventures.com/mspa_cutenews/cutenews/rss.php'
p277
sS'version'
p278
S'rss20'
p279
sg72
(lp280
sS'etag'
p281
NsS'namespaces'
p282
(dp283
sS'canto_version'
p284
(I0
I6
I13
tp285
stRp286
.