ccopy_reg
_reconstructor
p1
(cfeedparser
FeedParserDict
p2
c__builtin__
dict
p3
(dp4
S'feed'
p5
g1
(g2
g3
(dp6
S'lastbuilddate'
p7
VMon, 14 Feb 2011 06:52:21 +0000
p8
sS'subtitle'
p9
VYour refuge from productivity
p10
sS'links'
p11
(lp12
g1
(g2
g3
(dp13
S'href'
p14
Vhttp://www.futilitycloset.com
p15
sS'type'
p16
S'text/html'
p17
sS'rel'
p18
S'alternate'
p19
stRp20
ag1
(g2
g3
(dp21
S'href'
p22
Vhttp://feeds.feedburner.com/FutilityCloset
p23
sS'type'
p24
Vapplication/rss+xml
p25
sS'rel'
p26
Vself
p27
stRp28
ag1
(g2
g3
(dp29
S'href'
p30
Vhttp://pubsubhubbub.appspot.com/
p31
sg16
g17
sS'rel'
p32
Vhub
p33
stRp34
ag1
(g2
g3
(dp35
g16
g17
sg18
g19
stRp36
asS'image'
p37
g1
(g2
g3
(dp38
g14
Vhttp://www.feedburner.com/fb/images/pub/fb_pwrd.gif
p39
sS'link'
p40
Vhttp://www.futilitycloset.com/
p41
sS'title'
p42
VFutility Closet
p43
stRp44
sS'generator_detail'
p45
g1
(g2
g3
(dp46
S'name'
p47
Vhttp://wordpress.org/?v=3.0.4
p48
stRp49
sS'feedburner_info'
p50
V
sS'geo_long'
p51
V-78.711619
p52
sg40
g15
sS'info'
p53
VThis is an XML content feed. It is intended to be viewed in a newsreader or syndicated to another site.
p54
sS'generator'
p55
g48
sS'language'
p56
Ven
p57
sg42
VFutility Closet
p58
sS'geo_lat'
p59
V35.899208
p60
sS'subtitle_detail'
p61
g1
(g2
g3
(dp62
S'base'
p63
S'http://feeds.feedburner.com/FutilityCloset'
p64
sg16
S'text/html'
p65
sS'value'
p66
g10
sg56
NstRp67
sS'title_detail'
p68
g1
(g2
g3
(dp69
g63
S'http://feeds.feedburner.com/FutilityCloset'
p70
sg16
S'text/plain'
p71
sg66
g58
sg56
NstRp72
sS'info_detail'
p73
g1
(g2
g3
(dp74
g63
S'http://feeds.feedburner.com/FutilityCloset'
p75
sg16
S'text/plain'
p76
sg66
g54
sg56
NstRp77
sS'sy_updateperiod'
p78
Vhourly
p79
sS'sy_updatefrequency'
p80
V1
stRp81
sS'status'
p82
I200
sS'updated'
p83
ctime
struct_time
p84
((I2011
I2
I14
I10
I51
I14
I0
I45
I0
t(dtRp85
sS'version'
p86
S'atom10'
p87
sS'encoding'
p88
S'UTF-8'
p89
sS'bozo'
p90
I0
sS'canto_version'
p91
(I0
I7
I9
tp92
sS'canto_update'
p93
F1297684103.632513
sS'headers'
p94
(dp95
S'x-xss-protection'
p96
S'1; mode=block'
p97
sS'x-content-type-options'
p98
S'nosniff'
p99
sS'expires'
p100
S'Mon, 14 Feb 2011 11:48:29 GMT'
p101
sS'server'
p102
S'GSE'
p103
sS'last-modified'
p104
S'Mon, 14 Feb 2011 10:51:14 GMT'
p105
sS'connection'
p106
S'close'
p107
sS'etag'
p108
S'qbhUdNKog6c2ju+FLHwSmTlFtpg'
p109
sS'cache-control'
p110
S'private, max-age=0'
p111
sS'date'
p112
S'Mon, 14 Feb 2011 11:48:29 GMT'
p113
sS'content-type'
p114
S'text/xml; charset=UTF-8'
p115
ssS'etag'
p116
g109
sS'canto_state'
p117
(lp118
sg14
S'http://feeds.feedburner.com/FutilityCloset'
p119
sS'namespaces'
p120
(dp121
S''
Vhttp://www.w3.org/2005/Atom
p122
sS'sy'
p123
Vhttp://purl.org/rss/1.0/modules/syndication/
p124
sS'geo'
p125
Vhttp://www.w3.org/2003/01/geo/wgs84_pos#
p126
sS'dc'
p127
Vhttp://purl.org/dc/elements/1.1/
p128
sS'content'
p129
Vhttp://purl.org/rss/1.0/modules/content/
p130
sS'slash'
p131
Vhttp://purl.org/rss/1.0/modules/slash/
p132
sS'feedburner'
p133
Vhttp://rssnamespace.org/feedburner/ext/1.0
p134
sS'wfw'
p135
Vhttp://wellformedweb.org/CommentAPI/
p136
ssS'entries'
p137
(lp138
g1
(g2
g3
(dp139
S'summary_detail'
p140
g1
(g2
g3
(dp141
g63
S'http://feeds.feedburner.com/FutilityCloset'
p142
sg16
S'text/html'
p143
sg66
VMartin Goetze&#8217;s 1896 &#8220;device for producing dimples,&#8221; left, was uncomfortably similar to a hand drill &#8212; an ivory knob was placed on the site and a rotating cylinder made the surrounding skin &#8220;malleable.&#8221; Evangeline Gilbert&#8217;s improvement, right, patented in 1926, was essentially a headpiece that drove depressions into the cheeks. &#8220;The length of time on [...]
p144
sg56
NstRp145
sS'updated_parsed'
p146
g84
((I2011
I2
I14
I6
I52
I21
I0
I45
I0
t(dtRp147
sg11
(lp148
g1
(g2
g3
(dp149
g14
Vhttp://feedproxy.google.com/~r/FutilityCloset/~3/jciKl0xrvJo/
p150
sg16
g17
sg18
g19
stRp151
asS'tags'
p152
(lp153
g1
(g2
g3
(dp154
S'term'
p155
VTechnology
p156
sS'scheme'
p157
NsS'label'
p158
NstRp159
asS'feedburner_origlink'
p160
Vhttp://www.futilitycloset.com/2011/02/14/cute-or-bust/
p161
sg83
VMon, 14 Feb 2011 06:52:21 +0000
p162
sg40
g150
sS'wfw_commentrss'
p163
Vhttp://www.futilitycloset.com/2011/02/14/cute-or-bust/feed/
p164
sS'id'
p165
Vhttp://www.futilitycloset.com/?p=20456
p166
sS'slash_comments'
p167
V0
sg42
VCute or Bust
p168
sS'author'
p169
VGreg Ross
p170
sS'comments'
p171
Vhttp://www.futilitycloset.com/2011/02/14/cute-or-bust/#comments
p172
sS'summary'
p173
g144
sg129
(lp174
g1
(g2
g3
(dp175
g63
S'http://feeds.feedburner.com/FutilityCloset'
p176
sg16
S'text/html'
p177
sg66
V<p><img src="http://www.futilitycloset.com/wp-content/uploads/2011/02/2011-02-14-cute-or-bust.png" alt="http://www.google.com/patents/about?id=jk1aAAAAEBAJ&dq=goetze+dimples" title="2011-02-14-cute-or-bust" width="500" height="328" class="alignnone size-full wp-image-20457" /></p>\u000a<p>Martin Goetze&#8217;s 1896 &#8220;device for producing dimples,&#8221; left, was uncomfortably similar to a hand drill &#8212; an ivory knob was placed on the site and a rotating cylinder made the surrounding skin &#8220;malleable.&#8221;</p>\u000a<p>Evangeline Gilbert&#8217;s improvement, right, patented in 1926, was essentially a headpiece that drove depressions into the cheeks. &#8220;The length of time on this pressure will vary with different persons, but it has been found that, if the appliance be used during the night, dimples will be present during the next day.&#8221;</p>\u000a<p>Baltasar Gracian wrote, &#8220;Beauty and folly are generally companions.&#8221;</p>\u000a\u000a<p><a href="http://feedads.g.doubleclick.net/~a/hH7AeK7-2H6N2AUoP78oaBy6FNI/0/da"><img src="http://feedads.g.doubleclick.net/~a/hH7AeK7-2H6N2AUoP78oaBy6FNI/0/di" border="0" ismap="true" /></a><br />\u000a<a href="http://feedads.g.doubleclick.net/~a/hH7AeK7-2H6N2AUoP78oaBy6FNI/1/da"><img src="http://feedads.g.doubleclick.net/~a/hH7AeK7-2H6N2AUoP78oaBy6FNI/1/di" border="0" ismap="true" /></a></p><img src="http://feeds.feedburner.com/~r/FutilityCloset/~4/jciKl0xrvJo" height="1" width="1" />
p178
sg56
NstRp179
asS'guidislink'
p180
I00
sS'title_detail'
p181
g1
(g2
g3
(dp182
g63
S'http://feeds.feedburner.com/FutilityCloset'
p183
sg16
S'text/plain'
p184
sg66
g168
sg56
NstRp185
sg117
(lp186
VFutility Closet
p187
aV*
aS'read'
p188
astRp189
ag1
(g2
g3
(dp190
S'summary_detail'
p191
g1
(g2
g3
(dp192
g63
S'http://feeds.feedburner.com/FutilityCloset'
p193
sg16
S'text/html'
p194
sg66
VComparative popularity of British novelists at the end of the 19th century, from Strand, August 1906. The giant is Dickens, followed by Thackeray and the now largely forgotten Hall Caine. Lesser mortals, left to right, are Thomas Hardy, Mary Elizabeth Braddon, Marie Corelli, Rudyard Kipling, Mary Augusta Ward, J.M. Barrie, Arthur Conan Doyle, Stanley Weyman, [...]
p195
sg56
NstRp196
sg146
g84
((I2011
I2
I13
I22
I20
I22
I6
I44
I0
t(dtRp197
sg11
(lp198
g1
(g2
g3
(dp199
g14
Vhttp://feedproxy.google.com/~r/FutilityCloset/~3/2L3Vxd3t6gQ/
p200
sg16
g17
sg18
g19
stRp201
asg152
(lp202
g1
(g2
g3
(dp203
g155
VLiterature
p204
sg157
Nsg158
NstRp205
asS'feedburner_origlink'
p206
Vhttp://www.futilitycloset.com/2011/02/13/literary-stature/
p207
sg83
VSun, 13 Feb 2011 22:20:22 +0000
p208
sg40
g200
sS'wfw_commentrss'
p209
Vhttp://www.futilitycloset.com/2011/02/13/literary-stature/feed/
p210
sg165
Vhttp://www.futilitycloset.com/?p=20399
p211
sS'slash_comments'
p212
V0
sg42
VLiterary Stature
p213
sg169
VGreg Ross
p214
sS'comments'
p215
Vhttp://www.futilitycloset.com/2011/02/13/literary-stature/#comments
p216
sg173
g195
sg129
(lp217
g1
(g2
g3
(dp218
g63
S'http://feeds.feedburner.com/FutilityCloset'
p219
sg16
S'text/html'
p220
sg66
V<p><img src="http://www.futilitycloset.com/wp-content/uploads/2011/02/2011-02-10-literary-stature.jpg" alt="http://books.google.com/books?id=TbUvAAAAMAAJ&printsec=frontcover&rview=1#v=onepage&q&f=false" title="2011-02-10-literary-stature" width="500" height="437" class="alignnone size-full wp-image-20400" /></p>\u000a<p>Comparative popularity of British novelists at the end of the 19th century, from <em>Strand</em>, August 1906. The giant is Dickens, followed by Thackeray and the now largely forgotten Hall Caine. Lesser mortals, left to right, are Thomas Hardy, Mary Elizabeth Braddon, Marie Corelli, Rudyard Kipling, Mary Augusta Ward, J.M. Barrie, Arthur Conan Doyle, Stanley Weyman, Robert Louis Stevenson, Walter Scott, Henry James, Charlotte Bront&#235;, George Meredith, Anthony Trollope, Charles Kingsley, Edward Bulwer-Lytton, Israel Zangwill, Charles Reade, and E.F. Benson.</p>\u000a<p>&#8220;It should be pointed out that this diagram does not pretend to apportion the degree of contemporary literary reputations. It only shows what kind of fiction has been most read by the masses during the past twenty years.&#8221;</p>\u000a\u000a<p><a href="http://feedads.g.doubleclick.net/~a/HLMKAa2oZSXEFPxhIWHi3WpIjt8/0/da"><img src="http://feedads.g.doubleclick.net/~a/HLMKAa2oZSXEFPxhIWHi3WpIjt8/0/di" border="0" ismap="true" /></a><br />\u000a<a href="http://feedads.g.doubleclick.net/~a/HLMKAa2oZSXEFPxhIWHi3WpIjt8/1/da"><img src="http://feedads.g.doubleclick.net/~a/HLMKAa2oZSXEFPxhIWHi3WpIjt8/1/di" border="0" ismap="true" /></a></p><img src="http://feeds.feedburner.com/~r/FutilityCloset/~4/2L3Vxd3t6gQ" height="1" width="1" />
p221
sg56
NstRp222
asg180
I00
sS'title_detail'
p223
g1
(g2
g3
(dp224
g63
S'http://feeds.feedburner.com/FutilityCloset'
p225
sg16
S'text/plain'
p226
sg66
g213
sg56
NstRp227
sg117
(lp228
VFutility Closet
p229
aV*
aS'read'
p230
astRp231
ag1
(g2
g3
(dp232
S'summary_detail'
p233
g1
(g2
g3
(dp234
g63
S'http://feeds.feedburner.com/FutilityCloset'
p235
sg16
S'text/html'
p236
sg66
Vpregustation n. the act of tasting before another On June 21, 1931, a brace of partridges was ordered from a poulterer at Aldershot, Hampshire, for delivery to the nearby bungalow of Lt. Hubert Chevis. A cook stored them in an open meat safe outside the building, then roasted them and served them to Chevis and [...]
p237
sg56
NstRp238
sg146
g84
((I2011
I2
I13
I14
I5
I4
I6
I44
I0
t(dtRp239
sg11
(lp240
g1
(g2
g3
(dp241
g14
Vhttp://feedproxy.google.com/~r/FutilityCloset/~3/jY6N7NFeREU/
p242
sg16
g17
sg18
g19
stRp243
asg152
(lp244
g1
(g2
g3
(dp245
g155
VCrime
p246
sg157
Nsg158
NstRp247
ag1
(g2
g3
(dp248
g155
VLanguage
p249
sg157
Nsg158
NstRp250
asS'feedburner_origlink'
p251
Vhttp://www.futilitycloset.com/2011/02/13/in-a-word-306/
p252
sg83
VSun, 13 Feb 2011 14:05:04 +0000
p253
sg40
g242
sS'wfw_commentrss'
p254
Vhttp://www.futilitycloset.com/2011/02/13/in-a-word-306/feed/
p255
sg165
Vhttp://www.futilitycloset.com/?p=20428
p256
sS'slash_comments'
p257
V0
sg42
VIn a Word
p258
sg169
VGreg Ross
p259
sS'comments'
p260
Vhttp://www.futilitycloset.com/2011/02/13/in-a-word-306/#comments
p261
sg173
g237
sg129
(lp262
g1
(g2
g3
(dp263
g63
S'http://feeds.feedburner.com/FutilityCloset'
p264
sg16
S'text/html'
p265
sg66
V<p>pregustation<br />\u000an. the act of tasting before another</p>\u000a<p>On June 21, 1931, a brace of partridges was ordered from a poulterer at Aldershot, Hampshire, for delivery to the nearby bungalow of Lt. Hubert Chevis. A cook stored them in an open meat safe outside the building, then roasted them and served them to Chevis and his wife.</p>\u000a<p>Chevis took one mouthful and said, &#8220;It tastes horrible!&#8221; His wife touched it with her tongue and pronounced it &#8220;fusty.&#8221; Both were taken ill within minutes, and Chevis died of strychnine poisoning early the following morning.</p>\u000a<p>On the day of Chevis&#8217; funeral, and before any story had appeared in the press, his father received a telegram that read &#8220;HOORAY. HOORAY. HOORAY.&#8221; The form had been signed with the name Hartigan and the address of a Dublin hotel, but no one by that name was found there.</p>\u000a<p>When the <em>Daily Sketch</em> published a photograph of this telegram on Aug. 1, the editor received a postcard:</p>\u000a<p>Dear Sir,<br />\u000aWhy do you publish the picture of the Hooray telegram.<br />\u000aJ. HARTIGAN</p>\u000a<p>And Chevis&#8217; father received a further postcard on Aug. 4:</p>\u000a<p>It is a mystery they will never solve. Hooray.<br />\u000aJ. HARTIGAN</p>\u000a<p>He was right. Someone had found an opportunity to poison the birds between their arrival in a locked van and their being served, but Chevis had no known enemies and no one recognized the name Hartigan. The case has never been solved.</p>\u000a\u000a<p><a href="http://feedads.g.doubleclick.net/~a/UTaeb7wYwthqyGkJX0RmtAV67PM/0/da"><img src="http://feedads.g.doubleclick.net/~a/UTaeb7wYwthqyGkJX0RmtAV67PM/0/di" border="0" ismap="true" /></a><br />\u000a<a href="http://feedads.g.doubleclick.net/~a/UTaeb7wYwthqyGkJX0RmtAV67PM/1/da"><img src="http://feedads.g.doubleclick.net/~a/UTaeb7wYwthqyGkJX0RmtAV67PM/1/di" border="0" ismap="true" /></a></p><img src="http://feeds.feedburner.com/~r/FutilityCloset/~4/jY6N7NFeREU" height="1" width="1" />
p266
sg56
NstRp267
asg180
I00
sS'title_detail'
p268
g1
(g2
g3
(dp269
g63
S'http://feeds.feedburner.com/FutilityCloset'
p270
sg16
S'text/plain'
p271
sg66
g258
sg56
NstRp272
sg117
(lp273
VFutility Closet
p274
aV*
aS'read'
p275
astRp276
ag1
(g2
g3
(dp277
S'summary_detail'
p278
g1
(g2
g3
(dp279
g63
S'http://feeds.feedburner.com/FutilityCloset'
p280
sg16
S'text/html'
p281
sg66
VOn a Canadian speaking tour, Winston Churchill found himself sitting next to a Methodist bishop. A young waitress offered each of them a glass of sherry. Churchill accepted his, but the bishop said, &#8220;Young lady, I&#8217;d rather commit adultery than take an intoxicating beverage.&#8221; Churchill said, &#8220;Come back, lassie, I didn&#8217;t know we had a [...]
p282
sg56
NstRp283
sg146
g84
((I2011
I2
I13
I6
I30
I57
I6
I44
I0
t(dtRp284
sg11
(lp285
g1
(g2
g3
(dp286
g14
Vhttp://feedproxy.google.com/~r/FutilityCloset/~3/5-U3WNNwgQA/
p287
sg16
g17
sg18
g19
stRp288
asg152
(lp289
g1
(g2
g3
(dp290
g155
VHistory
p291
sg157
Nsg158
NstRp292
asS'feedburner_origlink'
p293
Vhttp://www.futilitycloset.com/2011/02/13/off-the-menu/
p294
sg83
VSun, 13 Feb 2011 06:30:57 +0000
p295
sg40
g287
sS'wfw_commentrss'
p296
Vhttp://www.futilitycloset.com/2011/02/13/off-the-menu/feed/
p297
sg165
Vhttp://www.futilitycloset.com/?p=20422
p298
sS'slash_comments'
p299
V0
sg42
VOff the Menu
p300
sg169
VGreg Ross
p301
sS'comments'
p302
Vhttp://www.futilitycloset.com/2011/02/13/off-the-menu/#comments
p303
sg173
g282
sg129
(lp304
g1
(g2
g3
(dp305
g63
S'http://feeds.feedburner.com/FutilityCloset'
p306
sg16
S'text/html'
p307
sg66
V<p>On a Canadian speaking tour, Winston Churchill found himself sitting next to a Methodist bishop.</p>\u000a<p>A young waitress offered each of them a glass of sherry.</p>\u000a<p>Churchill accepted his, but the bishop said, &#8220;Young lady, I&#8217;d rather commit adultery than take an intoxicating beverage.&#8221;</p>\u000a<p>Churchill said, &#8220;Come back, lassie, I didn&#8217;t know we had a choice!&#8221;</p>\u000a\u000a<p><a href="http://feedads.g.doubleclick.net/~a/WO2uR3G79IP6c3ylKoLWk8ktPdk/0/da"><img src="http://feedads.g.doubleclick.net/~a/WO2uR3G79IP6c3ylKoLWk8ktPdk/0/di" border="0" ismap="true" /></a><br />\u000a<a href="http://feedads.g.doubleclick.net/~a/WO2uR3G79IP6c3ylKoLWk8ktPdk/1/da"><img src="http://feedads.g.doubleclick.net/~a/WO2uR3G79IP6c3ylKoLWk8ktPdk/1/di" border="0" ismap="true" /></a></p><img src="http://feeds.feedburner.com/~r/FutilityCloset/~4/5-U3WNNwgQA" height="1" width="1" />
p308
sg56
NstRp309
asg180
I00
sS'title_detail'
p310
g1
(g2
g3
(dp311
g63
S'http://feeds.feedburner.com/FutilityCloset'
p312
sg16
S'text/plain'
p313
sg66
g300
sg56
NstRp314
sg117
(lp315
VFutility Closet
p316
aV*
aS'read'
p317
astRp318
ag1
(g2
g3
(dp319
S'summary_detail'
p320
g1
(g2
g3
(dp321
g63
S'http://feeds.feedburner.com/FutilityCloset'
p322
sg16
S'text/html'
p323
sg66
V
sg56
NstRp324
sg146
g84
((I2011
I2
I12
I22
I29
I39
I5
I43
I0
t(dtRp325
sg11
(lp326
g1
(g2
g3
(dp327
g14
Vhttp://feedproxy.google.com/~r/FutilityCloset/~3/W18DAr63ZxQ/
p328
sg16
g17
sg18
g19
stRp329
asg152
(lp330
g1
(g2
g3
(dp331
g155
VScience & Math
p332
sg157
Nsg158
NstRp333
asS'feedburner_origlink'
p334
Vhttp://www.futilitycloset.com/2011/02/12/math-notes-86/
p335
sg83
VSat, 12 Feb 2011 22:29:39 +0000
p336
sg40
g328
sS'wfw_commentrss'
p337
Vhttp://www.futilitycloset.com/2011/02/12/math-notes-86/feed/
p338
sg165
Vhttp://www.futilitycloset.com/?p=20418
p339
sS'slash_comments'
p340
V0
sg42
VMath Notes
p341
sg169
VGreg Ross
p342
sS'comments'
p343
Vhttp://www.futilitycloset.com/2011/02/12/math-notes-86/#comments
p344
sg173
V
sg129
(lp345
g1
(g2
g3
(dp346
g63
S'http://feeds.feedburner.com/FutilityCloset'
p347
sg16
S'text/html'
p348
sg66
V<p><img src="http://www.futilitycloset.com/wp-content/uploads/2011/02/2011-02-12-math-notes.png" alt="kordemsky multigrade" title="2011-02-12-math-notes" width="609" height="102" class="aligncenter size-full wp-image-20419" /></p>\u000a\u000a<p><a href="http://feedads.g.doubleclick.net/~a/U9FuLYqP15e5qPzuqAGUY8KHZcQ/0/da"><img src="http://feedads.g.doubleclick.net/~a/U9FuLYqP15e5qPzuqAGUY8KHZcQ/0/di" border="0" ismap="true" /></a><br />\u000a<a href="http://feedads.g.doubleclick.net/~a/U9FuLYqP15e5qPzuqAGUY8KHZcQ/1/da"><img src="http://feedads.g.doubleclick.net/~a/U9FuLYqP15e5qPzuqAGUY8KHZcQ/1/di" border="0" ismap="true" /></a></p><img src="http://feeds.feedburner.com/~r/FutilityCloset/~4/W18DAr63ZxQ" height="1" width="1" />
p349
sg56
NstRp350
asg180
I00
sS'title_detail'
p351
g1
(g2
g3
(dp352
g63
S'http://feeds.feedburner.com/FutilityCloset'
p353
sg16
S'text/plain'
p354
sg66
g341
sg56
NstRp355
sg117
(lp356
g316
aV*
ag317
astRp357
ag1
(g2
g3
(dp358
S'summary_detail'
p359
g1
(g2
g3
(dp360
g63
S'http://feeds.feedburner.com/FutilityCloset'
p361
sg16
S'text/html'
p362
sg66
VThe following story has been told, but I have not met with it in its absolute correctness. The Duke of Wellington received a letter, while sitting in the House of Lords, from an eminent landscape designer and great authority on botanical matters, J.C. Loudon. The duke had lost sight of him for some years. It [...]
p363
sg56
NstRp364
sg146
g84
((I2011
I2
I12
I14
I28
I59
I5
I43
I0
t(dtRp365
sg11
(lp366
g1
(g2
g3
(dp367
g14
Vhttp://feedproxy.google.com/~r/FutilityCloset/~3/9N-joLwv3ys/
p368
sg16
g17
sg18
g19
stRp369
asg152
(lp370
g1
(g2
g3
(dp371
g155
VHumor
p372
sg157
Nsg158
NstRp373
asS'feedburner_origlink'
p374
Vhttp://www.futilitycloset.com/2011/02/12/church-pants/
p375
sg83
VSat, 12 Feb 2011 14:28:59 +0000
p376
sg40
g368
sS'wfw_commentrss'
p377
Vhttp://www.futilitycloset.com/2011/02/12/church-pants/feed/
p378
sg165
Vhttp://www.futilitycloset.com/?p=20416
p379
sS'slash_comments'
p380
V0
sg42
VChurch Pants
p381
sg169
VGreg Ross
p382
sS'comments'
p383
Vhttp://www.futilitycloset.com/2011/02/12/church-pants/#comments
p384
sg173
g363
sg129
(lp385
g1
(g2
g3
(dp386
g63
S'http://feeds.feedburner.com/FutilityCloset'
p387
sg16
S'text/html'
p388
sg66
V<blockquote><p>\u000aThe following story has been told, but I have not met with it in its absolute correctness. The Duke of Wellington received a letter, while sitting in the House of Lords, from an eminent landscape designer and great authority on botanical matters, J.C. Loudon. The duke had lost sight of him for some years. It was a note to this effect: &#8216;My Lord Duke&#8211;It would gratify me extremely if you would permit me to visit Strathfieldsaye at any time convenient to your grace, and to inspect the Waterloo beeches. Your grace&#8217;s faithful servant, J.C. Loudon.&#8217; The Waterloo beeches were trees that had been planted immediately after the battle of Waterloo, as a memorial of the great fight. The duke read the letter twice, the writing of which was not very clear, and, with his usual promptness and politeness, replied as follows, having read the signature as &#8216;J.C. London,&#8217; instead of &#8216;J.C. Loudon.&#8217; &#8216;My dear Bishop of London&#8211;It will always give me great pleasure to see you at Strathfieldsaye. Pray come there whenever it suits your convenience, whether I am at home or not. My servant will receive orders to show you as many pairs of my breeches as you may wish, but why you should wish to inspect those I wore at the battle of Waterloo is quite beyond the comprehension of Yours most truly, Wellington.&#8217; The letter was received, as may be supposed, with great surprise by the Bishop of London. He showed it to the Archbishop of Canterbury and to other discreet persons; they came to the melancholy conclusion that the great Duke of Wellington had evidently lost his senses. The Bishop of London (Blomfield) declared that he had not written to the duke for two years and to receive this extraordinary intimation puzzled the whole bench of bishops. Explanations, however, of a satisfactory kind, followed and the friendship of these worthy men was not changed.\u000a</p></blockquote>\u000a<p>&#8211; William Augustus Fraser, quoted in <em>Wit, Wisdom and Foibles of the Great</em>, 1918</p>\u000a\u000a<p><a href="http://feedads.g.doubleclick.net/~a/Gf7tk9UCsiNt9HKzj83Mqjta6FY/0/da"><img src="http://feedads.g.doubleclick.net/~a/Gf7tk9UCsiNt9HKzj83Mqjta6FY/0/di" border="0" ismap="true" /></a><br />\u000a<a href="http://feedads.g.doubleclick.net/~a/Gf7tk9UCsiNt9HKzj83Mqjta6FY/1/da"><img src="http://feedads.g.doubleclick.net/~a/Gf7tk9UCsiNt9HKzj83Mqjta6FY/1/di" border="0" ismap="true" /></a></p><img src="http://feeds.feedburner.com/~r/FutilityCloset/~4/9N-joLwv3ys" height="1" width="1" />
p389
sg56
NstRp390
asg180
I00
sS'title_detail'
p391
g1
(g2
g3
(dp392
g63
S'http://feeds.feedburner.com/FutilityCloset'
p393
sg16
S'text/plain'
p394
sg66
g381
sg56
NstRp395
sg117
(lp396
VFutility Closet
p397
aV*
aS'read'
p398
astRp399
ag1
(g2
g3
(dp400
S'summary_detail'
p401
g1
(g2
g3
(dp402
g63
S'http://feeds.feedburner.com/FutilityCloset'
p403
sg16
S'text/html'
p404
sg66
VPhysicists Chen Ning Yang and Tsung-Dao Lee used to discuss their work over lunch at a Chinese restaurant on 125th Street in Manhattan. One day they made an important insight into parity violation, and the two received the 1957 Nobel Prize in physics. After the award was announced, one of them noticed a sign in [...]
p405
sg56
NstRp406
sg146
g84
((I2011
I2
I12
I6
I59
I9
I5
I43
I0
t(dtRp407
sg11
(lp408
g1
(g2
g3
(dp409
g14
Vhttp://feedproxy.google.com/~r/FutilityCloset/~3/XNaqiS5KDoM/
p410
sg16
g17
sg18
g19
stRp411
asg152
(lp412
g1
(g2
g3
(dp413
g155
VScience & Math
p414
sg157
Nsg158
NstRp415
ag1
(g2
g3
(dp416
g155
VSociety
p417
sg157
Nsg158
NstRp418
asS'feedburner_origlink'
p419
Vhttp://www.futilitycloset.com/2011/02/12/street-marketing/
p420
sg83
VSat, 12 Feb 2011 06:59:09 +0000
p421
sg40
g410
sS'wfw_commentrss'
p422
Vhttp://www.futilitycloset.com/2011/02/12/street-marketing/feed/
p423
sg165
Vhttp://www.futilitycloset.com/?p=20425
p424
sS'slash_comments'
p425
V0
sg42
VStreet Marketing
p426
sg169
VGreg Ross
p427
sS'comments'
p428
Vhttp://www.futilitycloset.com/2011/02/12/street-marketing/#comments
p429
sg173
g405
sg129
(lp430
g1
(g2
g3
(dp431
g63
S'http://feeds.feedburner.com/FutilityCloset'
p432
sg16
S'text/html'
p433
sg66
V<p>Physicists Chen Ning Yang and Tsung-Dao Lee used to discuss their work over lunch at a Chinese restaurant on 125th Street in Manhattan. One day they made an important insight into parity violation, and the two received the 1957 Nobel Prize in physics.</p>\u000a<p>After the award was announced, one of them noticed a sign in the restaurant window: &#8220;Eat here, get Nobel Prize.&#8221;</p>\u000a\u000a<p><a href="http://feedads.g.doubleclick.net/~a/T-M6AlzyEUp1jiq8yiZ-yh1MPAU/0/da"><img src="http://feedads.g.doubleclick.net/~a/T-M6AlzyEUp1jiq8yiZ-yh1MPAU/0/di" border="0" ismap="true" /></a><br />\u000a<a href="http://feedads.g.doubleclick.net/~a/T-M6AlzyEUp1jiq8yiZ-yh1MPAU/1/da"><img src="http://feedads.g.doubleclick.net/~a/T-M6AlzyEUp1jiq8yiZ-yh1MPAU/1/di" border="0" ismap="true" /></a></p><img src="http://feeds.feedburner.com/~r/FutilityCloset/~4/XNaqiS5KDoM" height="1" width="1" />
p434
sg56
NstRp435
asg180
I00
sS'title_detail'
p436
g1
(g2
g3
(dp437
g63
S'http://feeds.feedburner.com/FutilityCloset'
p438
sg16
S'text/plain'
p439
sg66
g426
sg56
NstRp440
sg117
(lp441
g397
aV*
ag398
astRp442
ag1
(g2
g3
(dp443
S'summary_detail'
p444
g1
(g2
g3
(dp445
g63
S'http://feeds.feedburner.com/FutilityCloset'
p446
sg16
S'text/html'
p447
sg66
VOn Oct. 15, 1856, the London Times published an alarming account of a rail journey in Georgia &#8212; the author, &#8220;John Arrowsmith of Liverpool,&#8221; claimed that half a dozen duels had broken out during a single day&#8217;s ride: Of the two dozen passengers fifteen are mentioned as entering more or less into the action of [...]
p448
sg56
NstRp449
sg146
g84
((I2011
I2
I11
I22
I27
I48
I4
I42
I0
t(dtRp450
sg11
(lp451
g1
(g2
g3
(dp452
g14
Vhttp://feedproxy.google.com/~r/FutilityCloset/~3/-SS-er6U9FM/
p453
sg16
g17
sg18
g19
stRp454
asg152
(lp455
g1
(g2
g3
(dp456
g155
VHoaxes
p457
sg157
Nsg158
NstRp458
asS'feedburner_origlink'
p459
Vhttp://www.futilitycloset.com/2011/02/11/bullet-train/
p460
sg83
VFri, 11 Feb 2011 22:27:48 +0000
p461
sg40
g453
sS'wfw_commentrss'
p462
Vhttp://www.futilitycloset.com/2011/02/11/bullet-train/feed/
p463
sg165
Vhttp://www.futilitycloset.com/?p=20413
p464
sS'slash_comments'
p465
V0
sg42
VBullet Train
p466
sg169
VGreg Ross
p467
sS'comments'
p468
Vhttp://www.futilitycloset.com/2011/02/11/bullet-train/#comments
p469
sg173
g448
sg129
(lp470
g1
(g2
g3
(dp471
g63
S'http://feeds.feedburner.com/FutilityCloset'
p472
sg16
S'text/html'
p473
sg66
V<p><img src="http://www.futilitycloset.com/wp-content/uploads/2011/02/2011-02-11-bullet-train.jpg" alt="http://commons.wikimedia.org/wiki/File:Edward_Lamson_Henry_-_The_945_Accommodation.JPG" title="2011-02-11-bullet-train" width="500" height="259" class="alignnone size-full wp-image-20414" /></p>\u000a<p>On Oct. 15, 1856, the <em>London Times</em> published an alarming account of a rail journey in Georgia &#8212; the author, &#8220;John Arrowsmith of Liverpool,&#8221; claimed that half a dozen duels had broken out during a single day&#8217;s ride:</p>\u000a<blockquote><p>\u000aOf the two dozen passengers fifteen are mentioned as entering more or less into the action of the drama; twelve took a direct part in duels; six were killed, and three were left on the way fighting. Four of the duels were fought at convenient spots, the train stopping for the purpose; one was fought in the luggage car while the train was in motion; and the one with uncertain results was fought at a regular stopping place. Three of the dead bodies were left behind; one was carried from the scene of the duel and deposited on the luggage; another lay where it fell in the luggage car; another was throw out on the roadside.\u000a</p></blockquote>\u000a<p>After a torrent of ridicule from the American press, the retraction-shy <em>Times</em> tried to claim that the affair had taken place in 1828 &#8212; but that was &#8220;some dozen years,&#8221; one critic noted, &#8220;before the erection of a railroad in Georgia, or the invention of revolvers, the terrible weapons used upon the sanguinary occasion.&#8221; The hoaxer was never identified.</p>\u000a\u000a<p><a href="http://feedads.g.doubleclick.net/~a/3uhtoLrwr3CkRU_4FqRHlwYlKSo/0/da"><img src="http://feedads.g.doubleclick.net/~a/3uhtoLrwr3CkRU_4FqRHlwYlKSo/0/di" border="0" ismap="true" /></a><br />\u000a<a href="http://feedads.g.doubleclick.net/~a/3uhtoLrwr3CkRU_4FqRHlwYlKSo/1/da"><img src="http://feedads.g.doubleclick.net/~a/3uhtoLrwr3CkRU_4FqRHlwYlKSo/1/di" border="0" ismap="true" /></a></p><img src="http://feeds.feedburner.com/~r/FutilityCloset/~4/-SS-er6U9FM" height="1" width="1" />
p474
sg56
NstRp475
asg180
I00
sS'title_detail'
p476
g1
(g2
g3
(dp477
g63
S'http://feeds.feedburner.com/FutilityCloset'
p478
sg16
S'text/plain'
p479
sg66
g466
sg56
NstRp480
sg117
(lp481
VFutility Closet
p482
aV*
aS'read'
p483
astRp484
ag1
(g2
g3
(dp485
S'summary_detail'
p486
g1
(g2
g3
(dp487
g63
S'http://feeds.feedburner.com/FutilityCloset'
p488
sg16
S'text/html'
p489
sg66
VAs Britain prepared for World War I, officers were required to have their swords sharpened. Wordsworth&#8217;s &#8220;The Rainbow&#8221; has an average word length of 3.08 letters. sin 10&#176; &#215; sin 50&#176; &#215; sin 70&#176; = 1/8 WILLIAM SHAKESPEARE = I SWEAR HE&#8217;S LIKE A LAMP &#8220;I have always thought that every woman should marry, and [...]
p490
sg56
NstRp491
sg146
g84
((I2011
I2
I11
I14
I26
I43
I4
I42
I0
t(dtRp492
sg11
(lp493
g1
(g2
g3
(dp494
g14
Vhttp://feedproxy.google.com/~r/FutilityCloset/~3/ACfwbUOK-5w/
p495
sg16
g17
sg18
g19
stRp496
asg152
(lp497
g1
(g2
g3
(dp498
g155
VHistory
p499
sg157
Nsg158
NstRp500
ag1
(g2
g3
(dp501
g155
VLanguage
p502
sg157
Nsg158
NstRp503
ag1
(g2
g3
(dp504
g155
VPoems
p505
sg157
Nsg158
NstRp506
ag1
(g2
g3
(dp507
g155
VScience & Math
p508
sg157
Nsg158
NstRp509
ag1
(g2
g3
(dp510
g155
VSociety
p511
sg157
Nsg158
NstRp512
asS'feedburner_origlink'
p513
Vhttp://www.futilitycloset.com/2011/02/11/misc-21/
p514
sg83
VFri, 11 Feb 2011 14:26:43 +0000
p515
sg40
g495
sS'wfw_commentrss'
p516
Vhttp://www.futilitycloset.com/2011/02/11/misc-21/feed/
p517
sg165
Vhttp://www.futilitycloset.com/?p=20410
p518
sS'slash_comments'
p519
V0
sg42
VMisc
p520
sg169
VGreg Ross
p521
sS'comments'
p522
Vhttp://www.futilitycloset.com/2011/02/11/misc-21/#comments
p523
sg173
g490
sg129
(lp524
g1
(g2
g3
(dp525
g63
S'http://feeds.feedburner.com/FutilityCloset'
p526
sg16
S'text/html'
p527
sg66
V<ul>\u000a<li>As Britain prepared for World War I, officers were required to have their swords sharpened.</li>\u000a<li>Wordsworth&#8217;s &#8220;The Rainbow&#8221; has an average word length of 3.08 letters.</li>\u000a<li>sin 10&#176; &#215; sin 50&#176; &#215; sin 70&#176; = 1/8</li>\u000a<li>WILLIAM SHAKESPEARE = I SWEAR HE&#8217;S LIKE A LAMP</li>\u000a<li>&#8220;I have always thought that every woman should marry, and no man.&#8221; &#8212; Benjamin Disraeli</li>\u000a</ul>\u000a\u000a<p><a href="http://feedads.g.doubleclick.net/~a/u3P_UYydQt57Y1zI11nOA6kYWYE/0/da"><img src="http://feedads.g.doubleclick.net/~a/u3P_UYydQt57Y1zI11nOA6kYWYE/0/di" border="0" ismap="true" /></a><br />\u000a<a href="http://feedads.g.doubleclick.net/~a/u3P_UYydQt57Y1zI11nOA6kYWYE/1/da"><img src="http://feedads.g.doubleclick.net/~a/u3P_UYydQt57Y1zI11nOA6kYWYE/1/di" border="0" ismap="true" /></a></p><img src="http://feeds.feedburner.com/~r/FutilityCloset/~4/ACfwbUOK-5w" height="1" width="1" />
p528
sg56
NstRp529
asg180
I00
sS'title_detail'
p530
g1
(g2
g3
(dp531
g63
S'http://feeds.feedburner.com/FutilityCloset'
p532
sg16
S'text/plain'
p533
sg66
g520
sg56
NstRp534
sg117
(lp535
VFutility Closet
p536
aV*
aS'read'
p537
astRp538
ag1
(g2
g3
(dp539
S'summary_detail'
p540
g1
(g2
g3
(dp541
g63
S'http://feeds.feedburner.com/FutilityCloset'
p542
sg16
S'text/html'
p543
sg66
VDisused words from Samuel Johnson&#8217;s 1755 Dictionary of the English Language: figure-flinger: a pretender to astrology and prediction pissburnt: stained with urine blinkard: one that has bad eyes centuriator: a name given to historians, who distinguish times by centuries longimanous: long-handed; having long hands candlewaster: that which consumes candles; a spendthrift carecrazed: broken with care [...]
p544
sg56
NstRp545
sg146
g84
((I2011
I2
I11
I6
I17
I25
I4
I42
I0
t(dtRp546
sg11
(lp547
g1
(g2
g3
(dp548
g14
Vhttp://feedproxy.google.com/~r/FutilityCloset/~3/AEJ7eLvrQA8/
p549
sg16
g17
sg18
g19
stRp550
asg152
(lp551
g1
(g2
g3
(dp552
g155
VLanguage
p553
sg157
Nsg158
NstRp554
asS'feedburner_origlink'
p555
Vhttp://www.futilitycloset.com/2011/02/11/terms-past/
p556
sg83
VFri, 11 Feb 2011 06:17:25 +0000
p557
sg40
g549
sS'wfw_commentrss'
p558
Vhttp://www.futilitycloset.com/2011/02/11/terms-past/feed/
p559
sg165
Vhttp://www.futilitycloset.com/?p=20392
p560
sS'slash_comments'
p561
V0
sg42
VTerms Past
p562
sg169
VGreg Ross
p563
sS'comments'
p564
Vhttp://www.futilitycloset.com/2011/02/11/terms-past/#comments
p565
sg173
g544
sg129
(lp566
g1
(g2
g3
(dp567
g63
S'http://feeds.feedburner.com/FutilityCloset'
p568
sg16
S'text/html'
p569
sg66
V<p>Disused words from Samuel Johnson&#8217;s 1755 <em>Dictionary of the English Language</em>:</p>\u000a<ul>\u000a<li><em>figure-flinger</em>: a pretender to astrology and prediction</li>\u000a<li><em>pissburnt</em>: stained with urine</li>\u000a<li><em>blinkard</em>: one that has bad eyes</li>\u000a<li><em>centuriator</em>: a name given to historians, who distinguish times by centuries</li>\u000a<li><em>longimanous</em>: long-handed; having long hands</li>\u000a<li><em>candlewaster</em>: that which consumes candles; a spendthrift</li>\u000a<li><em>carecrazed</em>: broken with care and solicitude</li>\u000a<li><em>overyeared</em>: too old</li>\u000a<li><em>scarefire</em>: a fright by fire; a fire breaking out so as to raise terror</li>\u000a<li><em>traveltainted</em>: harrassed; fatigued with travel</li>\u000a<li><em>vowfellow</em>: one bound by the same vow</li>\u000a</ul>\u000a<p>&#8220;Those who have been persuaded to think well of my design, require that it should fix our language, and put a stop to those alterations which time and chance have hitherto been suffered to make in it without opposition,&#8221; he had written in the preface. &#8220;[But] when we see men grow old and die at a certain time one after another, from century to century, we laugh at the elixir that promises to prolong life to a thousand years.&#8221;</p>\u000a\u000a<p><a href="http://feedads.g.doubleclick.net/~a/1kJ5F7PXqlaoswatG5UHfFNLEEw/0/da"><img src="http://feedads.g.doubleclick.net/~a/1kJ5F7PXqlaoswatG5UHfFNLEEw/0/di" border="0" ismap="true" /></a><br />\u000a<a href="http://feedads.g.doubleclick.net/~a/1kJ5F7PXqlaoswatG5UHfFNLEEw/1/da"><img src="http://feedads.g.doubleclick.net/~a/1kJ5F7PXqlaoswatG5UHfFNLEEw/1/di" border="0" ismap="true" /></a></p><img src="http://feeds.feedburner.com/~r/FutilityCloset/~4/AEJ7eLvrQA8" height="1" width="1" />
p570
sg56
NstRp571
asg180
I00
sS'title_detail'
p572
g1
(g2
g3
(dp573
g63
S'http://feeds.feedburner.com/FutilityCloset'
p574
sg16
S'text/plain'
p575
sg66
g562
sg56
NstRp576
sg117
(lp577
VFutility Closet
p578
aV*
aS'read'
p579
astRp580
ag1
(g2
g3
(dp581
S'summary_detail'
p582
g1
(g2
g3
(dp583
S'base'
p584
S'http://feeds.feedburner.com/FutilityCloset'
p585
sS'type'
p586
S'text/html'
p587
sS'language'
p588
NsS'value'
p589
VNASA&#8217;s Cassini spacecraft took this photo while orbiting Saturn in 2005.
p590
stRp591
sS'updated_parsed'
p592
g84
((I2011
I2
I10
I22
I25
I14
I3
I41
I0
t(dtRp593
sS'links'
p594
(lp595
g1
(g2
g3
(dp596
S'href'
p597
Vhttp://feedproxy.google.com/~r/FutilityCloset/~3/UyfrYU59yDw/
p598
sg586
S'text/html'
p599
sS'rel'
p600
S'alternate'
p601
stRp602
asS'tags'
p603
(lp604
g1
(g2
g3
(dp605
S'term'
p606
VEntertainment
p607
sS'scheme'
p608
NsS'label'
p609
NstRp610
ag1
(g2
g3
(dp611
g606
VScience & Math
p612
sg608
Nsg609
NstRp613
asS'feedburner_origlink'
p614
Vhttp://www.futilitycloset.com/2011/02/10/thats-no-moon/
p615
sS'updated'
p616
VThu, 10 Feb 2011 22:25:14 +0000
p617
sS'link'
p618
g598
sS'wfw_commentrss'
p619
Vhttp://www.futilitycloset.com/2011/02/10/thats-no-moon/feed/
p620
sS'id'
p621
Vhttp://www.futilitycloset.com/?p=20432
p622
sS'slash_comments'
p623
V0
sS'title'
p624
VThat\u2019s No Moon \u2026
p625
sS'author'
p626
VGreg Ross
p627
sS'comments'
p628
Vhttp://www.futilitycloset.com/2011/02/10/thats-no-moon/#comments
p629
sS'summary'
p630
g590
sS'content'
p631
(lp632
g1
(g2
g3
(dp633
g584
S'http://feeds.feedburner.com/FutilityCloset'
p634
sg586
S'text/html'
p635
sg588
Nsg589
V<p><img src="http://www.futilitycloset.com/wp-content/uploads/2011/02/2011-02-13-thats-no-moon.jpg" alt="http://www.nasa.gov/images/content/124476main_N00037579.jpg" title="2011-02-13-thats-no-moon" width="500" height="267" class="alignnone size-full wp-image-20433" /></p>\u000a<p>NASA&#8217;s Cassini spacecraft took this photo while orbiting Saturn in 2005.</p>\u000a\u000a<p><a href="http://feedads.g.doubleclick.net/~a/1556gLQ60IKXO32UEY8DjvSF5yc/0/da"><img src="http://feedads.g.doubleclick.net/~a/1556gLQ60IKXO32UEY8DjvSF5yc/0/di" border="0" ismap="true" /></a><br />\u000a<a href="http://feedads.g.doubleclick.net/~a/1556gLQ60IKXO32UEY8DjvSF5yc/1/da"><img src="http://feedads.g.doubleclick.net/~a/1556gLQ60IKXO32UEY8DjvSF5yc/1/di" border="0" ismap="true" /></a></p><img src="http://feeds.feedburner.com/~r/FutilityCloset/~4/UyfrYU59yDw" height="1" width="1" />
p636
stRp637
asS'guidislink'
p638
I00
sS'title_detail'
p639
g1
(g2
g3
(dp640
g584
S'http://feeds.feedburner.com/FutilityCloset'
p641
sg586
S'text/plain'
p642
sg588
Nsg589
g625
stRp643
sS'canto_state'
p644
(lp645
VFutility Closet
p646
aV*
aS'read'
p647
astRp648
ag1
(g2
g3
(dp649
S'summary_detail'
p650
g1
(g2
g3
(dp651
S'base'
p652
S'http://feeds.feedburner.com/FutilityCloset'
p653
sS'type'
p654
S'text/html'
p655
sS'language'
p656
NsS'value'
p657
VA publishing sensation swept the United States in 1926: The Diary of a Young Lady of Fashion in the Year 1764-1765 offered scandalous insights into 18th-century society through the observations of one Cleone Knox, who met Louis XV at Versailles, was introduced to Voltaire in Switzerland, and led a pretty eventful private life: March 3rd [...]
p658
stRp659
sS'updated_parsed'
p660
g84
((I2011
I2
I10
I14
I18
I47
I3
I41
I0
t(dtRp661
sS'links'
p662
(lp663
g1
(g2
g3
(dp664
S'href'
p665
Vhttp://feedproxy.google.com/~r/FutilityCloset/~3/49xTrsjlTC0/
p666
sg654
S'text/html'
p667
sS'rel'
p668
S'alternate'
p669
stRp670
asS'tags'
p671
(lp672
g1
(g2
g3
(dp673
S'term'
p674
VHoaxes
p675
sS'scheme'
p676
NsS'label'
p677
NstRp678
asS'feedburner_origlink'
p679
Vhttp://www.futilitycloset.com/2011/02/10/homespun-silk/
p680
sS'updated'
p681
VThu, 10 Feb 2011 14:18:47 +0000
p682
sS'link'
p683
g666
sS'wfw_commentrss'
p684
Vhttp://www.futilitycloset.com/2011/02/10/homespun-silk/feed/
p685
sS'id'
p686
Vhttp://www.futilitycloset.com/?p=20395
p687
sS'slash_comments'
p688
V0
sS'title'
p689
VHomespun Silk
p690
sS'author'
p691
VGreg Ross
p692
sS'comments'
p693
Vhttp://www.futilitycloset.com/2011/02/10/homespun-silk/#comments
p694
sS'summary'
p695
g658
sS'content'
p696
(lp697
g1
(g2
g3
(dp698
g652
S'http://feeds.feedburner.com/FutilityCloset'
p699
sg654
S'text/html'
p700
sg656
Nsg657
V<p>A publishing sensation swept the United States in 1926: <em>The Diary of a Young Lady of Fashion in the Year 1764-1765</em> offered scandalous insights into 18th-century society through the observations of one Cleone Knox, who met Louis XV at Versailles, was introduced to Voltaire in Switzerland, and led a pretty eventful private life:</p>\u000a<blockquote><p>\u000aMarch 3rd [1764]. This morning had a vastly unpleasant interview with my Father. Last night, Mr. Ancaster, who is the indiscreetest young man alive, was seized suddenly while riding home along the shore with the desire to say good night to me. He climbed the wall, the postern gate being locked at that late hour, and had the Boldness to attempt to climb the ivy below my window; while but half way up the Poor Impudent young man fell. (If he hadn&#8217;t Lord knows what would have happened for I am terribly catched by the Handsome Wretch.) As ill luck would have it Papa and Ned, who were conversing in the library, looked out at that moment and saw him lying prostrate on the ground!\u000a</p></blockquote>\u000a<p>America swooned, and the book went through nine editions in two months. One critic wrote, &#8220;No modern girl will ever write a diary like this. Cleone Knox breathes the very spirit of the witty, robust, patriotic, wicked, hard-drinking, hard-swearing 18th century.&#8221;</p>\u000a<p>Alas, a modern girl had. Embarrassed by the publicity, 19-year-old Magdalen King-Hall came forward to say that she had invented the tale using books from the Brighton town reference library. &#8220;I wrote the book in a few weeks,&#8221; she said, &#8220;but, if I had realized so many distinguished people would have taken it seriously, I should have spent much more time and pains upon it.&#8221; She had not meant to deceive anyone &#8212; but perhaps her publisher had.</p>\u000a\u000a<p><a href="http://feedads.g.doubleclick.net/~a/Ujo1BwabZatsh7E2SLuVmyU_Xw0/0/da"><img src="http://feedads.g.doubleclick.net/~a/Ujo1BwabZatsh7E2SLuVmyU_Xw0/0/di" border="0" ismap="true" /></a><br />\u000a<a href="http://feedads.g.doubleclick.net/~a/Ujo1BwabZatsh7E2SLuVmyU_Xw0/1/da"><img src="http://feedads.g.doubleclick.net/~a/Ujo1BwabZatsh7E2SLuVmyU_Xw0/1/di" border="0" ismap="true" /></a></p><img src="http://feeds.feedburner.com/~r/FutilityCloset/~4/49xTrsjlTC0" height="1" width="1" />
p701
stRp702
asS'guidislink'
p703
I00
sS'title_detail'
p704
g1
(g2
g3
(dp705
g652
S'http://feeds.feedburner.com/FutilityCloset'
p706
sg654
S'text/plain'
p707
sg656
Nsg657
g690
stRp708
sS'canto_state'
p709
(lp710
VFutility Closet
p711
aV*
aS'read'
p712
astRp713
ag1
(g2
g3
(dp714
S'summary_detail'
p715
g1
(g2
g3
(dp716
S'base'
p717
S'http://feeds.feedburner.com/FutilityCloset'
p718
sS'type'
p719
S'text/html'
p720
sS'value'
p721
V43 + 183 + 333 = 41833 163 + 503 + 333 = 165033 223 + 183 + 593 = 221859 443 + 463 + 643 = 444664 483 + 723 + 153 = 487215 983 + 283 + 273 = 982827
p722
sS'language'
p723
NstRp724
sS'updated_parsed'
p725
g84
((I2011
I2
I10
I6
I26
I2
I3
I41
I0
t(dtRp726
sS'links'
p727
(lp728
g1
(g2
g3
(dp729
S'href'
p730
Vhttp://feedproxy.google.com/~r/FutilityCloset/~3/ZkEHchmbbDM/
p731
sg719
S'text/html'
p732
sS'rel'
p733
S'alternate'
p734
stRp735
asS'tags'
p736
(lp737
g1
(g2
g3
(dp738
S'term'
p739
VScience & Math
p740
sS'scheme'
p741
NsS'label'
p742
NstRp743
asS'feedburner_origlink'
p744
Vhttp://www.futilitycloset.com/2011/02/10/stacking-cubes/
p745
sS'updated'
p746
VThu, 10 Feb 2011 06:26:02 +0000
p747
sS'link'
p748
g731
sS'wfw_commentrss'
p749
Vhttp://www.futilitycloset.com/2011/02/10/stacking-cubes/feed/
p750
sS'id'
p751
Vhttp://www.futilitycloset.com/?p=20407
p752
sS'slash_comments'
p753
V0
sS'title'
p754
VStacking Cubes
p755
sS'author'
p756
VGreg Ross
p757
sS'comments'
p758
Vhttp://www.futilitycloset.com/2011/02/10/stacking-cubes/#comments
p759
sS'summary'
p760
g722
sS'content'
p761
(lp762
g1
(g2
g3
(dp763
g717
S'http://feeds.feedburner.com/FutilityCloset'
p764
sg719
S'text/html'
p765
sg721
V<p>4<sup>3</sup> + 18<sup>3</sup> + 33<sup>3</sup> = 41833<br />\u000a16<sup>3</sup> + 50<sup>3</sup> + 33<sup>3</sup> = 165033<br />\u000a22<sup>3</sup> + 18<sup>3</sup> + 59<sup>3</sup> = 221859<br />\u000a44<sup>3</sup> + 46<sup>3</sup> + 64<sup>3</sup> = 444664<br />\u000a48<sup>3</sup> + 72<sup>3</sup> + 15<sup>3</sup> = 487215<br />\u000a98<sup>3</sup> + 28<sup>3</sup> + 27<sup>3</sup> = 982827</p>\u000a\u000a<p><a href="http://feedads.g.doubleclick.net/~a/T9G9f1oAOpaUGw-c91XqwYplHT4/0/da"><img src="http://feedads.g.doubleclick.net/~a/T9G9f1oAOpaUGw-c91XqwYplHT4/0/di" border="0" ismap="true" /></a><br />\u000a<a href="http://feedads.g.doubleclick.net/~a/T9G9f1oAOpaUGw-c91XqwYplHT4/1/da"><img src="http://feedads.g.doubleclick.net/~a/T9G9f1oAOpaUGw-c91XqwYplHT4/1/di" border="0" ismap="true" /></a></p><img src="http://feeds.feedburner.com/~r/FutilityCloset/~4/ZkEHchmbbDM" height="1" width="1" />
p766
sg723
NstRp767
asS'guidislink'
p768
I00
sS'title_detail'
p769
g1
(g2
g3
(dp770
g717
S'http://feeds.feedburner.com/FutilityCloset'
p771
sg719
S'text/plain'
p772
sg721
g755
sg723
NstRp773
sS'canto_state'
p774
(lp775
VFutility Closet
p776
aV*
aS'read'
p777
astRp778
ag1
(g2
g3
(dp779
S'summary_detail'
p780
g1
(g2
g3
(dp781
g717
S'http://feeds.feedburner.com/FutilityCloset'
p782
sg719
S'text/html'
p783
sg721
VOn Dec. 28, 1885, London grocer Edwin Bartlett was discovered dead in his bed. In his stomach was a fatal quantity of chloroform, but, strangely, his throat and larynx showed no signs of the burning that liquid chloroform should have caused. Bartlett&#8217;s wife, Adelaide, was having an open romance with George Dyson, a local minister. [...]
p784
sg723
NstRp785
sg725
g84
((I2011
I2
I9
I22
I31
I1
I2
I40
I0
t(dtRp786
sg727
(lp787
g1
(g2
g3
(dp788
g730
Vhttp://feedproxy.google.com/~r/FutilityCloset/~3/NcfdxjbdFW4/
p789
sg719
g732
sg733
g734
stRp790
asg736
(lp791
g1
(g2
g3
(dp792
g739
VCrime
p793
sg741
Nsg742
NstRp794
asS'feedburner_origlink'
p795
Vhttp://www.futilitycloset.com/2011/02/09/the-pimlico-mystery/
p796
sg746
VWed, 09 Feb 2011 22:31:01 +0000
p797
sg748
g789
sS'wfw_commentrss'
p798
Vhttp://www.futilitycloset.com/2011/02/09/the-pimlico-mystery/feed/
p799
sg751
Vhttp://www.futilitycloset.com/?p=20383
p800
sS'slash_comments'
p801
V0
sg754
VThe Pimlico Mystery
p802
sg756
VGreg Ross
p803
sS'comments'
p804
Vhttp://www.futilitycloset.com/2011/02/09/the-pimlico-mystery/#comments
p805
sg760
g784
sg761
(lp806
g1
(g2
g3
(dp807
g717
S'http://feeds.feedburner.com/FutilityCloset'
p808
sg719
S'text/html'
p809
sg721
V<p><img src="http://www.futilitycloset.com/wp-content/uploads/2011/02/2011-02-09-the-pimlico-mystery.jpg" alt="http://commons.wikimedia.org/wiki/File:Adelaide_Bartlett.jpg" title="2011-02-09-the-pimlico-mystery" width="200" height="236" class="alignleft size-full wp-image-20384" /></p>\u000a<p>On Dec. 28, 1885, London grocer Edwin Bartlett was discovered dead in his bed. In his stomach was a fatal quantity of chloroform, but, strangely, his throat and larynx showed no signs of the burning that liquid chloroform should have caused.</p>\u000a<p>Bartlett&#8217;s wife, Adelaide, was having an open romance with George Dyson, a local minister. It transpired that she had induced him to buy chloroform at local pharmacies in quantities too small to provoke suspicion, ostensibly to help treat Edwin, who was undergoing painful dental surgeries.</p>\u000a<p>At trial, Adelaide&#8217;s defense was simply that she had no way to get the chloroform into Edwin&#8217;s stomach without passing it down his throat. The jury let her go.</p>\u000a<p>&#8220;Now that Mrs. Bartlett has been acquitted,&#8221; remarked pathologist Sir James Paget afterward, &#8220;she should tell us, in the interests of science, how she did it.&#8221; Adelaide made no response. The puzzle of Edwin&#8217;s death has never been solved.</p>\u000a\u000a<p><a href="http://feedads.g.doubleclick.net/~a/D7bv_JXXuUELtQg9DS2OXyKkWwg/0/da"><img src="http://feedads.g.doubleclick.net/~a/D7bv_JXXuUELtQg9DS2OXyKkWwg/0/di" border="0" ismap="true" /></a><br />\u000a<a href="http://feedads.g.doubleclick.net/~a/D7bv_JXXuUELtQg9DS2OXyKkWwg/1/da"><img src="http://feedads.g.doubleclick.net/~a/D7bv_JXXuUELtQg9DS2OXyKkWwg/1/di" border="0" ismap="true" /></a></p><img src="http://feeds.feedburner.com/~r/FutilityCloset/~4/NcfdxjbdFW4" height="1" width="1" />
p810
sg723
NstRp811
asg768
I00
sS'title_detail'
p812
g1
(g2
g3
(dp813
g717
S'http://feeds.feedburner.com/FutilityCloset'
p814
sg719
S'text/plain'
p815
sg721
g802
sg723
NstRp816
sg774
(lp817
VFutility Closet
p818
aV*
aS'read'
p819
astRp820
ag1
(g2
g3
(dp821
S'summary_detail'
p822
g1
(g2
g3
(dp823
g717
S'http://feeds.feedburner.com/FutilityCloset'
p824
sg719
S'text/html'
p825
sg721
VThere is a legend that after Buddha died, his shadow lingered in a cave. It actually is possible for a shadow to persist without any sustaining object. Light travels at 299,792,458 meters per second in a vacuum. The moon is about 384,400,000 meters away from Earth. Hence, if the moon were instantly obliterated during a [...]
p826
sg723
NstRp827
sg725
g84
((I2011
I2
I9
I14
I30
I2
I2
I40
I0
t(dtRp828
sg727
(lp829
g1
(g2
g3
(dp830
g730
Vhttp://feedproxy.google.com/~r/FutilityCloset/~3/YKAem3zVISw/
p831
sg719
g732
sg733
g734
stRp832
asg736
(lp833
g1
(g2
g3
(dp834
g739
VScience & Math
p835
sg741
Nsg742
NstRp836
asS'feedburner_origlink'
p837
Vhttp://www.futilitycloset.com/2011/02/09/dark-doings/
p838
sg746
VWed, 09 Feb 2011 14:30:02 +0000
p839
sg748
g831
sS'wfw_commentrss'
p840
Vhttp://www.futilitycloset.com/2011/02/09/dark-doings/feed/
p841
sg751
Vhttp://www.futilitycloset.com/?p=20380
p842
sS'slash_comments'
p843
V0
sg754
VDark Doings
p844
sg756
VGreg Ross
p845
sS'comments'
p846
Vhttp://www.futilitycloset.com/2011/02/09/dark-doings/#comments
p847
sg760
g826
sg761
(lp848
g1
(g2
g3
(dp849
g717
S'http://feeds.feedburner.com/FutilityCloset'
p850
sg719
S'text/html'
p851
sg721
V<blockquote><p>\u000aThere is a legend that after Buddha died, his shadow lingered in a cave. It actually is possible for a shadow to persist without any sustaining object. Light travels at 299,792,458 meters per second in a vacuum. The moon is about 384,400,000 meters away from Earth. Hence, if the moon were instantly obliterated during a solar eclipse, its shadow would linger for more than a second on the surface of Earth. If the moon were farther away, its shadow could last several minutes. We can extrapolate to posthumous shadows that postdate their objects by millions of years. We can also speculate about an infinite past in which a shadow is sustained by a beginningless sequence of objects. As one object is destroyed, an object of the same shape and size seamlessly replaces it. This shadow antedates any object in the sequence and so refutes the principle that every shadow is caused by an object. Shadows are not dedicated dependents. Although slaves to some object or other, they can switch masters.\u000a</p></blockquote>\u000a<p>&#8211; Roy Sorensen, <em>Seeing Dark Things</em>, 2008</p>\u000a\u000a<p><a href="http://feedads.g.doubleclick.net/~a/xRwZhJS6Jy9L-Z7W8hNP0MBUoqg/0/da"><img src="http://feedads.g.doubleclick.net/~a/xRwZhJS6Jy9L-Z7W8hNP0MBUoqg/0/di" border="0" ismap="true" /></a><br />\u000a<a href="http://feedads.g.doubleclick.net/~a/xRwZhJS6Jy9L-Z7W8hNP0MBUoqg/1/da"><img src="http://feedads.g.doubleclick.net/~a/xRwZhJS6Jy9L-Z7W8hNP0MBUoqg/1/di" border="0" ismap="true" /></a></p><img src="http://feeds.feedburner.com/~r/FutilityCloset/~4/YKAem3zVISw" height="1" width="1" />
p852
sg723
NstRp853
asg768
I00
sS'title_detail'
p854
g1
(g2
g3
(dp855
g717
S'http://feeds.feedburner.com/FutilityCloset'
p856
sg719
S'text/plain'
p857
sg721
g844
sg723
NstRp858
sg774
(lp859
VFutility Closet
p860
aV*
aS'read'
p861
astRp862
ag1
(g2
g3
(dp863
S'summary_detail'
p864
g1
(g2
g3
(dp865
S'base'
p866
S'http://feeds.feedburner.com/FutilityCloset'
p867
sS'type'
p868
S'text/html'
p869
sS'value'
p870
VIn 1922, T.E. Lawrence joined the Royal Air Force under the alias John Hume Ross, AC2 No. 352087. Exposed by the Daily Express, he joined the Tank Corps as Private Thomas Edward Shaw, No. 7875698. Eventually he returned to the RAF as Aircraftsman T.E. Shaw, No. 338171. His account of life in the air force [...]
p871
sS'language'
p872
NstRp873
sS'updated_parsed'
p874
g84
((I2011
I2
I9
I6
I28
I55
I2
I40
I0
t(dtRp875
sS'links'
p876
(lp877
g1
(g2
g3
(dp878
S'href'
p879
Vhttp://feedproxy.google.com/~r/FutilityCloset/~3/FzFBc5l77B0/
p880
sg868
S'text/html'
p881
sS'rel'
p882
S'alternate'
p883
stRp884
asS'tags'
p885
(lp886
g1
(g2
g3
(dp887
S'term'
p888
VLiterature
p889
sS'scheme'
p890
NsS'label'
p891
NstRp892
asS'feedburner_origlink'
p893
Vhttp://www.futilitycloset.com/2011/02/09/by-the-numbers/
p894
sS'updated'
p895
VWed, 09 Feb 2011 06:28:55 +0000
p896
sS'link'
p897
g880
sS'wfw_commentrss'
p898
Vhttp://www.futilitycloset.com/2011/02/09/by-the-numbers/feed/
p899
sS'id'
p900
Vhttp://www.futilitycloset.com/?p=20376
p901
sS'slash_comments'
p902
V0
sS'title'
p903
VBy the Numbers
p904
sS'author'
p905
VGreg Ross
p906
sS'comments'
p907
Vhttp://www.futilitycloset.com/2011/02/09/by-the-numbers/#comments
p908
sS'summary'
p909
g871
sS'content'
p910
(lp911
g1
(g2
g3
(dp912
g866
S'http://feeds.feedburner.com/FutilityCloset'
p913
sg868
S'text/html'
p914
sg870
V<p><img src="http://www.futilitycloset.com/wp-content/uploads/2011/02/2011-02-09-by-the-numbers.jpg" alt="http://commons.wikimedia.org/wiki/File:Ljohn.jpg" title="2011-02-09-by-the-numbers" width="240" height="325" class="alignnone size-full wp-image-20377" /></p>\u000a<p>In 1922, T.E. Lawrence joined the Royal Air Force under the alias John Hume Ross, AC2 No. 352087. Exposed by the <em>Daily Express</em>, he joined the Tank Corps as Private Thomas Edward Shaw, No. 7875698. Eventually he returned to the RAF as Aircraftsman T.E. Shaw, No. 338171. His account of life in the air force was published under the byline &#8220;352087 A/C Ross.&#8221;</p>\u000a<p>No&#235;l Coward once began a letter to him, &#8220;Dear 338171 (May I call you 338?)&#8221;</p>\u000a\u000a<p><a href="http://feedads.g.doubleclick.net/~a/1yLRxEd-9q9tPhoAsR8wRPChTrk/0/da"><img src="http://feedads.g.doubleclick.net/~a/1yLRxEd-9q9tPhoAsR8wRPChTrk/0/di" border="0" ismap="true" /></a><br />\u000a<a href="http://feedads.g.doubleclick.net/~a/1yLRxEd-9q9tPhoAsR8wRPChTrk/1/da"><img src="http://feedads.g.doubleclick.net/~a/1yLRxEd-9q9tPhoAsR8wRPChTrk/1/di" border="0" ismap="true" /></a></p><img src="http://feeds.feedburner.com/~r/FutilityCloset/~4/FzFBc5l77B0" height="1" width="1" />
p915
sg872
NstRp916
asS'guidislink'
p917
I00
sS'title_detail'
p918
g1
(g2
g3
(dp919
g866
S'http://feeds.feedburner.com/FutilityCloset'
p920
sg868
S'text/plain'
p921
sg870
g904
sg872
NstRp922
sS'canto_state'
p923
(lp924
VFutility Closet
p925
aV*
aS'read'
p926
astRp927
ag1
(g2
g3
(dp928
S'summary_detail'
p929
g1
(g2
g3
(dp930
g866
S'http://feeds.feedburner.com/FutilityCloset'
p931
sg868
S'text/html'
p932
sg870
VMagician, actor, and author Ricky Jay collects the broadsides that publicized bygone exhibitions of conjuring, acrobatics, curiosities, and feats of strength. These are two of his favorites, featured in his 2005 collection Extraordinary Exhibitions. According to one account, the Frenchmen who exhibited the &#8220;enormous head&#8221; were &#8220;cautiously noncommittal&#8221; as to whether it had belonged to [...]
p933
sg872
NstRp934
sg874
g84
((I2011
I2
I8
I22
I54
I5
I1
I39
I0
t(dtRp935
sg876
(lp936
g1
(g2
g3
(dp937
g879
Vhttp://feedproxy.google.com/~r/FutilityCloset/~3/HILDHSKLKAY/
p938
sg868
g881
sg882
g883
stRp939
asg885
(lp940
g1
(g2
g3
(dp941
g888
VEntertainment
p942
sg890
Nsg891
NstRp943
asS'feedburner_origlink'
p944
Vhttp://www.futilitycloset.com/2011/02/08/strange-bills/
p945
sg895
VTue, 08 Feb 2011 22:54:05 +0000
p946
sg897
g938
sS'wfw_commentrss'
p947
Vhttp://www.futilitycloset.com/2011/02/08/strange-bills/feed/
p948
sg900
Vhttp://www.futilitycloset.com/?p=20371
p949
sS'slash_comments'
p950
V0
sg903
VStrange Bills
p951
sg905
VGreg Ross
p952
sS'comments'
p953
Vhttp://www.futilitycloset.com/2011/02/08/strange-bills/#comments
p954
sg909
g933
sg910
(lp955
g1
(g2
g3
(dp956
g866
S'http://feeds.feedburner.com/FutilityCloset'
p957
sg868
S'text/html'
p958
sg870
V<p><img src="http://www.futilitycloset.com/wp-content/uploads/2011/02/2011-02-08-strange-bills-1.jpg" alt="exhibition broadside - enormous head" title="2011-02-08-strange-bills-1" width="500" height="368" class="alignnone size-full wp-image-20372" /></p>\u000a<p>Magician, actor, and author Ricky Jay collects the broadsides that publicized bygone exhibitions of conjuring, acrobatics, curiosities, and feats of strength. These are two of his favorites, featured in his 2005 collection <em>Extraordinary Exhibitions</em>. According to one account, the Frenchmen who exhibited the &#8220;enormous head&#8221; were &#8220;cautiously noncommittal&#8221; as to whether it had belonged to a gigantic bird, fish, or lizard. And the playbill below presents three words that Jay finds &#8220;endlessly appealing. I love the way they look on the page. I love the way they roll off the tongue. No matter how much one is mired in the complexities of life, no matter how seriously one is inclined to take oneself, no matter how depressing are the day&#8217;s events &#8212; these vicissitudes are all assuaged by the presence of &#8216;The Giant Hungarian Schoolboy.&#8217;&#8221;</p>\u000a<p><img src="http://www.futilitycloset.com/wp-content/uploads/2011/02/2011-02-08-strange-bills-2.jpg" alt="exhibition broadside - hungarian schoolboy" title="2011-02-08-strange-bills-2" width="500" height="376" class="alignnone size-full wp-image-20373" /></p>\u000a\u000a<p><a href="http://feedads.g.doubleclick.net/~a/zQfLo2kZ_lvs0wYHPTopDzWPrB4/0/da"><img src="http://feedads.g.doubleclick.net/~a/zQfLo2kZ_lvs0wYHPTopDzWPrB4/0/di" border="0" ismap="true" /></a><br />\u000a<a href="http://feedads.g.doubleclick.net/~a/zQfLo2kZ_lvs0wYHPTopDzWPrB4/1/da"><img src="http://feedads.g.doubleclick.net/~a/zQfLo2kZ_lvs0wYHPTopDzWPrB4/1/di" border="0" ismap="true" /></a></p><img src="http://feeds.feedburner.com/~r/FutilityCloset/~4/HILDHSKLKAY" height="1" width="1" />
p959
sg872
NstRp960
asg917
I00
sS'title_detail'
p961
g1
(g2
g3
(dp962
g866
S'http://feeds.feedburner.com/FutilityCloset'
p963
sg868
S'text/plain'
p964
sg870
g951
sg872
NstRp965
sg923
(lp966
VFutility Closet
p967
aV*
aS'read'
p968
astRp969
ag1
(g2
g3
(dp970
S'summary_detail'
p971
g1
(g2
g3
(dp972
S'base'
p973
S'http://feeds.feedburner.com/FutilityCloset'
p974
sS'type'
p975
S'text/html'
p976
sS'value'
p977
V&#8220;Almost all really new ideas have a certain aspect of foolishness when they are first produced.&#8221; &#8212; Alfred North Whitehead
p978
sS'language'
p979
NstRp980
sS'updated_parsed'
p981
g84
((I2011
I2
I8
I14
I53
I25
I1
I39
I0
t(dtRp982
sS'links'
p983
(lp984
g1
(g2
g3
(dp985
S'href'
p986
Vhttp://feedproxy.google.com/~r/FutilityCloset/~3/u9Bu5GqnOCM/
p987
sg975
S'text/html'
p988
sS'rel'
p989
S'alternate'
p990
stRp991
asS'tags'
p992
(lp993
g1
(g2
g3
(dp994
S'term'
p995
VQuotations
p996
sS'scheme'
p997
NsS'label'
p998
NstRp999
asS'feedburner_origlink'
p1000
Vhttp://www.futilitycloset.com/2011/02/08/unquote-331/
p1001
sS'updated'
p1002
VTue, 08 Feb 2011 14:53:25 +0000
p1003
sS'link'
p1004
g987
sS'wfw_commentrss'
p1005
Vhttp://www.futilitycloset.com/2011/02/08/unquote-331/feed/
p1006
sS'id'
p1007
Vhttp://www.futilitycloset.com/?p=20368
p1008
sS'slash_comments'
p1009
V0
sS'title'
p1010
VUnquote
p1011
sS'author'
p1012
VGreg Ross
p1013
sS'comments'
p1014
Vhttp://www.futilitycloset.com/2011/02/08/unquote-331/#comments
p1015
sS'summary'
p1016
g978
sS'content'
p1017
(lp1018
g1
(g2
g3
(dp1019
g973
S'http://feeds.feedburner.com/FutilityCloset'
p1020
sg975
S'text/html'
p1021
sg977
V<p>&#8220;Almost all really new ideas have a certain aspect of foolishness when they are first produced.&#8221; &#8212; Alfred North Whitehead</p>\u000a\u000a<p><a href="http://feedads.g.doubleclick.net/~a/DGUhysg7DVgiB99cjy_bN5EcnXM/0/da"><img src="http://feedads.g.doubleclick.net/~a/DGUhysg7DVgiB99cjy_bN5EcnXM/0/di" border="0" ismap="true" /></a><br />\u000a<a href="http://feedads.g.doubleclick.net/~a/DGUhysg7DVgiB99cjy_bN5EcnXM/1/da"><img src="http://feedads.g.doubleclick.net/~a/DGUhysg7DVgiB99cjy_bN5EcnXM/1/di" border="0" ismap="true" /></a></p><img src="http://feeds.feedburner.com/~r/FutilityCloset/~4/u9Bu5GqnOCM" height="1" width="1" />
p1022
sg979
NstRp1023
asS'guidislink'
p1024
I00
sS'title_detail'
p1025
g1
(g2
g3
(dp1026
g973
S'http://feeds.feedburner.com/FutilityCloset'
p1027
sg975
S'text/plain'
p1028
sg977
g1011
sg979
NstRp1029
sS'canto_state'
p1030
(lp1031
g967
aV*
ag968
astRp1032
ag1
(g2
g3
(dp1033
S'summary_detail'
p1034
g1
(g2
g3
(dp1035
S'base'
p1036
S'http://feeds.feedburner.com/FutilityCloset'
p1037
sS'type'
p1038
S'text/html'
p1039
sS'value'
p1040
VDoes living in Iowa constitute cruel and unusual punishment? Hughes Bagley thought so &#8212; in 1982 he was paroled from federal prison on the condition that he live in Sioux City and remain within the federal district of northern Iowa for 12 years. He asked the court to set this aside so that he could [...]
p1041
sS'language'
p1042
NstRp1043
sS'updated_parsed'
p1044
g84
((I2011
I2
I8
I6
I52
I11
I1
I39
I0
t(dtRp1045
sS'links'
p1046
(lp1047
g1
(g2
g3
(dp1048
S'href'
p1049
Vhttp://feedproxy.google.com/~r/FutilityCloset/~3/N2Ubp82gPd8/
p1050
sg1038
S'text/html'
p1051
sS'rel'
p1052
S'alternate'
p1053
stRp1054
asS'tags'
p1055
(lp1056
g1
(g2
g3
(dp1057
S'term'
p1058
VSociety
p1059
sS'scheme'
p1060
NsS'label'
p1061
NstRp1062
asS'feedburner_origlink'
p1063
Vhttp://www.futilitycloset.com/2011/02/08/state-of-torture/
p1064
sS'updated'
p1065
VTue, 08 Feb 2011 06:52:11 +0000
p1066
sS'link'
p1067
g1050
sS'wfw_commentrss'
p1068
Vhttp://www.futilitycloset.com/2011/02/08/state-of-torture/feed/
p1069
sS'id'
p1070
Vhttp://www.futilitycloset.com/?p=20365
p1071
sS'slash_comments'
p1072
V0
sS'title'
p1073
VState of Torture
p1074
sS'author'
p1075
VGreg Ross
p1076
sS'comments'
p1077
Vhttp://www.futilitycloset.com/2011/02/08/state-of-torture/#comments
p1078
sS'summary'
p1079
g1041
sS'content'
p1080
(lp1081
g1
(g2
g3
(dp1082
g1036
S'http://feeds.feedburner.com/FutilityCloset'
p1083
sg1038
S'text/html'
p1084
sg1040
V<p>Does living in Iowa constitute cruel and unusual punishment? Hughes Bagley thought so &#8212; in 1982 he was paroled from federal prison on the condition that he live in Sioux City and remain within the federal district of northern Iowa for 12 years. He asked the court to set this aside so that he could return to Seattle.</p>\u000a<p>&#8220;Although we might share Bagley&#8217;s enthusiasm for the Pacific Northwest,&#8221; wrote judge Herbert Choy, &#8220;we believe, and so hold, that it is not cruel and unusual punishment to require Bagley to serve his parole term in Iowa.&#8221;</p>\u000a\u000a<p><a href="http://feedads.g.doubleclick.net/~a/76GMSWvYAQxvk5sPHuX-sRavFEw/0/da"><img src="http://feedads.g.doubleclick.net/~a/76GMSWvYAQxvk5sPHuX-sRavFEw/0/di" border="0" ismap="true" /></a><br />\u000a<a href="http://feedads.g.doubleclick.net/~a/76GMSWvYAQxvk5sPHuX-sRavFEw/1/da"><img src="http://feedads.g.doubleclick.net/~a/76GMSWvYAQxvk5sPHuX-sRavFEw/1/di" border="0" ismap="true" /></a></p><img src="http://feeds.feedburner.com/~r/FutilityCloset/~4/N2Ubp82gPd8" height="1" width="1" />
p1085
sg1042
NstRp1086
asS'guidislink'
p1087
I00
sS'title_detail'
p1088
g1
(g2
g3
(dp1089
g1036
S'http://feeds.feedburner.com/FutilityCloset'
p1090
sg1038
S'text/plain'
p1091
sg1040
g1074
sg1042
NstRp1092
sS'canto_state'
p1093
(lp1094
VFutility Closet
p1095
aV*
aS'read'
p1096
astRp1097
ag1
(g2
g3
(dp1098
S'summary_detail'
p1099
g1
(g2
g3
(dp1100
S'base'
p1101
S'http://feeds.feedburner.com/FutilityCloset'
p1102
sS'type'
p1103
S'text/html'
p1104
sS'language'
p1105
NsS'value'
p1106
VBut the sage was not too grave to play a joke on his friends. One day, when they were walking in the park at Wycombe, he said that he could quiet the waves on a small stream which was being whipped by the wind. He went two hundred paces above where the others stood, made [...]
p1107
stRp1108
sS'updated_parsed'
p1109
g84
((I2011
I2
I7
I22
I35
I12
I0
I38
I0
t(dtRp1110
sS'links'
p1111
(lp1112
g1
(g2
g3
(dp1113
S'href'
p1114
Vhttp://feedproxy.google.com/~r/FutilityCloset/~3/0exNmHSfGD4/
p1115
sg1103
S'text/html'
p1116
sS'rel'
p1117
S'alternate'
p1118
stRp1119
asS'tags'
p1120
(lp1121
g1
(g2
g3
(dp1122
S'term'
p1123
VHistory
p1124
sS'scheme'
p1125
NsS'label'
p1126
NstRp1127
ag1
(g2
g3
(dp1128
g1123
VScience & Math
p1129
sg1125
Nsg1126
NstRp1130
asS'feedburner_origlink'
p1131
Vhttp://www.futilitycloset.com/2011/02/07/franklin-the-wizard/
p1132
sS'updated'
p1133
VMon, 07 Feb 2011 22:35:12 +0000
p1134
sS'link'
p1135
g1115
sS'wfw_commentrss'
p1136
Vhttp://www.futilitycloset.com/2011/02/07/franklin-the-wizard/feed/
p1137
sS'id'
p1138
Vhttp://www.futilitycloset.com/?p=20353
p1139
sS'slash_comments'
p1140
V0
sS'title'
p1141
VFranklin the Wizard
p1142
sS'author'
p1143
VGreg Ross
p1144
sS'comments'
p1145
Vhttp://www.futilitycloset.com/2011/02/07/franklin-the-wizard/#comments
p1146
sS'summary'
p1147
g1107
sS'content'
p1148
(lp1149
g1
(g2
g3
(dp1150
g1101
S'http://feeds.feedburner.com/FutilityCloset'
p1151
sg1103
S'text/html'
p1152
sg1105
Nsg1106
V<p><img src="http://www.futilitycloset.com/wp-content/uploads/2011/02/2011-02-07-franklin-the-wizard.jpg" alt="http://commons.wikimedia.org/wiki/File:BenFranklinDuplessis.jpg" title="2011-02-07-franklin-the-wizard" width="244" height="310" class="alignnone size-full wp-image-20355" /></p>\u000a<blockquote><p>\u000aBut the sage was not too grave to play a joke on his friends. One day, when they were walking in the park at Wycombe, he said that he could quiet the waves on a small stream which was being whipped by the wind. He went two hundred paces above where the others stood, made some magic passes over the water, and waved his bamboo cane three times in the air. The waves gradually sank and the stream became as smooth as a mirror. After they had marvelled Franklin explained. He carried oil in the hollow joint of his cane, and a few drops of it spreading on the water had caused the miracle.\u000a</p></blockquote>\u000a<p>&#8211; Carl Van Doren, <em>Benjamin Franklin</em>, 1938</p>\u000a\u000a<p><a href="http://feedads.g.doubleclick.net/~a/AOBVtHEZ7OX6_vZvJrfq70VfoRY/0/da"><img src="http://feedads.g.doubleclick.net/~a/AOBVtHEZ7OX6_vZvJrfq70VfoRY/0/di" border="0" ismap="true" /></a><br />\u000a<a href="http://feedads.g.doubleclick.net/~a/AOBVtHEZ7OX6_vZvJrfq70VfoRY/1/da"><img src="http://feedads.g.doubleclick.net/~a/AOBVtHEZ7OX6_vZvJrfq70VfoRY/1/di" border="0" ismap="true" /></a></p><img src="http://feeds.feedburner.com/~r/FutilityCloset/~4/0exNmHSfGD4" height="1" width="1" />
p1153
stRp1154
asS'guidislink'
p1155
I00
sS'title_detail'
p1156
g1
(g2
g3
(dp1157
g1101
S'http://feeds.feedburner.com/FutilityCloset'
p1158
sg1103
S'text/plain'
p1159
sg1105
Nsg1106
g1142
stRp1160
sS'canto_state'
p1161
(lp1162
VFutility Closet
p1163
aV*
aS'read'
p1164
astRp1165
ag1
(g2
g3
(dp1166
S'summary_detail'
p1167
g1
(g2
g3
(dp1168
S'base'
p1169
S'http://feeds.feedburner.com/FutilityCloset'
p1170
sS'type'
p1171
S'text/html'
p1172
sS'language'
p1173
NsS'value'
p1174
Vlalochezia n. emotional relief gained by using indecent or vulgar language
p1175
stRp1176
sS'updated_parsed'
p1177
g84
((I2011
I2
I7
I14
I34
I18
I0
I38
I0
t(dtRp1178
sS'links'
p1179
(lp1180
g1
(g2
g3
(dp1181
S'href'
p1182
Vhttp://feedproxy.google.com/~r/FutilityCloset/~3/AT1tsxVuq_U/
p1183
sg1171
S'text/html'
p1184
sS'rel'
p1185
S'alternate'
p1186
stRp1187
asS'tags'
p1188
(lp1189
g1
(g2
g3
(dp1190
S'term'
p1191
VLanguage
p1192
sS'scheme'
p1193
NsS'label'
p1194
NstRp1195
asS'feedburner_origlink'
p1196
Vhttp://www.futilitycloset.com/2011/02/07/in-a-word-305/
p1197
sS'updated'
p1198
VMon, 07 Feb 2011 14:34:18 +0000
p1199
sS'link'
p1200
g1183
sS'wfw_commentrss'
p1201
Vhttp://www.futilitycloset.com/2011/02/07/in-a-word-305/feed/
p1202
sS'id'
p1203
Vhttp://www.futilitycloset.com/?p=20350
p1204
sS'slash_comments'
p1205
V0
sS'title'
p1206
VIn a Word
p1207
sS'author'
p1208
VGreg Ross
p1209
sS'comments'
p1210
Vhttp://www.futilitycloset.com/2011/02/07/in-a-word-305/#comments
p1211
sS'summary'
p1212
g1175
sS'content'
p1213
(lp1214
g1
(g2
g3
(dp1215
g1169
S'http://feeds.feedburner.com/FutilityCloset'
p1216
sg1171
S'text/html'
p1217
sg1173
Nsg1174
V<p>lalochezia<br />\u000an. emotional relief gained by using indecent or vulgar language</p>\u000a\u000a<p><a href="http://feedads.g.doubleclick.net/~a/Vk8nFcGVQC3ZEszH3GEWRVtT388/0/da"><img src="http://feedads.g.doubleclick.net/~a/Vk8nFcGVQC3ZEszH3GEWRVtT388/0/di" border="0" ismap="true" /></a><br />\u000a<a href="http://feedads.g.doubleclick.net/~a/Vk8nFcGVQC3ZEszH3GEWRVtT388/1/da"><img src="http://feedads.g.doubleclick.net/~a/Vk8nFcGVQC3ZEszH3GEWRVtT388/1/di" border="0" ismap="true" /></a></p><img src="http://feeds.feedburner.com/~r/FutilityCloset/~4/AT1tsxVuq_U" height="1" width="1" />
p1218
stRp1219
asS'guidislink'
p1220
I00
sS'title_detail'
p1221
g1
(g2
g3
(dp1222
g1169
S'http://feeds.feedburner.com/FutilityCloset'
p1223
sg1171
S'text/plain'
p1224
sg1173
Nsg1174
g1207
stRp1225
sS'canto_state'
p1226
(lp1227
VFutility Closet
p1228
aV*
aS'read'
p1229
astRp1230
ag1
(g2
g3
(dp1231
S'summary_detail'
p1232
g1
(g2
g3
(dp1233
S'base'
p1234
S'http://feeds.feedburner.com/FutilityCloset'
p1235
sS'type'
p1236
S'text/html'
p1237
sS'language'
p1238
NsS'value'
p1239
VThe chess clubs of Paris and Marseilles played a dramatic correspondence game in 1878. As White, Paris agreed to play without a queen. In return, Marseilles undertook to lose &#8212; to force Paris to checkmate them. Impressively, Marseilles succeeded: 1.d4 d5 2.Nc3 c6 3.Nf3 g6 4.e4 e6 5.e5 Bb4 6.Bd2 Bxc3 7.Bxc3 b5 8.h4 h5 [...]
p1240
stRp1241
sS'updated_parsed'
p1242
g84
((I2011
I2
I7
I6
I57
I37
I0
I38
I0
t(dtRp1243
sS'links'
p1244
(lp1245
g1
(g2
g3
(dp1246
S'href'
p1247
Vhttp://feedproxy.google.com/~r/FutilityCloset/~3/FeGIoJNCwZg/
p1248
sg1236
S'text/html'
p1249
sS'rel'
p1250
S'alternate'
p1251
stRp1252
asS'tags'
p1253
(lp1254
g1
(g2
g3
(dp1255
S'term'
p1256
VEntertainment
p1257
sS'scheme'
p1258
NsS'label'
p1259
NstRp1260
asS'feedburner_origlink'
p1261
Vhttp://www.futilitycloset.com/2011/02/07/murder-by-pacifists/
p1262
sS'updated'
p1263
VMon, 07 Feb 2011 06:57:37 +0000
p1264
sS'link'
p1265
g1248
sS'wfw_commentrss'
p1266
Vhttp://www.futilitycloset.com/2011/02/07/murder-by-pacifists/feed/
p1267
sS'id'
p1268
Vhttp://www.futilitycloset.com/?p=20358
p1269
sS'slash_comments'
p1270
V0
sS'title'
p1271
VMurder by Pacifists
p1272
sS'author'
p1273
VGreg Ross
p1274
sS'comments'
p1275
Vhttp://www.futilitycloset.com/2011/02/07/murder-by-pacifists/#comments
p1276
sS'summary'
p1277
g1240
sS'content'
p1278
(lp1279
g1
(g2
g3
(dp1280
g1234
S'http://feeds.feedburner.com/FutilityCloset'
p1281
sg1236
S'text/html'
p1282
sg1238
Nsg1239
V<p>The chess clubs of Paris and Marseilles played a dramatic correspondence game in 1878. As White, Paris agreed to play without a queen. In return, Marseilles undertook to lose &#8212; to <em>force</em> Paris to checkmate them. Impressively, Marseilles succeeded:</p>\u000a<p>1.d4 d5 2.Nc3 c6 3.Nf3 g6 4.e4 e6 5.e5 Bb4 6.Bd2 Bxc3 7.Bxc3 b5 8.h4 h5 9.0-0-0 a6 10.Ng5 f5 11.g3 Nh6 12.Bd3 Nf7 13.Bxf5 gxf5 14.Nxf7 Kxf7 15.Bd2 Nd7 16.Rhe1 c5 17.dxc5 Nxc5 18.Bg5 Qg8 19.Re3 Bb7 20.Rc3 Rc8 21.Be3 Nd7 22.Bd4 Rxc3 23.bxc3 a5 24.Kd2 a4 25.Rb1 Ba6 26.Rg1 Qg4 27.Rb1 Rc8 28.Rb4 Rc4 29.Rxc4 dxc4 30.a3 f4 31.Kc1 fxg3 32.fxg3 Qxg3 33.Kb2 Qxh4 34.Kc1 Qe1+ 35.Kb2 Qd1 36.Ba7 Nxe5 37.Bc5 h4 38.Bd4 Nc6 39.Be3 e5 40.Bf2 h3 41.Bg3 e4 42.Bf4 Ke6 43.Bg3 e3 44.Bf4 e2 45.Bg3 Kd7 46.Bh2 e1(Q) 47.Bf4 Qee2 48.Bg3 Qdxc2+ 49.Ka1 Qf1+ 50.Be1 Qd2 51.Kb1 h2 52.Ka1 h1(Q) 53.Kb1 Qf8 54.Ka1 Qxa3+ 55.Kb1 Qad6 56.Ka1 Qf6 57.Kb1 Kc7 58.Ka1 b4 59.Kb1 b3 60.Ka1 Kb6 61.Kb1 Ka5 62.Ka1 Ne7 63.Kb1 Nc8 64.Ka1 Bb5 65.Kb1 Qa6 66.Ka1 Nb6 67.Kb1 Qh7+ 68.Ka1 </p>\u000a<p><img src="http://www.futilitycloset.com/wp-content/uploads/2011/02/2011-02-07-murder-by-pacifists-1.png" alt="paris-marseilles 1878 - 1" title="2011-02-07-murder-by-pacifists-1" width="375" height="375" class="aligncenter size-full wp-image-20359" /></p>\u000a<p>68. &#8230; Qxc3+ 69.Bxc3#</p>\u000a<p><img src="http://www.futilitycloset.com/wp-content/uploads/2011/02/2011-02-07-murder-by-pacifists-2.png" alt="paris-marseilles 1878 - 2" title="2011-02-07-murder-by-pacifists-2" width="376" height="375" class="aligncenter size-full wp-image-20360" /></p>\u000a\u000a<p><a href="http://feedads.g.doubleclick.net/~a/s2dj2UQ2wLD44JXSm54JjzAfQxY/0/da"><img src="http://feedads.g.doubleclick.net/~a/s2dj2UQ2wLD44JXSm54JjzAfQxY/0/di" border="0" ismap="true" /></a><br />\u000a<a href="http://feedads.g.doubleclick.net/~a/s2dj2UQ2wLD44JXSm54JjzAfQxY/1/da"><img src="http://feedads.g.doubleclick.net/~a/s2dj2UQ2wLD44JXSm54JjzAfQxY/1/di" border="0" ismap="true" /></a></p><img src="http://feeds.feedburner.com/~r/FutilityCloset/~4/FeGIoJNCwZg" height="1" width="1" />
p1283
stRp1284
asS'guidislink'
p1285
I00
sS'title_detail'
p1286
g1
(g2
g3
(dp1287
g1234
S'http://feeds.feedburner.com/FutilityCloset'
p1288
sg1236
S'text/plain'
p1289
sg1238
Nsg1239
g1272
stRp1290
sS'canto_state'
p1291
(lp1292
VFutility Closet
p1293
aV*
aS'read'
p1294
astRp1295
ag1
(g2
g3
(dp1296
S'summary_detail'
p1297
g1
(g2
g3
(dp1298
S'base'
p1299
S'http://feeds.feedburner.com/FutilityCloset'
p1300
sS'type'
p1301
S'text/html'
p1302
sS'language'
p1303
NsS'value'
p1304
VPublicity stunts undertaken by press agent Jim Moran, 1938-1959: Sold a refrigerator to an Eskimo in Alaska Threw eggs at an electric fan Changed horses in midstream in a Nevada river Sought a needle in a haystack (for 10 days) Walked a bull through a New York china shop Hatched an ostrich egg (by sitting [...]
p1305
stRp1306
sS'updated_parsed'
p1307
g84
((I2011
I2
I6
I22
I45
I35
I6
I37
I0
t(dtRp1308
sS'links'
p1309
(lp1310
g1
(g2
g3
(dp1311
S'href'
p1312
Vhttp://feedproxy.google.com/~r/FutilityCloset/~3/xIZxLu6zRbQ/
p1313
sg1301
S'text/html'
p1314
sS'rel'
p1315
S'alternate'
p1316
stRp1317
asS'tags'
p1318
(lp1319
g1
(g2
g3
(dp1320
S'term'
p1321
VOddities
p1322
sS'scheme'
p1323
NsS'label'
p1324
NstRp1325
asS'feedburner_origlink'
p1326
Vhttp://www.futilitycloset.com/2011/02/06/news-to-order/
p1327
sS'updated'
p1328
VSun, 06 Feb 2011 22:45:35 +0000
p1329
sS'link'
p1330
g1313
sS'wfw_commentrss'
p1331
Vhttp://www.futilitycloset.com/2011/02/06/news-to-order/feed/
p1332
sS'id'
p1333
Vhttp://www.futilitycloset.com/?p=20345
p1334
sS'slash_comments'
p1335
V0
sS'title'
p1336
VNews to Order
p1337
sS'author'
p1338
VGreg Ross
p1339
sS'comments'
p1340
Vhttp://www.futilitycloset.com/2011/02/06/news-to-order/#comments
p1341
sS'summary'
p1342
g1305
sS'content'
p1343
(lp1344
g1
(g2
g3
(dp1345
g1299
S'http://feeds.feedburner.com/FutilityCloset'
p1346
sg1301
S'text/html'
p1347
sg1303
Nsg1304
V<p><img src="http://www.futilitycloset.com/wp-content/uploads/2011/02/2011-02-06-news-to-order.jpg" alt="http://en.wikipedia.org/wiki/File:Moranvoxpop.jpg" title="2011-02-06-news-to-order" width="500" height="377" class="alignnone size-full wp-image-20346" /></p>\u000a<p>Publicity stunts undertaken by press agent Jim Moran, 1938-1959:</p>\u000a<ul>\u000a<li>Sold a refrigerator to an Eskimo in Alaska</li>\u000a<li>Threw eggs at an electric fan</li>\u000a<li>Changed horses in midstream in a Nevada river</li>\u000a<li>Sought a needle in a haystack (for 10 days)</li>\u000a<li>Walked a bull through a New York china shop</li>\u000a<li>Hatched an ostrich egg (by sitting on it for 19 days)</li>\u000a<li>Opened a Washington embassy for a mythical country</li>\u000a</ul>\u000a<p>By the 1950s the era of the flamboyant stunt was ending, and authorities put a stop to Moran&#8217;s more ambitious schemes. He said, &#8220;It&#8217;s a sad day for American capitalism when a man can&#8217;t fly a midget on a kite over Central Park.&#8221;</p>\u000a\u000a<p><a href="http://feedads.g.doubleclick.net/~a/MiuCWJjP7W_MwpPHqgXqKrglVAk/0/da"><img src="http://feedads.g.doubleclick.net/~a/MiuCWJjP7W_MwpPHqgXqKrglVAk/0/di" border="0" ismap="true" /></a><br />\u000a<a href="http://feedads.g.doubleclick.net/~a/MiuCWJjP7W_MwpPHqgXqKrglVAk/1/da"><img src="http://feedads.g.doubleclick.net/~a/MiuCWJjP7W_MwpPHqgXqKrglVAk/1/di" border="0" ismap="true" /></a></p><img src="http://feeds.feedburner.com/~r/FutilityCloset/~4/xIZxLu6zRbQ" height="1" width="1" />
p1348
stRp1349
asS'guidislink'
p1350
I00
sS'title_detail'
p1351
g1
(g2
g3
(dp1352
g1299
S'http://feeds.feedburner.com/FutilityCloset'
p1353
sg1301
S'text/plain'
p1354
sg1303
Nsg1304
g1337
stRp1355
sS'canto_state'
p1356
(lp1357
VFutility Closet
p1358
aV*
aS'read'
p1359
astRp1360
ag1
(g2
g3
(dp1361
S'summary_detail'
p1362
g1
(g2
g3
(dp1363
S'base'
p1364
S'http://feeds.feedburner.com/FutilityCloset'
p1365
sS'type'
p1366
S'text/html'
p1367
sS'language'
p1368
NsS'value'
p1369
VAn Englishman and an Irishman signed on a vessel to work their passage to the United States. The captain insisted the Irishman produce references but did not ask the Englishman for any. This infuriated the Irishman. One day the two men were washing down the deck. The Englishman threw a bucket overboard to get more [...]
p1370
stRp1371
sS'updated_parsed'
p1372
g84
((I2011
I2
I6
I14
I44
I29
I6
I37
I0
t(dtRp1373
sS'links'
p1374
(lp1375
g1
(g2
g3
(dp1376
S'href'
p1377
Vhttp://feedproxy.google.com/~r/FutilityCloset/~3/jTj3j6tF2Fo/
p1378
sg1366
S'text/html'
p1379
sS'rel'
p1380
S'alternate'
p1381
stRp1382
asS'tags'
p1383
(lp1384
g1
(g2
g3
(dp1385
S'term'
p1386
VHumor
p1387
sS'scheme'
p1388
NsS'label'
p1389
NstRp1390
asS'feedburner_origlink'
p1391
Vhttp://www.futilitycloset.com/2011/02/06/rimshot-28/
p1392
sS'updated'
p1393
VSun, 06 Feb 2011 14:44:29 +0000
p1394
sS'link'
p1395
g1378
sS'wfw_commentrss'
p1396
Vhttp://www.futilitycloset.com/2011/02/06/rimshot-28/feed/
p1397
sS'id'
p1398
Vhttp://www.futilitycloset.com/?p=20342
p1399
sS'slash_comments'
p1400
V0
sS'title'
p1401
VRimshot
p1402
sS'author'
p1403
VGreg Ross
p1404
sS'comments'
p1405
Vhttp://www.futilitycloset.com/2011/02/06/rimshot-28/#comments
p1406
sS'summary'
p1407
g1370
sS'content'
p1408
(lp1409
g1
(g2
g3
(dp1410
g1364
S'http://feeds.feedburner.com/FutilityCloset'
p1411
sg1366
S'text/html'
p1412
sg1368
Nsg1369
V<blockquote><p>\u000aAn Englishman and an Irishman signed on a vessel to work their passage to the United States. The captain insisted the Irishman produce references but did not ask the Englishman for any. This infuriated the Irishman. One day the two men were washing down the deck. The Englishman threw a bucket overboard to get more water and in the process fell overboard and was swallowed up by the sea. The Irishman went to the captain.</p>\u000a<p>&#8216;You remember,&#8217; he said, &#8216;that you made me give references but not that Englishman.&#8217;</p>\u000a<p>&#8216;Yes,&#8217; said the captain, &#8216;I remember all the fuss you made about it, too.&#8217;</p>\u000a<p>&#8216;Well,&#8217; said the Irishman, &#8216;I just want you to know that the Englishman has now gone off with your pail.&#8217;\u000a</p></blockquote>\u000a<p>&#8211; Ralph Louis Woods, <em>Modern Handbook of Humor</em>, 1967</p>\u000a\u000a<p><a href="http://feedads.g.doubleclick.net/~a/T0DCCihld27EGuXIE0Ps-Uwz-DQ/0/da"><img src="http://feedads.g.doubleclick.net/~a/T0DCCihld27EGuXIE0Ps-Uwz-DQ/0/di" border="0" ismap="true" /></a><br />\u000a<a href="http://feedads.g.doubleclick.net/~a/T0DCCihld27EGuXIE0Ps-Uwz-DQ/1/da"><img src="http://feedads.g.doubleclick.net/~a/T0DCCihld27EGuXIE0Ps-Uwz-DQ/1/di" border="0" ismap="true" /></a></p><img src="http://feeds.feedburner.com/~r/FutilityCloset/~4/jTj3j6tF2Fo" height="1" width="1" />
p1413
stRp1414
asS'guidislink'
p1415
I00
sS'title_detail'
p1416
g1
(g2
g3
(dp1417
g1364
S'http://feeds.feedburner.com/FutilityCloset'
p1418
sg1366
S'text/plain'
p1419
sg1368
Nsg1369
g1402
stRp1420
sS'canto_state'
p1421
(lp1422
VFutility Closet
p1423
aV*
aS'read'
p1424
astRp1425
ag1
(g2
g3
(dp1426
S'summary_detail'
p1427
g1
(g2
g3
(dp1428
S'base'
p1429
S'http://feeds.feedburner.com/FutilityCloset'
p1430
sS'type'
p1431
S'text/html'
p1432
sS'language'
p1433
NsS'value'
p1434
V&#8220;If I had no duties, and no reference to futurity, I would spend my life driving briskly in a post-chaise with a pretty woman; but she should be one who could understand me, and would add something to the conversation.&#8221; &#8212; Samuel Johnson &#8220;I suppose that even the most pleasurable of imaginable occupations, that of [...]
p1435
stRp1436
sS'updated_parsed'
p1437
g84
((I2011
I2
I6
I6
I42
I27
I6
I37
I0
t(dtRp1438
sS'links'
p1439
(lp1440
g1
(g2
g3
(dp1441
S'href'
p1442
Vhttp://feedproxy.google.com/~r/FutilityCloset/~3/XwgjMVlCjJo/
p1443
sg1431
S'text/html'
p1444
sS'rel'
p1445
S'alternate'
p1446
stRp1447
asS'tags'
p1448
(lp1449
g1
(g2
g3
(dp1450
S'term'
p1451
VLiterature
p1452
sS'scheme'
p1453
NsS'label'
p1454
NstRp1455
asS'feedburner_origlink'
p1456
Vhttp://www.futilitycloset.com/2011/02/06/writers-fancies/
p1457
sS'updated'
p1458
VSun, 06 Feb 2011 06:42:27 +0000
p1459
sS'link'
p1460
g1443
sS'wfw_commentrss'
p1461
Vhttp://www.futilitycloset.com/2011/02/06/writers-fancies/feed/
p1462
sS'id'
p1463
Vhttp://www.futilitycloset.com/?p=20339
p1464
sS'slash_comments'
p1465
V0
sS'title'
p1466
VWriters\u2019 Fancies
p1467
sS'author'
p1468
VGreg Ross
p1469
sS'comments'
p1470
Vhttp://www.futilitycloset.com/2011/02/06/writers-fancies/#comments
p1471
sS'summary'
p1472
g1435
sS'content'
p1473
(lp1474
g1
(g2
g3
(dp1475
g1429
S'http://feeds.feedburner.com/FutilityCloset'
p1476
sg1431
S'text/html'
p1477
sg1433
Nsg1434
V<p>&#8220;If I had no duties, and no reference to futurity, I would spend my life driving briskly in a post-chaise with a pretty woman; but she should be one who could understand me, and would add something to the conversation.&#8221; &#8212; Samuel Johnson</p>\u000a<p>&#8220;I suppose that even the most pleasurable of imaginable occupations, that of batting baseballs through the windows of the RCA Building, would pall a little as the days ran on.&#8221; &#8212; James Thurber</p>\u000a<p>Isaac Asimov, a claustrophile, used to envy the keepers of New York subway newsstands, &#8220;for I imagined they could board it up whenever they wanted to, put the light on, lie on a cot at the bottom, and read magazines. I used to fantasize doing so, with the warm rumble of the subway trains intermittently passing.&#8221;</p>\u000a\u000a<p><a href="http://feedads.g.doubleclick.net/~a/M2kv74DjR6YCkaZ-MX2fXz9M3Q8/0/da"><img src="http://feedads.g.doubleclick.net/~a/M2kv74DjR6YCkaZ-MX2fXz9M3Q8/0/di" border="0" ismap="true" /></a><br />\u000a<a href="http://feedads.g.doubleclick.net/~a/M2kv74DjR6YCkaZ-MX2fXz9M3Q8/1/da"><img src="http://feedads.g.doubleclick.net/~a/M2kv74DjR6YCkaZ-MX2fXz9M3Q8/1/di" border="0" ismap="true" /></a></p><img src="http://feeds.feedburner.com/~r/FutilityCloset/~4/XwgjMVlCjJo" height="1" width="1" />
p1478
stRp1479
asS'guidislink'
p1480
I00
sS'title_detail'
p1481
g1
(g2
g3
(dp1482
g1429
S'http://feeds.feedburner.com/FutilityCloset'
p1483
sg1431
S'text/plain'
p1484
sg1433
Nsg1434
g1467
stRp1485
sS'canto_state'
p1486
(lp1487
g1423
aV*
ag1424
astRp1488
ag1
(g2
g3
(dp1489
S'summary_detail'
p1490
g1
(g2
g3
(dp1491
S'base'
p1492
S'http://feeds.feedburner.com/FutilityCloset'
p1493
sS'type'
p1494
S'text/html'
p1495
sS'language'
p1496
NsS'value'
p1497
VIf God is infinitely just, he will punish wrongdoers. If he&#8217;s infinitely merciful, he&#8217;ll forgive them. Can he do both? (Bonus palindrome: Did I do, O God, did I as I said I&#8217;d do? Good, I did!)
p1498
stRp1499
sS'updated_parsed'
p1500
g84
((I2011
I2
I5
I22
I27
I33
I5
I36
I0
t(dtRp1501
sS'links'
p1502
(lp1503
g1
(g2
g3
(dp1504
S'href'
p1505
Vhttp://feedproxy.google.com/~r/FutilityCloset/~3/HrD7rrrsHA8/
p1506
sg1494
S'text/html'
p1507
sS'rel'
p1508
S'alternate'
p1509
stRp1510
asS'tags'
p1511
(lp1512
g1
(g2
g3
(dp1513
S'term'
p1514
VReligion
p1515
sS'scheme'
p1516
NsS'label'
p1517
NstRp1518
asS'feedburner_origlink'
p1519
Vhttp://www.futilitycloset.com/2011/02/05/high-anxiety/
p1520
sS'updated'
p1521
VSat, 05 Feb 2011 22:27:33 +0000
p1522
sS'link'
p1523
g1506
sS'wfw_commentrss'
p1524
Vhttp://www.futilitycloset.com/2011/02/05/high-anxiety/feed/
p1525
sS'id'
p1526
Vhttp://www.futilitycloset.com/?p=20329
p1527
sS'slash_comments'
p1528
V0
sS'title'
p1529
VHigh Anxiety
p1530
sS'author'
p1531
VGreg Ross
p1532
sS'comments'
p1533
Vhttp://www.futilitycloset.com/2011/02/05/high-anxiety/#comments
p1534
sS'summary'
p1535
g1498
sS'content'
p1536
(lp1537
g1
(g2
g3
(dp1538
g1492
S'http://feeds.feedburner.com/FutilityCloset'
p1539
sg1494
S'text/html'
p1540
sg1496
Nsg1497
V<p><img src="http://www.futilitycloset.com/wp-content/uploads/2011/02/2011-02-05-high-anxiety.jpg" alt="http://commons.wikimedia.org/wiki/File:Sun_and_Moon_creation.jpg" title="2011-02-05-high-anxiety" width="500" height="316" class="alignnone size-full wp-image-20330" /></p>\u000a<p>If God is infinitely just, he will punish wrongdoers.</p>\u000a<p>If he&#8217;s infinitely merciful, he&#8217;ll forgive them.</p>\u000a<p>Can he do both?</p>\u000a<p>(Bonus palindrome: Did I do, O God, did I as I said I&#8217;d do? Good, I did!)</p>\u000a\u000a<p><a href="http://feedads.g.doubleclick.net/~a/mpoepNTrHUrYIHG86Dcc7AMxzpk/0/da"><img src="http://feedads.g.doubleclick.net/~a/mpoepNTrHUrYIHG86Dcc7AMxzpk/0/di" border="0" ismap="true" /></a><br />\u000a<a href="http://feedads.g.doubleclick.net/~a/mpoepNTrHUrYIHG86Dcc7AMxzpk/1/da"><img src="http://feedads.g.doubleclick.net/~a/mpoepNTrHUrYIHG86Dcc7AMxzpk/1/di" border="0" ismap="true" /></a></p><img src="http://feeds.feedburner.com/~r/FutilityCloset/~4/HrD7rrrsHA8" height="1" width="1" />
p1541
stRp1542
asS'guidislink'
p1543
I00
sS'title_detail'
p1544
g1
(g2
g3
(dp1545
g1492
S'http://feeds.feedburner.com/FutilityCloset'
p1546
sg1494
S'text/plain'
p1547
sg1496
Nsg1497
g1530
stRp1548
sS'canto_state'
p1549
(lp1550
VFutility Closet
p1551
aV*
aS'read'
p1552
astRp1553
ag1
(g2
g3
(dp1554
S'summary_detail'
p1555
g1
(g2
g3
(dp1556
S'base'
p1557
S'http://feeds.feedburner.com/FutilityCloset'
p1558
sS'type'
p1559
S'text/html'
p1560
sS'value'
p1561
VA whimsical traveler on one of the main trails in the State of Georgia painted, on a large rock, the words, &#8216;Turn Me Over.&#8217; Other travelers heaved and struggled to turn the rock over. On the underside of it they found painted, &#8216;Now Turn Me Back That I May Fool Another.&#8217; &#8211; H. Allen Smith, [...]
p1562
sS'language'
p1563
NstRp1564
sS'updated_parsed'
p1565
g84
((I2011
I2
I5
I14
I26
I56
I5
I36
I0
t(dtRp1566
sS'links'
p1567
(lp1568
g1
(g2
g3
(dp1569
S'href'
p1570
Vhttp://feedproxy.google.com/~r/FutilityCloset/~3/PIcOUCwYJlI/
p1571
sg1559
S'text/html'
p1572
sS'rel'
p1573
S'alternate'
p1574
stRp1575
asS'tags'
p1576
(lp1577
g1
(g2
g3
(dp1578
S'term'
p1579
VHumor
p1580
sS'scheme'
p1581
NsS'label'
p1582
NstRp1583
asS'feedburner_origlink'
p1584
Vhttp://www.futilitycloset.com/2011/02/05/so-it-goes-2/
p1585
sS'updated'
p1586
VSat, 05 Feb 2011 14:26:56 +0000
p1587
sS'link'
p1588
g1571
sS'wfw_commentrss'
p1589
Vhttp://www.futilitycloset.com/2011/02/05/so-it-goes-2/feed/
p1590
sS'id'
p1591
Vhttp://www.futilitycloset.com/?p=20326
p1592
sS'slash_comments'
p1593
V0
sS'title'
p1594
VSo It Goes
p1595
sS'author'
p1596
VGreg Ross
p1597
sS'comments'
p1598
Vhttp://www.futilitycloset.com/2011/02/05/so-it-goes-2/#comments
p1599
sS'summary'
p1600
g1562
sS'content'
p1601
(lp1602
g1
(g2
g3
(dp1603
g1557
S'http://feeds.feedburner.com/FutilityCloset'
p1604
sg1559
S'text/html'
p1605
sg1561
V<blockquote><p>\u000aA whimsical traveler on one of the main trails in the State of Georgia painted, on a large rock, the words, &#8216;Turn Me Over.&#8217; Other travelers heaved and struggled to turn the rock over. On the underside of it they found painted, &#8216;Now Turn Me Back That I May Fool Another.&#8217;\u000a</p></blockquote>\u000a<p>&#8211; H. Allen Smith, <em>The Compleat Practical Joker</em>, 1953</p>\u000a\u000a<p><a href="http://feedads.g.doubleclick.net/~a/x4QGcp_L8Jzx9PuxLrvA7-69lEw/0/da"><img src="http://feedads.g.doubleclick.net/~a/x4QGcp_L8Jzx9PuxLrvA7-69lEw/0/di" border="0" ismap="true" /></a><br />\u000a<a href="http://feedads.g.doubleclick.net/~a/x4QGcp_L8Jzx9PuxLrvA7-69lEw/1/da"><img src="http://feedads.g.doubleclick.net/~a/x4QGcp_L8Jzx9PuxLrvA7-69lEw/1/di" border="0" ismap="true" /></a></p><img src="http://feeds.feedburner.com/~r/FutilityCloset/~4/PIcOUCwYJlI" height="1" width="1" />
p1606
sg1563
NstRp1607
asS'guidislink'
p1608
I00
sS'title_detail'
p1609
g1
(g2
g3
(dp1610
g1557
S'http://feeds.feedburner.com/FutilityCloset'
p1611
sg1559
S'text/plain'
p1612
sg1561
g1595
sg1563
NstRp1613
sS'canto_state'
p1614
(lp1615
VFutility Closet
p1616
aV*
aS'read'
p1617
astRp1618
ag1
(g2
g3
(dp1619
S'summary_detail'
p1620
g1
(g2
g3
(dp1621
g1557
S'http://feeds.feedburner.com/FutilityCloset'
p1622
sg1559
S'text/html'
p1623
sg1561
VIn 1913, German acrobat Otto Witte was traveling through the Balkans when Albania declared its independence from the Ottoman Empire. A fellow circus performer noted Witte&#8217;s resemblance to Prince Halim Eddine, whom a local faction were entreating to head the new state. Witte maintained that he forged a couple of telegrams, arrived in the fledgling [...]
p1624
sg1563
NstRp1625
sg1565
g84
((I2011
I2
I5
I6
I25
I16
I5
I36
I0
t(dtRp1626
sg1567
(lp1627
g1
(g2
g3
(dp1628
g1570
Vhttp://feedproxy.google.com/~r/FutilityCloset/~3/7kj1YXZysW0/
p1629
sg1559
g1572
sg1573
g1574
stRp1630
asg1576
(lp1631
g1
(g2
g3
(dp1632
g1579
VHoaxes
p1633
sg1581
Nsg1582
NstRp1634
asS'feedburner_origlink'
p1635
Vhttp://www.futilitycloset.com/2011/02/05/king-for-a-day/
p1636
sg1586
VSat, 05 Feb 2011 06:25:16 +0000
p1637
sg1588
g1629
sS'wfw_commentrss'
p1638
Vhttp://www.futilitycloset.com/2011/02/05/king-for-a-day/feed/
p1639
sg1591
Vhttp://www.futilitycloset.com/?p=20323
p1640
sS'slash_comments'
p1641
V0
sg1594
VKing for a Day
p1642
sg1596
VGreg Ross
p1643
sS'comments'
p1644
Vhttp://www.futilitycloset.com/2011/02/05/king-for-a-day/#comments
p1645
sg1600
g1624
sg1601
(lp1646
g1
(g2
g3
(dp1647
g1557
S'http://feeds.feedburner.com/FutilityCloset'
p1648
sg1559
S'text/html'
p1649
sg1561
V<p>In 1913, German acrobat Otto Witte was traveling through the Balkans when Albania declared its independence from the Ottoman Empire. A fellow circus performer noted Witte&#8217;s resemblance to Prince Halim Eddine, whom a local faction were entreating to head the new state.</p>\u000a<p>Witte maintained that he forged a couple of telegrams, arrived in the fledgling nation posing as Eddine, took control of the military, and was proclaimed king. For five days he disported with harem girls, ordered amnesty for prisoners, and distributed gold among the local chieftains. When inquiries began to arrive from Constantinople, he slipped out of town &#8220;to avoid unnecessary bloodshed.&#8221;</p>\u000a<p>Skeptics note that this story is uncomfortably close to <em>The Prisoner of Zenda</em>, whose first film adaptation had appeared in that year. But Witte insisted the story was true, pointing to his official identity card, issued by the Berlin police, which listed his occupation as &#8220;circus entertainer&#8221; and &#8220;onetime king of Albania.&#8221; He seems to have convinced at least himself of the tale &#8212; when Witte died in 1958, <em>Time</em> noted that he would accept only mail that was addressed to &#8220;Otto I, ex-King of Albania.&#8221;</p>\u000a\u000a<p><a href="http://feedads.g.doubleclick.net/~a/d95ndOlrhyIoH3AseJC2PL0DJxc/0/da"><img src="http://feedads.g.doubleclick.net/~a/d95ndOlrhyIoH3AseJC2PL0DJxc/0/di" border="0" ismap="true" /></a><br />\u000a<a href="http://feedads.g.doubleclick.net/~a/d95ndOlrhyIoH3AseJC2PL0DJxc/1/da"><img src="http://feedads.g.doubleclick.net/~a/d95ndOlrhyIoH3AseJC2PL0DJxc/1/di" border="0" ismap="true" /></a></p><img src="http://feeds.feedburner.com/~r/FutilityCloset/~4/7kj1YXZysW0" height="1" width="1" />
p1650
sg1563
NstRp1651
asg1608
I00
sS'title_detail'
p1652
g1
(g2
g3
(dp1653
g1557
S'http://feeds.feedburner.com/FutilityCloset'
p1654
sg1559
S'text/plain'
p1655
sg1561
g1642
sg1563
NstRp1656
sg1614
(lp1657
VFutility Closet
p1658
aV*
aS'read'
p1659
astRp1660
ag1
(g2
g3
(dp1661
S'summary_detail'
p1662
g1
(g2
g3
(dp1663
S'base'
p1664
S'http://feeds.feedburner.com/FutilityCloset'
p1665
sS'type'
p1666
S'text/html'
p1667
sS'value'
p1668
VIn 1971, Fred E. Stuart patented a &#8220;firearm mounted in a shoe heel.&#8221; He envisions military personnel and police using it when &#8220;regular weapons have been lost or become jammed.&#8221; The shoes can fire regular bullets, frangible projectiles, or even tear gas, and can be fitted with multiple barrels that fire independently. Combine this with [...]
p1669
sS'language'
p1670
NstRp1671
sS'updated_parsed'
p1672
g84
((I2011
I2
I4
I22
I23
I51
I4
I35
I0
t(dtRp1673
sS'links'
p1674
(lp1675
g1
(g2
g3
(dp1676
S'href'
p1677
Vhttp://feedproxy.google.com/~r/FutilityCloset/~3/t6QBxywrLKw/
p1678
sg1666
S'text/html'
p1679
sS'rel'
p1680
S'alternate'
p1681
stRp1682
asS'tags'
p1683
(lp1684
g1
(g2
g3
(dp1685
S'term'
p1686
VTechnology
p1687
sS'scheme'
p1688
NsS'label'
p1689
NstRp1690
asS'feedburner_origlink'
p1691
Vhttp://www.futilitycloset.com/2011/02/04/sole-flambe/
p1692
sS'updated'
p1693
VFri, 04 Feb 2011 22:23:51 +0000
p1694
sS'link'
p1695
g1678
sS'wfw_commentrss'
p1696
Vhttp://www.futilitycloset.com/2011/02/04/sole-flambe/feed/
p1697
sS'id'
p1698
Vhttp://www.futilitycloset.com/?p=20310
p1699
sS'slash_comments'
p1700
V0
sS'title'
p1701
VSole Flambe
p1702
sS'author'
p1703
VGreg Ross
p1704
sS'comments'
p1705
Vhttp://www.futilitycloset.com/2011/02/04/sole-flambe/#comments
p1706
sS'summary'
p1707
g1669
sS'content'
p1708
(lp1709
g1
(g2
g3
(dp1710
g1664
S'http://feeds.feedburner.com/FutilityCloset'
p1711
sg1666
S'text/html'
p1712
sg1668
V<p><img src="http://www.futilitycloset.com/wp-content/uploads/2011/02/2011-02-04-sole-flambe.png" alt="http://www.google.com/patents/about?id=yNl0AAAAEBAJ&dq=3557481" title="2011-02-04-sole-flambe" width="444" height="206" class="alignnone size-full wp-image-20311" /></p>\u000a<p>In 1971, Fred E. Stuart patented a &#8220;firearm mounted in a shoe heel.&#8221; He envisions military personnel and police using it when &#8220;regular weapons have been lost or become jammed.&#8221;</p>\u000a<p>The shoes can fire regular bullets, frangible projectiles, or even tear gas, and can be fitted with multiple barrels that fire independently.</p>\u000a<p>Combine this with a <a href="http://www.futilitycloset.com/2008/11/28/backtracking/">reversible sole</a> and you have the makings of a perfect murder &#8212; a concealed weapon that confuses the crime scene.</p>\u000a\u000a<p><a href="http://feedads.g.doubleclick.net/~a/XUiO9gNZ7s7LeSVTG3I8LuXqW4E/0/da"><img src="http://feedads.g.doubleclick.net/~a/XUiO9gNZ7s7LeSVTG3I8LuXqW4E/0/di" border="0" ismap="true" /></a><br />\u000a<a href="http://feedads.g.doubleclick.net/~a/XUiO9gNZ7s7LeSVTG3I8LuXqW4E/1/da"><img src="http://feedads.g.doubleclick.net/~a/XUiO9gNZ7s7LeSVTG3I8LuXqW4E/1/di" border="0" ismap="true" /></a></p><img src="http://feeds.feedburner.com/~r/FutilityCloset/~4/t6QBxywrLKw" height="1" width="1" />
p1713
sg1670
NstRp1714
asS'guidislink'
p1715
I00
sS'title_detail'
p1716
g1
(g2
g3
(dp1717
g1664
S'http://feeds.feedburner.com/FutilityCloset'
p1718
sg1666
S'text/plain'
p1719
sg1668
g1702
sg1670
NstRp1720
sS'canto_state'
p1721
(lp1722
VFutility Closet
p1723
aV*
aS'read'
p1724
astRp1725
ag1
(g2
g3
(dp1726
S'summary_detail'
p1727
g1
(g2
g3
(dp1728
S'base'
p1729
S'http://feeds.feedburner.com/FutilityCloset'
p1730
sS'type'
p1731
S'text/html'
p1732
sS'language'
p1733
NsS'value'
p1734
VThe Cincinnati Gazette says that &#8216;William Marcy, a colored boy from Kentucky, who was in that city lately, can add up columns of figures of any length, divide any given sum, multiply millions by thousands within five minutes from the time the figures are given to him, and with such exactness as to render it [...]
p1735
stRp1736
sS'updated_parsed'
p1737
g84
((I2011
I2
I4
I14
I37
I9
I4
I35
I0
t(dtRp1738
sS'links'
p1739
(lp1740
g1
(g2
g3
(dp1741
S'href'
p1742
Vhttp://feedproxy.google.com/~r/FutilityCloset/~3/buU1Bn4KVrw/
p1743
sg1731
S'text/html'
p1744
sS'rel'
p1745
S'alternate'
p1746
stRp1747
asS'tags'
p1748
(lp1749
g1
(g2
g3
(dp1750
S'term'
p1751
VOddities
p1752
sS'scheme'
p1753
NsS'label'
p1754
NstRp1755
asS'feedburner_origlink'
p1756
Vhttp://www.futilitycloset.com/2011/02/04/mathematical-genius/
p1757
sS'updated'
p1758
VFri, 04 Feb 2011 14:37:09 +0000
p1759
sS'link'
p1760
g1743
sS'wfw_commentrss'
p1761
Vhttp://www.futilitycloset.com/2011/02/04/mathematical-genius/feed/
p1762
sS'id'
p1763
Vhttp://www.futilitycloset.com/?p=20315
p1764
sS'slash_comments'
p1765
V0
sS'title'
p1766
V\u201cMathematical Genius\u201d
p1767
sS'author'
p1768
VGreg Ross
p1769
sS'comments'
p1770
Vhttp://www.futilitycloset.com/2011/02/04/mathematical-genius/#comments
p1771
sS'summary'
p1772
g1735
sS'content'
p1773
(lp1774
g1
(g2
g3
(dp1775
g1729
S'http://feeds.feedburner.com/FutilityCloset'
p1776
sg1731
S'text/html'
p1777
sg1733
Nsg1734
V<blockquote><p>\u000aThe <em>Cincinnati Gazette</em> says that &#8216;William Marcy, a colored boy from Kentucky, who was in that city lately, can add up columns of figures of any length, divide any given sum, multiply millions by thousands within <em>five minutes</em> from the time the figures are given to him, and with such exactness as to render it truly wonderful. Recently, in the presence of a party of gentlemen, he added a column of figures, <em>eight</em> in a line, and <em>one hundred and eighty</em> lines, making the sum total of several millions, within <em>six minutes</em>. The feat was so astounding, and apparently incredible, that several of the party took off their coats, and, dividing the sum, went to work, and in two hours after they commenced produced identically the same answers. The boy is not quite seventeen years of age; he cannot read nor write, and in every other branch of an English education is entirely deficient.&#8217;\u000a</p></blockquote>\u000a<p>&#8211; <em>The National Magazine</em>, December 1853</p>\u000a\u000a<p><a href="http://feedads.g.doubleclick.net/~a/tI50qjDUjkZ3W4srtnMrzH8Olqs/0/da"><img src="http://feedads.g.doubleclick.net/~a/tI50qjDUjkZ3W4srtnMrzH8Olqs/0/di" border="0" ismap="true" /></a><br />\u000a<a href="http://feedads.g.doubleclick.net/~a/tI50qjDUjkZ3W4srtnMrzH8Olqs/1/da"><img src="http://feedads.g.doubleclick.net/~a/tI50qjDUjkZ3W4srtnMrzH8Olqs/1/di" border="0" ismap="true" /></a></p><img src="http://feeds.feedburner.com/~r/FutilityCloset/~4/buU1Bn4KVrw" height="1" width="1" />
p1778
stRp1779
asS'guidislink'
p1780
I00
sS'title_detail'
p1781
g1
(g2
g3
(dp1782
g1729
S'http://feeds.feedburner.com/FutilityCloset'
p1783
sg1731
S'text/plain'
p1784
sg1733
Nsg1734
g1767
stRp1785
sS'canto_state'
p1786
(lp1787
VFutility Closet
p1788
aV*
aS'read'
p1789
astRp1790
ag1
(g2
g3
(dp1791
S'summary_detail'
p1792
g1
(g2
g3
(dp1793
S'base'
p1794
S'http://feeds.feedburner.com/FutilityCloset'
p1795
sS'type'
p1796
S'text/html'
p1797
sS'language'
p1798
NsS'value'
p1799
VHerbert Hoover drew this doodle while being interviewed. When he tossed it in a White House wastebasket, a guest retrieved it and asked him to sign it. The guest then sold it to collector Thomas Madigan &#8230; who resold it for a substantial sum. Thereupon the doodle was published in newspapers across the country, often [...]
p1800
stRp1801
sS'updated_parsed'
p1802
g84
((I2011
I2
I4
I6
I55
I12
I4
I35
I0
t(dtRp1803
sS'links'
p1804
(lp1805
g1
(g2
g3
(dp1806
S'href'
p1807
Vhttp://feedproxy.google.com/~r/FutilityCloset/~3/gwze78GCx74/
p1808
sg1796
S'text/html'
p1809
sS'rel'
p1810
S'alternate'
p1811
stRp1812
asS'tags'
p1813
(lp1814
g1
(g2
g3
(dp1815
S'term'
p1816
VHistory
p1817
sS'scheme'
p1818
NsS'label'
p1819
NstRp1820
asS'feedburner_origlink'
p1821
Vhttp://www.futilitycloset.com/2011/02/04/every-little-thing/
p1822
sS'updated'
p1823
VFri, 04 Feb 2011 06:55:12 +0000
p1824
sS'link'
p1825
g1808
sS'wfw_commentrss'
p1826
Vhttp://www.futilitycloset.com/2011/02/04/every-little-thing/feed/
p1827
sS'id'
p1828
Vhttp://www.futilitycloset.com/?p=20318
p1829
sS'slash_comments'
p1830
V0
sS'title'
p1831
VEvery Little Thing
p1832
sS'author'
p1833
VGreg Ross
p1834
sS'comments'
p1835
Vhttp://www.futilitycloset.com/2011/02/04/every-little-thing/#comments
p1836
sS'summary'
p1837
g1800
sS'content'
p1838
(lp1839
g1
(g2
g3
(dp1840
g1794
S'http://feeds.feedburner.com/FutilityCloset'
p1841
sg1796
S'text/html'
p1842
sg1798
Nsg1799
V<p><img src="http://www.futilitycloset.com/wp-content/uploads/2011/02/2011-02-04-every-little-thing.jpg" alt="hoover doodle" title="2011-02-04-every-little-thing" width="528" height="440" class="alignnone size-full wp-image-20319" /></p>\u000a<p>Herbert Hoover drew this doodle while being interviewed. When he tossed it in a White House wastebasket, a guest retrieved it and asked him to sign it. The guest then sold it to collector Thomas Madigan &#8230; who resold it for a substantial sum.</p>\u000a<p>Thereupon the doodle was published in newspapers across the country, often with expert interpretations. &#8220;Generally this man is highly efficient, a man who figures things out and who is at his best tackling difficult tasks,&#8221; opined one for the <em>Chicago Tribune</em>. Another objected: &#8220;It is the normal thing for a man to do &#8212; to occupy himself scribbling with a pencil when talking over the telephone or listening to someone. It would be significant if the president did not do this.&#8221;</p>\u000a<p>Before it was over, the doodle had been converted into a fabric pattern for children&#8217;s rompers, which even Hoover&#8217;s granddaughter was said to have worn. If the president had an opinion about all this, he kept it to himself.</p>\u000a\u000a<p><a href="http://feedads.g.doubleclick.net/~a/S8Ro4g1AT84bcJyt22e1PJeYkTU/0/da"><img src="http://feedads.g.doubleclick.net/~a/S8Ro4g1AT84bcJyt22e1PJeYkTU/0/di" border="0" ismap="true" /></a><br />\u000a<a href="http://feedads.g.doubleclick.net/~a/S8Ro4g1AT84bcJyt22e1PJeYkTU/1/da"><img src="http://feedads.g.doubleclick.net/~a/S8Ro4g1AT84bcJyt22e1PJeYkTU/1/di" border="0" ismap="true" /></a></p><img src="http://feeds.feedburner.com/~r/FutilityCloset/~4/gwze78GCx74" height="1" width="1" />
p1843
stRp1844
asS'guidislink'
p1845
I00
sS'title_detail'
p1846
g1
(g2
g3
(dp1847
g1794
S'http://feeds.feedburner.com/FutilityCloset'
p1848
sg1796
S'text/plain'
p1849
sg1798
Nsg1799
g1832
stRp1850
sS'canto_state'
p1851
(lp1852
VFutility Closet
p1853
aV*
aS'read'
p1854
astRp1855
ag1
(g2
g3
(dp1856
S'summary_detail'
p1857
g1
(g2
g3
(dp1858
S'base'
p1859
S'http://feeds.feedburner.com/FutilityCloset'
p1860
sS'type'
p1861
S'text/html'
p1862
sS'value'
p1863
VFrom Strand, August 1906: A circular canon is so named not because of its circular form, but because it completes the circle of fifths&#8211;i.e., it goes through all the keys, each a perfect fifth above the other, until it returns to the original key. The one under notice is written in triple counterpoint, any part [...]
p1864
sS'language'
p1865
NstRp1866
sS'updated_parsed'
p1867
g84
((I2011
I2
I3
I22
I42
I51
I3
I34
I0
t(dtRp1868
sS'links'
p1869
(lp1870
g1
(g2
g3
(dp1871
S'href'
p1872
Vhttp://feedproxy.google.com/~r/FutilityCloset/~3/7goHjLExw5g/
p1873
sg1861
S'text/html'
p1874
sS'rel'
p1875
S'alternate'
p1876
stRp1877
asS'tags'
p1878
(lp1879
g1
(g2
g3
(dp1880
S'term'
p1881
VArt
p1882
sS'scheme'
p1883
NsS'label'
p1884
NstRp1885
ag1
(g2
g3
(dp1886
g1881
VOddities
p1887
sg1883
Nsg1884
NstRp1888
asS'feedburner_origlink'
p1889
Vhttp://www.futilitycloset.com/2011/02/03/a-well-tempered-cartwheel/
p1890
sS'updated'
p1891
VThu, 03 Feb 2011 22:42:51 +0000
p1892
sS'link'
p1893
g1873
sS'wfw_commentrss'
p1894
Vhttp://www.futilitycloset.com/2011/02/03/a-well-tempered-cartwheel/feed/
p1895
sS'id'
p1896
Vhttp://www.futilitycloset.com/?p=20292
p1897
sS'slash_comments'
p1898
V0
sS'title'
p1899
VA Well-Tempered Cartwheel
p1900
sS'author'
p1901
VGreg Ross
p1902
sS'comments'
p1903
Vhttp://www.futilitycloset.com/2011/02/03/a-well-tempered-cartwheel/#comments
p1904
sS'summary'
p1905
g1864
sS'content'
p1906
(lp1907
g1
(g2
g3
(dp1908
g1859
S'http://feeds.feedburner.com/FutilityCloset'
p1909
sg1861
S'text/html'
p1910
sg1863
V<p><img src="http://www.futilitycloset.com/wp-content/uploads/2011/01/2011-01-03-a-well-tempered-cartwheel.jpg" alt="http://books.google.com/books?id=TbUvAAAAMAAJ&printsec=frontcover&vq=circular+canon#v=onepage&q=circular\u005c%20canon&f=false" title="2011-01-03-a-well-tempered-cartwheel" width="461" height="464" class="alignnone size-full wp-image-20293" /></p>\u000a<p>From <em>Strand</em>, August 1906:</p>\u000a<blockquote><p>\u000aA circular canon is so named not because of its circular form, but because it completes the circle of fifths&#8211;i.e., it goes through all the keys, each a perfect fifth above the other, until it returns to the original key. The one under notice is written in triple counterpoint, any part sounding equally well in the top, middle, or lowest voice, and each bar is in three different keys at once, all harmonizing.\u000a</p></blockquote>\u000a<p>This rendering is a bit indistinct, I&#8217;m afraid &#8212; if I can find a clearer version I&#8217;ll post it.</p>\u000a\u000a<p><a href="http://feedads.g.doubleclick.net/~a/DGsNrjXsFEAxAs5FDHiLgwOLcEs/0/da"><img src="http://feedads.g.doubleclick.net/~a/DGsNrjXsFEAxAs5FDHiLgwOLcEs/0/di" border="0" ismap="true" /></a><br />\u000a<a href="http://feedads.g.doubleclick.net/~a/DGsNrjXsFEAxAs5FDHiLgwOLcEs/1/da"><img src="http://feedads.g.doubleclick.net/~a/DGsNrjXsFEAxAs5FDHiLgwOLcEs/1/di" border="0" ismap="true" /></a></p><img src="http://feeds.feedburner.com/~r/FutilityCloset/~4/7goHjLExw5g" height="1" width="1" />
p1911
sg1865
NstRp1912
asS'guidislink'
p1913
I00
sS'title_detail'
p1914
g1
(g2
g3
(dp1915
g1859
S'http://feeds.feedburner.com/FutilityCloset'
p1916
sg1861
S'text/plain'
p1917
sg1863
g1900
sg1865
NstRp1918
sS'canto_state'
p1919
(lp1920
VFutility Closet
p1921
aV*
aS'read'
p1922
astRp1923
ag1
(g2
g3
(dp1924
S'summary_detail'
p1925
g1
(g2
g3
(dp1926
S'base'
p1927
S'http://feeds.feedburner.com/FutilityCloset'
p1928
sS'type'
p1929
S'text/html'
p1930
sS'language'
p1931
NsS'value'
p1932
VIn the November 2010 Word Ways, Mike Keith notes a striking coincidence: Bible&#8217;s Machine and Welding 6499 Blue Springs Pkwy Mosheim, TN 37818 That&#8217;s the address of a machine shop in eastern Tennessee, presumably owned by a family named Bible. Enter the zip code in a calculator and turn it upside down.
p1933
stRp1934
sS'updated_parsed'
p1935
g84
((I2011
I2
I3
I14
I13
I48
I3
I34
I0
t(dtRp1936
sS'links'
p1937
(lp1938
g1
(g2
g3
(dp1939
S'href'
p1940
Vhttp://feedproxy.google.com/~r/FutilityCloset/~3/u5TZ2xt2wbg/
p1941
sg1929
S'text/html'
p1942
sS'rel'
p1943
S'alternate'
p1944
stRp1945
asS'tags'
p1946
(lp1947
g1
(g2
g3
(dp1948
S'term'
p1949
VLanguage
p1950
sS'scheme'
p1951
NsS'label'
p1952
NstRp1953
asS'feedburner_origlink'
p1954
Vhttp://www.futilitycloset.com/2011/02/03/truly-eerie-wordplay/
p1955
sS'updated'
p1956
VThu, 03 Feb 2011 14:13:48 +0000
p1957
sS'link'
p1958
g1941
sS'wfw_commentrss'
p1959
Vhttp://www.futilitycloset.com/2011/02/03/truly-eerie-wordplay/feed/
p1960
sS'id'
p1961
Vhttp://www.futilitycloset.com/?p=20299
p1962
sS'slash_comments'
p1963
V0
sS'title'
p1964
V\u201cTruly Eerie Wordplay\u201d
p1965
sS'author'
p1966
VGreg Ross
p1967
sS'comments'
p1968
Vhttp://www.futilitycloset.com/2011/02/03/truly-eerie-wordplay/#comments
p1969
sS'summary'
p1970
g1933
sS'content'
p1971
(lp1972
g1
(g2
g3
(dp1973
g1927
S'http://feeds.feedburner.com/FutilityCloset'
p1974
sg1929
S'text/html'
p1975
sg1931
Nsg1932
V<p>In the November 2010 <em>Word Ways</em>, Mike Keith notes a striking coincidence:</p>\u000a<p>Bible&#8217;s Machine and Welding<br />\u000a6499 Blue Springs Pkwy<br />\u000aMosheim, TN 37818</p>\u000a<p>That&#8217;s the address of a machine shop in eastern Tennessee, presumably owned by a family named Bible. Enter the zip code in a calculator and turn it upside down.</p>\u000a\u000a<p><a href="http://feedads.g.doubleclick.net/~a/mKXMSyISkptv4s-ro6tP4dFQ9aY/0/da"><img src="http://feedads.g.doubleclick.net/~a/mKXMSyISkptv4s-ro6tP4dFQ9aY/0/di" border="0" ismap="true" /></a><br />\u000a<a href="http://feedads.g.doubleclick.net/~a/mKXMSyISkptv4s-ro6tP4dFQ9aY/1/da"><img src="http://feedads.g.doubleclick.net/~a/mKXMSyISkptv4s-ro6tP4dFQ9aY/1/di" border="0" ismap="true" /></a></p><img src="http://feeds.feedburner.com/~r/FutilityCloset/~4/u5TZ2xt2wbg" height="1" width="1" />
p1976
stRp1977
asS'guidislink'
p1978
I00
sS'title_detail'
p1979
g1
(g2
g3
(dp1980
g1927
S'http://feeds.feedburner.com/FutilityCloset'
p1981
sg1929
S'text/plain'
p1982
sg1931
Nsg1932
g1965
stRp1983
sS'canto_state'
p1984
(lp1985
VFutility Closet
p1986
aV*
aS'read'
p1987
astRp1988
ag1
(g2
g3
(dp1989
S'summary_detail'
p1990
g1
(g2
g3
(dp1991
S'base'
p1992
S'http://feeds.feedburner.com/FutilityCloset'
p1993
sS'type'
p1994
S'text/html'
p1995
sS'language'
p1996
NsS'value'
p1997
VIn Nature, May 12, 1870, captain Charles Dennehy of the R.M.S. Shannon noted &#8220;a very curious phenomenon&#8221; observed by the occupants of iron vessels off the port of Grey Town, Nicaragua. &#8220;[W]hile at anchor in this situation, we hear, commencing with a marvellous punctuality at about midnight, a peculiar metallic vibratory sound, of sufficient loudness [...]
p1998
stRp1999
sS'updated_parsed'
p2000
g84
((I2011
I2
I3
I6
I11
I56
I3
I34
I0
t(dtRp2001
sS'links'
p2002
(lp2003
g1
(g2
g3
(dp2004
S'href'
p2005
Vhttp://feedproxy.google.com/~r/FutilityCloset/~3/4Zppaigx0k8/
p2006
sg1994
S'text/html'
p2007
sS'rel'
p2008
S'alternate'
p2009
stRp2010
asS'tags'
p2011
(lp2012
g1
(g2
g3
(dp2013
S'term'
p2014
VOddities
p2015
sS'scheme'
p2016
NsS'label'
p2017
NstRp2018
asS'feedburner_origlink'
p2019
Vhttp://www.futilitycloset.com/2011/02/03/the-grey-town-noises/
p2020
sS'updated'
p2021
VThu, 03 Feb 2011 06:11:56 +0000
p2022
sS'link'
p2023
g2006
sS'wfw_commentrss'
p2024
Vhttp://www.futilitycloset.com/2011/02/03/the-grey-town-noises/feed/
p2025
sS'id'
p2026
Vhttp://www.futilitycloset.com/?p=20296
p2027
sS'slash_comments'
p2028
V0
sS'title'
p2029
VThe Grey Town Noises
p2030
sS'author'
p2031
VGreg Ross
p2032
sS'comments'
p2033
Vhttp://www.futilitycloset.com/2011/02/03/the-grey-town-noises/#comments
p2034
sS'summary'
p2035
g1998
sS'content'
p2036
(lp2037
g1
(g2
g3
(dp2038
g1992
S'http://feeds.feedburner.com/FutilityCloset'
p2039
sg1994
S'text/html'
p2040
sg1996
Nsg1997
V<p>In <em>Nature</em>, May 12, 1870, captain Charles Dennehy of the R.M.S. <em>Shannon</em> noted &#8220;a very curious phenomenon&#8221; observed by the occupants of iron vessels off the port of Grey Town, Nicaragua.</p>\u000a<p>&#8220;[W]hile at anchor in this situation, we hear, commencing with a marvellous punctuality at about midnight, a peculiar metallic vibratory sound, of sufficient loudness to awaken a great majority of the ship&#8217;s crew, however tired they may be after a hard day&#8217;s work.&#8221;</p>\u000a<p>The sound, Dennehy said, converted the ship into &#8220;a great musical sounding board.&#8221; &#8220;It is musical, metallic, with a certain cadence, and a one-two-three time tendency of beat. It is heard most distinctly over open hatchways, over the engine-room, through the coal-shoots [sic], and close round the outside of the ship. It cannot be fixed at any one place, always appearing to recede from the observer. On applying the ear to the side of an open bunker, one fancies that it is proceeding from the very bottom of the hold.&#8221; It continued for about two hours, was heard only aboard iron vessels, and was unknown to the inhabitants on shore.</p>\u000a<p>Denney&#8217;s letter brought responses from readers who referred to similar sounds in Trinidad, India, and Chile. They postulated a &#8220;musical fish&#8221; or gas rising from vegetation on the seabed but offered no conclusive explanation.</p>\u000a<p>Curiously, William Corliss notes that the sounds&#8217; descriptions seem to match <a href="http://www.futilitycloset.com/2009/10/28/the-yellowstone-lake-whispers/">the Yellowstone Lake whispers</a>.</p>\u000a\u000a<p><a href="http://feedads.g.doubleclick.net/~a/BJhUQiD_iFh6G1Xcs-eSQMpHg60/0/da"><img src="http://feedads.g.doubleclick.net/~a/BJhUQiD_iFh6G1Xcs-eSQMpHg60/0/di" border="0" ismap="true" /></a><br />\u000a<a href="http://feedads.g.doubleclick.net/~a/BJhUQiD_iFh6G1Xcs-eSQMpHg60/1/da"><img src="http://feedads.g.doubleclick.net/~a/BJhUQiD_iFh6G1Xcs-eSQMpHg60/1/di" border="0" ismap="true" /></a></p><img src="http://feeds.feedburner.com/~r/FutilityCloset/~4/4Zppaigx0k8" height="1" width="1" />
p2041
stRp2042
asS'guidislink'
p2043
I00
sS'title_detail'
p2044
g1
(g2
g3
(dp2045
g1992
S'http://feeds.feedburner.com/FutilityCloset'
p2046
sg1994
S'text/plain'
p2047
sg1996
Nsg1997
g2030
stRp2048
sS'canto_state'
p2049
(lp2050
VFutility Closet
p2051
aV*
aS'read'
p2052
astRp2053
ag1
(g2
g3
(dp2054
S'summary_detail'
p2055
g1
(g2
g3
(dp2056
g1992
S'http://feeds.feedburner.com/FutilityCloset'
p2057
sg1994
S'text/html'
p2058
sg1996
Nsg1997
VIn 1938, the American Mathematical Monthly published an unlikely paper: &#8220;A Contribution to the Mathematical Theory of Big Game Hunting.&#8221; In it, Ralph Boas and Frank Smithies presented 16 ways to catch a lion using techniques inspired by modern math and physics. Examples: &#8220;The Method of Inversive Geometry. We place a spherical cage in the [...]
p2059
stRp2060
sg2000
g84
((I2011
I2
I2
I22
I38
I38
I2
I33
I0
t(dtRp2061
sg2002
(lp2062
g1
(g2
g3
(dp2063
g2005
Vhttp://feedproxy.google.com/~r/FutilityCloset/~3/FlOxtHpQlPw/
p2064
sg1994
g2007
sg2008
g2009
stRp2065
asg2011
(lp2066
g1
(g2
g3
(dp2067
g2014
VScience & Math
p2068
sg2016
Nsg2017
NstRp2069
asS'feedburner_origlink'
p2070
Vhttp://www.futilitycloset.com/2011/02/02/chasing-leo/
p2071
sg2021
VWed, 02 Feb 2011 22:38:38 +0000
p2072
sg2023
g2064
sS'wfw_commentrss'
p2073
Vhttp://www.futilitycloset.com/2011/02/02/chasing-leo/feed/
p2074
sg2026
Vhttp://www.futilitycloset.com/?p=20285
p2075
sS'slash_comments'
p2076
V0
sg2029
VChasing Leo
p2077
sg2031
VGreg Ross
p2078
sS'comments'
p2079
Vhttp://www.futilitycloset.com/2011/02/02/chasing-leo/#comments
p2080
sg2035
g2059
sg2036
(lp2081
g1
(g2
g3
(dp2082
g1992
S'http://feeds.feedburner.com/FutilityCloset'
p2083
sg1994
S'text/html'
p2084
sg1996
Nsg1997
V<p><img src="http://www.futilitycloset.com/wp-content/uploads/2011/01/2011-02-02-chasing-leo.jpg" alt="http://commons.wikimedia.org/wiki/File:Albrecht_D\u005c%C3\u005c%BCrer_055.jpg" title="2011-02-02-chasing-leo" width="500" height="335" class="alignnone size-full wp-image-20286" /></p>\u000a<p>In 1938, the <em>American Mathematical Monthly</em> published an unlikely paper: &#8220;A Contribution to the Mathematical Theory of Big Game Hunting.&#8221; In it, Ralph Boas and Frank Smithies presented 16 ways to catch a lion using techniques inspired by modern math and physics. Examples:</p>\u000a<ul>\u000a<li>&#8220;The Method of Inversive Geometry. We place a <em>spherical</em> cage in the desert, enter it, and lock it. We perform an inversion with respect to the cage. The lion is then in the interior of the cage, and we are outside.&#8221;</li>\u000a<li>&#8220;A Topological Method. We observe that a lion has at least the connectivity of the torus. We transport the desert into four-space. It is then possible to carry out such a deformation that the lion can be returned to three-space in a knotted condition. He is then helpless.&#8221;</li>\u000a<li>&#8220;The Dirac Method. We observe that wild lions are, <em>ipso facto</em>, not observable in the Sahara Desert. Consequently, if there are any lions in the Sahara, they are tame. The capture of a tame lion may be left as an exercise for the reader.&#8221;</li>\u000a<li>&#8220;A Relativistic Method. We distribute about the desert lion bait containing large portions of the Companion of Sirius. When enough bait has been taken, we project a beam of light across the desert. This will bend right round the lion, who will then become so dizzy that he can be approached with impunity.&#8221;</li>\u000a</ul>\u000a<p>The article has inspired a tradition of updates by other mathematicians over the years:</p>\u000a<ul>\u000a<li>&#8220;Let <em>Q</em> be the operator that encloses a word in quotation marks. Its square <em>Q</em><sup>2</sup> encloses a word in double quotes. The operator clearly satisfies the law of indices, <em>Q</em><sup><em>m</em></sup><em>Q</em><sup><em>n</em></sup> = <em>Q</em><sup><em>m + n</em></sup>. Write down the word &#8216;lion,&#8217; without quotation marks. Apply to it the operator <em>Q</em><sup>-1</sup>. Then a lion will appear on the page. It is advisable to enclose the page in a cage before applying the operator.&#8221; (I.J. Good, 1965)</li>\u000a<li>&#8220;Game Theoretic Method. A lion is big game. Thus, <em>a fortiori</em>, he is a game. Therefore there exists an optimal strategy. Follow it.&#8221; (&#8220;Otto Morphy,&#8221; 1968)</li>\u000a<li>&#8220;Method of Analytics Mechanics. Since the lion has nonzero mass it has moments of inertia. Grab it during one of them.&#8221; (Patricia Dudley et al., 1968)</li>\u000a<li>&#8220;Method of Natural Functions. The lion, having spent his life under the Sahara sun, will surely have a tan. Induce him to lie on his back; he can then, by virtue of his reciprocal tan, be cot.&#8221; (Dudley)</li>\u000a<li>&#8220;Nonstandard Analysis. In a nonstandard universe (namely, the land of Oz), lions are cowardly and may be caught easily. By the transfer principle, this likewise holds in our (standard) universe.&#8221; (Houston Euler, et al., 1985)</li>\u000a</ul>\u000a<p>Dudley also suggested a &#8220;method of moral philosophy&#8221;: &#8220;Construct a corral in the Sahara and wait until autumn. At that time the corral will contain a large number of lions, for it is well known that a pride cometh before the fall.&#8221;</p>\u000a\u000a<p><a href="http://feedads.g.doubleclick.net/~a/HKm_bp9Kl6jxYV1cMlsjm1BR3YQ/0/da"><img src="http://feedads.g.doubleclick.net/~a/HKm_bp9Kl6jxYV1cMlsjm1BR3YQ/0/di" border="0" ismap="true" /></a><br />\u000a<a href="http://feedads.g.doubleclick.net/~a/HKm_bp9Kl6jxYV1cMlsjm1BR3YQ/1/da"><img src="http://feedads.g.doubleclick.net/~a/HKm_bp9Kl6jxYV1cMlsjm1BR3YQ/1/di" border="0" ismap="true" /></a></p><img src="http://feeds.feedburner.com/~r/FutilityCloset/~4/FlOxtHpQlPw" height="1" width="1" />
p2085
stRp2086
asg2043
I00
sS'title_detail'
p2087
g1
(g2
g3
(dp2088
g1992
S'http://feeds.feedburner.com/FutilityCloset'
p2089
sg1994
S'text/plain'
p2090
sg1996
Nsg1997
g2077
stRp2091
sg2049
(lp2092
VFutility Closet
p2093
aV*
aS'read'
p2094
astRp2095
ag1
(g2
g3
(dp2096
S'summary_detail'
p2097
g1
(g2
g3
(dp2098
g1992
S'http://feeds.feedburner.com/FutilityCloset'
p2099
sg1994
S'text/html'
p2100
sg1996
Nsg1997
VIf you are somewhere else, you are not here. You are not in Rome; you are somewhere else. Therefore you are not here.
p2101
stRp2102
sg2000
g84
((I2011
I2
I2
I14
I38
I1
I2
I33
I0
t(dtRp2103
sg2002
(lp2104
g1
(g2
g3
(dp2105
g2005
Vhttp://feedproxy.google.com/~r/FutilityCloset/~3/-3bpybvvz-M/
p2106
sg1994
g2007
sg2008
g2009
stRp2107
asg2011
(lp2108
g1
(g2
g3
(dp2109
g2014
VOddities
p2110
sg2016
Nsg2017
NstRp2111
asS'feedburner_origlink'
p2112
Vhttp://www.futilitycloset.com/2011/02/02/the-absence-paradox/
p2113
sg2021
VWed, 02 Feb 2011 14:38:01 +0000
p2114
sg2023
g2106
sS'wfw_commentrss'
p2115
Vhttp://www.futilitycloset.com/2011/02/02/the-absence-paradox/feed/
p2116
sg2026
Vhttp://www.futilitycloset.com/?p=20282
p2117
sS'slash_comments'
p2118
V0
sg2029
VThe Absence Paradox
p2119
sg2031
VGreg Ross
p2120
sS'comments'
p2121
Vhttp://www.futilitycloset.com/2011/02/02/the-absence-paradox/#comments
p2122
sg2035
g2101
sg2036
(lp2123
g1
(g2
g3
(dp2124
g1992
S'http://feeds.feedburner.com/FutilityCloset'
p2125
sg1994
S'text/html'
p2126
sg1996
Nsg1997
V<p>If you are somewhere else, you are not here.</p>\u000a<p>You are not in Rome; you are somewhere else.</p>\u000a<p>Therefore you are not here.</p>\u000a\u000a<p><a href="http://feedads.g.doubleclick.net/~a/xGJafgU6eWwZ8GM1k4GeonjOic0/0/da"><img src="http://feedads.g.doubleclick.net/~a/xGJafgU6eWwZ8GM1k4GeonjOic0/0/di" border="0" ismap="true" /></a><br />\u000a<a href="http://feedads.g.doubleclick.net/~a/xGJafgU6eWwZ8GM1k4GeonjOic0/1/da"><img src="http://feedads.g.doubleclick.net/~a/xGJafgU6eWwZ8GM1k4GeonjOic0/1/di" border="0" ismap="true" /></a></p><img src="http://feeds.feedburner.com/~r/FutilityCloset/~4/-3bpybvvz-M" height="1" width="1" />
p2127
stRp2128
asg2043
I00
sS'title_detail'
p2129
g1
(g2
g3
(dp2130
g1992
S'http://feeds.feedburner.com/FutilityCloset'
p2131
sg1994
S'text/plain'
p2132
sg1996
Nsg1997
g2119
stRp2133
sg2049
(lp2134
VFutility Closet
p2135
aV*
aS'read'
p2136
astRp2137
ag1
(g2
g3
(dp2138
S'summary_detail'
p2139
g1
(g2
g3
(dp2140
S'base'
p2141
S'http://feeds.feedburner.com/FutilityCloset'
p2142
sS'type'
p2143
S'text/html'
p2144
sS'language'
p2145
NsS'value'
p2146
V&#8220;The obscure we see eventually. The completely obvious, it seems, takes longer.&#8221; &#8212; Edward R. Murrow &#8220;To see what is in front of one&#8217;s nose requires a constant struggle.&#8221; &#8212; George Orwell &#8220;How hard I find it to see what is right in front of my eyes!&#8221; &#8212; Wittgenstein
p2147
stRp2148
sS'updated_parsed'
p2149
g84
((I2011
I2
I2
I6
I37
I8
I2
I33
I0
t(dtRp2150
sS'links'
p2151
(lp2152
g1
(g2
g3
(dp2153
S'href'
p2154
Vhttp://feedproxy.google.com/~r/FutilityCloset/~3/kWCekJxRJ-k/
p2155
sg2143
S'text/html'
p2156
sS'rel'
p2157
S'alternate'
p2158
stRp2159
asS'tags'
p2160
(lp2161
g1
(g2
g3
(dp2162
S'term'
p2163
VQuotations
p2164
sS'scheme'
p2165
NsS'label'
p2166
NstRp2167
asS'feedburner_origlink'
p2168
Vhttp://www.futilitycloset.com/2011/02/02/unquote-330/
p2169
sS'updated'
p2170
VWed, 02 Feb 2011 06:37:08 +0000
p2171
sS'link'
p2172
g2155
sS'wfw_commentrss'
p2173
Vhttp://www.futilitycloset.com/2011/02/02/unquote-330/feed/
p2174
sS'id'
p2175
Vhttp://www.futilitycloset.com/?p=20279
p2176
sS'slash_comments'
p2177
V0
sS'title'
p2178
VUnquote
p2179
sS'author'
p2180
VGreg Ross
p2181
sS'comments'
p2182
Vhttp://www.futilitycloset.com/2011/02/02/unquote-330/#comments
p2183
sS'summary'
p2184
g2147
sS'content'
p2185
(lp2186
g1
(g2
g3
(dp2187
g2141
S'http://feeds.feedburner.com/FutilityCloset'
p2188
sg2143
S'text/html'
p2189
sg2145
Nsg2146
V<p>&#8220;The obscure we see eventually. The completely obvious, it seems, takes longer.&#8221; &#8212; Edward R. Murrow</p>\u000a<p>&#8220;To see what is in front of one&#8217;s nose requires a constant struggle.&#8221; &#8212; George Orwell</p>\u000a<p>&#8220;How hard I find it to see what is <em>right in front of my eyes</em>!&#8221; &#8212; Wittgenstein</p>\u000a\u000a<p><a href="http://feedads.g.doubleclick.net/~a/rUhj9qKfBf2qcYkWzldJ-_y5qOo/0/da"><img src="http://feedads.g.doubleclick.net/~a/rUhj9qKfBf2qcYkWzldJ-_y5qOo/0/di" border="0" ismap="true" /></a><br />\u000a<a href="http://feedads.g.doubleclick.net/~a/rUhj9qKfBf2qcYkWzldJ-_y5qOo/1/da"><img src="http://feedads.g.doubleclick.net/~a/rUhj9qKfBf2qcYkWzldJ-_y5qOo/1/di" border="0" ismap="true" /></a></p><img src="http://feeds.feedburner.com/~r/FutilityCloset/~4/kWCekJxRJ-k" height="1" width="1" />
p2190
stRp2191
asS'guidislink'
p2192
I00
sS'title_detail'
p2193
g1
(g2
g3
(dp2194
g2141
S'http://feeds.feedburner.com/FutilityCloset'
p2195
sg2143
S'text/plain'
p2196
sg2145
Nsg2146
g2179
stRp2197
sS'canto_state'
p2198
(lp2199
VFutility Closet
p2200
aV*
aS'read'
p2201
astRp2202
ag1
(g2
g3
(dp2203
S'summary_detail'
p2204
g1
(g2
g3
(dp2205
g2141
S'http://feeds.feedburner.com/FutilityCloset'
p2206
sg2143
S'text/html'
p2207
sg2145
Nsg2146
VA group of us had gone to the pier to have dinner at a little fish restaurant, and while waiting to be served, Charlie Chaplin noticed a sign across the way that read, &#8216;Scientific Handwriting Analysis. Ten Cents.&#8217; Charlie decided, as a joke, to try the expert out. Aldous [Huxley] stopped him. It would be [...]
p2208
stRp2209
sg2149
g84
((I2011
I2
I1
I22
I23
I45
I1
I32
I0
t(dtRp2210
sg2151
(lp2211
g1
(g2
g3
(dp2212
g2154
Vhttp://feedproxy.google.com/~r/FutilityCloset/~3/E24qaoosIFs/
p2213
sg2143
g2156
sg2157
g2158
stRp2214
asg2160
(lp2215
g1
(g2
g3
(dp2216
g2163
VEntertainment
p2217
sg2165
Nsg2166
NstRp2218
asS'feedburner_origlink'
p2219
Vhttp://www.futilitycloset.com/2011/02/01/the-champion/
p2220
sg2170
VTue, 01 Feb 2011 22:23:45 +0000
p2221
sg2172
g2213
sS'wfw_commentrss'
p2222
Vhttp://www.futilitycloset.com/2011/02/01/the-champion/feed/
p2223
sg2175
Vhttp://www.futilitycloset.com/?p=20263
p2224
sS'slash_comments'
p2225
V0
sg2178
VThe Champion
p2226
sg2180
VGreg Ross
p2227
sS'comments'
p2228
Vhttp://www.futilitycloset.com/2011/02/01/the-champion/#comments
p2229
sg2184
g2208
sg2185
(lp2230
g1
(g2
g3
(dp2231
g2141
S'http://feeds.feedburner.com/FutilityCloset'
p2232
sg2143
S'text/html'
p2233
sg2145
Nsg2146
V<p><img src="http://www.futilitycloset.com/wp-content/uploads/2011/02/2011-02-01-the-champion.jpg" alt="http://commons.wikimedia.org/wiki/File:Charlie_Chaplin.jpg" title="2011-02-01-the-champion" width="250" height="313" class="alignleft size-full wp-image-20267" /></p>\u000a<blockquote><p>\u000aA group of us had gone to the pier to have dinner at a little fish restaurant, and while waiting to be served, Charlie Chaplin noticed a sign across the way that read, &#8216;Scientific Handwriting Analysis. Ten Cents.&#8217; Charlie decided, as a joke, to try the expert out. Aldous [Huxley] stopped him. It would be too simple for a swami to &#8216;read&#8217; for Charlie because his appearance was familiar to practically everyone in the world. On the other hand no one would recognize Aldous. So Charlie wrote a few words on a scrap of paper which Aldous took to the lady. He returned from his interview in a mood of deep concentration and reported what had happened. The lady had studied the writing a moment and then looked up at Aldous suspiciously. &#8216;Are you trying to make fun of me, sir?&#8217; she asked. Aldous assured her he was not and wanted to know why she asked. She paused and studied Charlie&#8217;s writing more closely. Then, still suspicious, she asked, &#8216;Did you write this while you were in an unnatural or cramped position?&#8217; Aldous then admitted that the writing was not his own but he assured the lady that it had been done quite normally. &#8216;Then,&#8217; said the expert, &#8216;I don&#8217;t know what to say, because if what you tell me is true, the man who wrote this is a God-given genius.&#8217;\u000a</p></blockquote>\u000a<p>&#8211; Anita Loos in <em>Aldous Huxley: A Memorial Volume</em>, ed. Julian Huxley, 1965</p>\u000a\u000a<p><a href="http://feedads.g.doubleclick.net/~a/BLeE3cBBIEbvNXpkfThs12JqFz8/0/da"><img src="http://feedads.g.doubleclick.net/~a/BLeE3cBBIEbvNXpkfThs12JqFz8/0/di" border="0" ismap="true" /></a><br />\u000a<a href="http://feedads.g.doubleclick.net/~a/BLeE3cBBIEbvNXpkfThs12JqFz8/1/da"><img src="http://feedads.g.doubleclick.net/~a/BLeE3cBBIEbvNXpkfThs12JqFz8/1/di" border="0" ismap="true" /></a></p><img src="http://feeds.feedburner.com/~r/FutilityCloset/~4/E24qaoosIFs" height="1" width="1" />
p2234
stRp2235
asg2192
I00
sS'title_detail'
p2236
g1
(g2
g3
(dp2237
g2141
S'http://feeds.feedburner.com/FutilityCloset'
p2238
sg2143
S'text/plain'
p2239
sg2145
Nsg2146
g2226
stRp2240
sg2198
(lp2241
VFutility Closet
p2242
aV*
aS'read'
p2243
astRp2244
ag1
(g2
g3
(dp2245
S'summary_detail'
p2246
g1
(g2
g3
(dp2247
S'base'
p2248
S'http://feeds.feedburner.com/FutilityCloset'
p2249
sS'type'
p2250
S'text/html'
p2251
sS'language'
p2252
NsS'value'
p2253
Vpandiculation n. the act of stretching oneself
p2254
stRp2255
sS'updated_parsed'
p2256
g84
((I2011
I2
I1
I14
I33
I21
I1
I32
I0
t(dtRp2257
sS'links'
p2258
(lp2259
g1
(g2
g3
(dp2260
S'href'
p2261
Vhttp://feedproxy.google.com/~r/FutilityCloset/~3/mXYhfL5nh5c/
p2262
sg2250
S'text/html'
p2263
sS'rel'
p2264
S'alternate'
p2265
stRp2266
asS'tags'
p2267
(lp2268
g1
(g2
g3
(dp2269
S'term'
p2270
VLanguage
p2271
sS'scheme'
p2272
NsS'label'
p2273
NstRp2274
asS'feedburner_origlink'
p2275
Vhttp://www.futilitycloset.com/2011/02/01/in-a-word-304/
p2276
sS'updated'
p2277
VTue, 01 Feb 2011 14:33:21 +0000
p2278
sS'link'
p2279
g2262
sS'wfw_commentrss'
p2280
Vhttp://www.futilitycloset.com/2011/02/01/in-a-word-304/feed/
p2281
sS'id'
p2282
Vhttp://www.futilitycloset.com/?p=20270
p2283
sS'slash_comments'
p2284
V0
sS'title'
p2285
VIn a Word
p2286
sS'author'
p2287
VGreg Ross
p2288
sS'comments'
p2289
Vhttp://www.futilitycloset.com/2011/02/01/in-a-word-304/#comments
p2290
sS'summary'
p2291
g2254
sS'content'
p2292
(lp2293
g1
(g2
g3
(dp2294
g2248
S'http://feeds.feedburner.com/FutilityCloset'
p2295
sg2250
S'text/html'
p2296
sg2252
Nsg2253
V<p>pandiculation<br />\u000an. the act of stretching oneself</p>\u000a\u000a<p><a href="http://feedads.g.doubleclick.net/~a/oF_IBhju_DyFpi6RsU6rMpl_12U/0/da"><img src="http://feedads.g.doubleclick.net/~a/oF_IBhju_DyFpi6RsU6rMpl_12U/0/di" border="0" ismap="true" /></a><br />\u000a<a href="http://feedads.g.doubleclick.net/~a/oF_IBhju_DyFpi6RsU6rMpl_12U/1/da"><img src="http://feedads.g.doubleclick.net/~a/oF_IBhju_DyFpi6RsU6rMpl_12U/1/di" border="0" ismap="true" /></a></p><img src="http://feeds.feedburner.com/~r/FutilityCloset/~4/mXYhfL5nh5c" height="1" width="1" />
p2297
stRp2298
asS'guidislink'
p2299
I00
sS'title_detail'
p2300
g1
(g2
g3
(dp2301
g2248
S'http://feeds.feedburner.com/FutilityCloset'
p2302
sg2250
S'text/plain'
p2303
sg2252
Nsg2253
g2286
stRp2304
sS'canto_state'
p2305
(lp2306
VFutility Closet
p2307
aV*
aS'read'
p2308
astRp2309
ag1
(g2
g3
(dp2310
S'summary_detail'
p2311
g1
(g2
g3
(dp2312
S'base'
p2313
S'http://feeds.feedburner.com/FutilityCloset'
p2314
sS'type'
p2315
S'text/html'
p2316
sS'language'
p2317
NsS'value'
p2318
VIn December 1900, a French committee offered 100,000 francs to the first person to make contact with intelligent beings on another planet. Martians were excluded as too easy. (Thanks, Tom.)
p2319
stRp2320
sS'updated_parsed'
p2321
g84
((I2011
I2
I1
I6
I9
I46
I1
I32
I0
t(dtRp2322
sS'links'
p2323
(lp2324
g1
(g2
g3
(dp2325
S'href'
p2326
Vhttp://feedproxy.google.com/~r/FutilityCloset/~3/EcIpg5jGZqk/
p2327
sg2315
S'text/html'
p2328
sS'rel'
p2329
S'alternate'
p2330
stRp2331
asS'tags'
p2332
(lp2333
g1
(g2
g3
(dp2334
S'term'
p2335
VScience & Math
p2336
sS'scheme'
p2337
NsS'label'
p2338
NstRp2339
asS'feedburner_origlink'
p2340
Vhttp://www.futilitycloset.com/2011/02/01/the-guzman-prize/
p2341
sS'updated'
p2342
VTue, 01 Feb 2011 06:09:46 +0000
p2343
sS'link'
p2344
g2327
sS'wfw_commentrss'
p2345
Vhttp://www.futilitycloset.com/2011/02/01/the-guzman-prize/feed/
p2346
sS'id'
p2347
Vhttp://www.futilitycloset.com/?p=20273
p2348
sS'slash_comments'
p2349
V0
sS'title'
p2350
VThe Guzman Prize
p2351
sS'author'
p2352
VGreg Ross
p2353
sS'comments'
p2354
Vhttp://www.futilitycloset.com/2011/02/01/the-guzman-prize/#comments
p2355
sS'summary'
p2356
g2319
sS'content'
p2357
(lp2358
g1
(g2
g3
(dp2359
g2313
S'http://feeds.feedburner.com/FutilityCloset'
p2360
sg2315
S'text/html'
p2361
sg2317
Nsg2318
V<p><img src="http://www.futilitycloset.com/wp-content/uploads/2011/01/2011-02-01-the-guzman-prize.jpg" alt="http://commons.wikimedia.org/wiki/File:Mars_Hubble.jpg" title="2011-02-01-the-guzman-prize" width="300" height="300" class="alignnone size-full wp-image-20274" /></p>\u000a<p>In December 1900, a French committee offered 100,000 francs to the first person to make contact with intelligent beings on another planet.</p>\u000a<p>Martians were excluded as too easy.</p>\u000a<p>(Thanks, Tom.)</p>\u000a\u000a<p><a href="http://feedads.g.doubleclick.net/~a/fDMCPE7VMUnRRI3o6GpRTiWUF7M/0/da"><img src="http://feedads.g.doubleclick.net/~a/fDMCPE7VMUnRRI3o6GpRTiWUF7M/0/di" border="0" ismap="true" /></a><br />\u000a<a href="http://feedads.g.doubleclick.net/~a/fDMCPE7VMUnRRI3o6GpRTiWUF7M/1/da"><img src="http://feedads.g.doubleclick.net/~a/fDMCPE7VMUnRRI3o6GpRTiWUF7M/1/di" border="0" ismap="true" /></a></p><img src="http://feeds.feedburner.com/~r/FutilityCloset/~4/EcIpg5jGZqk" height="1" width="1" />
p2362
stRp2363
asS'guidislink'
p2364
I00
sS'title_detail'
p2365
g1
(g2
g3
(dp2366
g2313
S'http://feeds.feedburner.com/FutilityCloset'
p2367
sg2315
S'text/plain'
p2368
sg2317
Nsg2318
g2351
stRp2369
sS'canto_state'
p2370
(lp2371
VFutility Closet
p2372
aV*
aS'read'
p2373
astRp2374
astRp2375
.