ccopy_reg
_reconstructor
p1
(cfeedparser
FeedParserDict
p2
c__builtin__
dict
p3
(dp4
S'feed'
p5
g1
(g2
g3
(dp6
S'title_detail'
p7
g1
(g2
g3
(dp8
S'base'
p9
S'http://www.reddit.com/user/Geekthras/.rss'
p10
sS'type'
p11
S'text/plain'
p12
sS'language'
p13
NsS'value'
p14
Vreddit: the voice of the internet -- news before it happens
p15
stRp16
sS'subtitle'
p17
V
sS'links'
p18
(lp19
g1
(g2
g3
(dp20
S'href'
p21
Vhttp://www.reddit.com/
p22
sg11
S'text/html'
p23
sS'rel'
p24
S'alternate'
p25
stRp26
ag1
(g2
g3
(dp27
g11
g23
sg24
g25
stRp28
asS'title'
p29
g15
sS'link'
p30
g22
sS'image'
p31
g1
(g2
g3
(dp32
g21
Vhttp://static.reddit.com/reddit.com.header.png
p33
sg30
Vhttp://www.reddit.com/
p34
sg29
Vreddit: the voice of the internet -- news before it happens
p35
stRp36
sS'subtitle_detail'
p37
g1
(g2
g3
(dp38
g9
S'http://www.reddit.com/user/Geekthras/.rss'
p39
sg11
S'text/html'
p40
sg13
Nsg14
V
stRp41
stRp42
sS'status'
p43
I200
sS'updated'
p44
ctime
struct_time
p45
((I2011
I2
I8
I5
I3
I45
I1
I39
I0
t(dtRp46
sS'canto_version'
p47
(I0
I7
I9
tp48
sS'bozo'
p49
I0
sS'encoding'
p50
S'UTF-8'
p51
sS'canto_update'
p52
F1297684106.563535
sS'headers'
p53
(dp54
S'content-length'
p55
S'16795'
p56
sS'set-cookie'
p57
S'reddit_first=%7B%22firsttime%22%3A%20%22first%22%7D; Domain=reddit.com; expires=Thu, 31 Dec 2037 23:59:59 GMT; Path=/'
p58
sS'vary'
p59
S'Accept-Encoding'
p60
sS'server'
p61
S"'; DROP TABLE servertypes; --"
p62
sS'last-modified'
p63
S'Tue, 08 Feb 2011 05:03:45 GMT'
p64
sS'connection'
p65
S'close'
p66
sS'cache-control'
p67
S'private, must-revalidate, max-age=0'
p68
sS'date'
p69
S'Mon, 14 Feb 2011 11:48:31 GMT'
p70
sS'content-type'
p71
S'text/xml; charset=UTF-8'
p72
ssS'version'
p73
S'rss20'
p74
sS'canto_state'
p75
(lp76
sg21
S'http://www.reddit.com/user/Geekthras/.rss'
p77
sS'namespaces'
p78
(dp79
Vmedia
p80
Vhttp://search.yahoo.com/mrss/
p81
sS'dc'
p82
Vhttp://purl.org/dc/elements/1.1/
p83
ssS'entries'
p84
(lp85
g1
(g2
g3
(dp86
S'summary_detail'
p87
g1
(g2
g3
(dp88
g9
S'http://www.reddit.com/user/Geekthras/.rss'
p89
sg11
S'text/html'
p90
sg13
Nsg14
V<table> <tr><td> <a href="http://www.reddit.com/r/pics/comments/fhaxa/fantastic_hdr_photojournal_of_chernobyl_timm_suess/"><img src="http://thumbs.reddit.com/t3_fhaxa.png" alt="Fantastic HDR Photojournal of Chernobyl - Timm Suess" title="Fantastic HDR Photojournal of Chernobyl - Timm Suess" /></a> </td><td> submitted by <a href="http://www.reddit.com/user/Geekthras"> Geekthras </a> to <a href="http://www.reddit.com/r/pics/"> pics</a> <br /> <a href="http://timmsuess.com/chernobyl-journal/">[link]</a> <a href="http://www.reddit.com/r/pics/comments/fhaxa/fantastic_hdr_photojournal_of_chernobyl_timm_suess/">[comment]</a> </td></tr></table>
p91
stRp92
sS'updated_parsed'
p93
g45
((I2011
I2
I8
I5
I3
I44
I1
I39
I0
t(dtRp94
sg18
(lp95
g1
(g2
g3
(dp96
g21
Vhttp://www.reddit.com/r/pics/comments/fhaxa/fantastic_hdr_photojournal_of_chernobyl_timm_suess/
p97
sg11
g23
sg24
g25
stRp98
asg29
VFantastic HDR Photojournal of Chernobyl - Timm Suess
p99
sg44
VMon, 07 Feb 2011 22:03:44 -0700
p100
sS'media_thumbnail'
p101
V
sS'summary'
p102
g91
sS'guidislink'
p103
I00
sS'title_detail'
p104
g1
(g2
g3
(dp105
g9
S'http://www.reddit.com/user/Geekthras/.rss'
p106
sg11
S'text/plain'
p107
sg13
Nsg14
g99
stRp108
sg30
g97
sg75
(lp109
Vreddit: the voice of the internet -- news before it happens (4)
p110
aV*
aS'read'
p111
asS'id'
p112
Vhttp://www.reddit.com/r/pics/comments/fhaxa/fantastic_hdr_photojournal_of_chernobyl_timm_suess/
p113
stRp114
ag1
(g2
g3
(dp115
S'summary_detail'
p116
g1
(g2
g3
(dp117
g9
S'http://www.reddit.com/user/Geekthras/.rss'
p118
sg11
S'text/html'
p119
sg13
Nsg14
VFor me, nothing will ever top [this phototour](http://timmsuess.com/chernobyl-journal/) in terms of Chernobyl photography. I highly recommend you check it out if you want to see some really amazing photography of that area.
p120
stRp121
sg93
g45
((I2011
I2
I7
I21
I58
I23
I0
I38
I0
t(dtRp122
sg18
(lp123
g1
(g2
g3
(dp124
g21
Vhttp://www.reddit.com/r/worldnews/comments/fgup2/a_tour_of_chernobyl_as_it_exists_today_pics/c1fxpvt
p125
sg11
g23
sg24
g25
stRp126
asg29
VGeekthras on A Tour of Chernobyl as it exists today [pics]
p127
sg44
V2011-02-07T21:58:23.633166-07:00-0700
p128
sg102
g120
sg103
I01
sS'title_detail'
p129
g1
(g2
g3
(dp130
g9
S'http://www.reddit.com/user/Geekthras/.rss'
p131
sg11
S'text/plain'
p132
sg13
Nsg14
g127
stRp133
sg30
g125
sg75
(lp134
g110
aV*
ag111
asg112
Vhttp://www.reddit.com/r/worldnews/comments/fgup2/a_tour_of_chernobyl_as_it_exists_today_pics/c1fxpvt
p135
stRp136
ag1
(g2
g3
(dp137
S'summary_detail'
p138
g1
(g2
g3
(dp139
g9
S'http://www.reddit.com/user/Geekthras/.rss'
p140
sg11
S'text/html'
p141
sg13
Nsg14
VI know what a sprite is; troll sprites would tend to imply the things I linked (not necessary, just implied), while sprite edit implies.. what the OP has.
p142
stRp143
sg93
g45
((I2011
I1
I31
I23
I44
I52
I0
I31
I0
t(dtRp144
sg18
(lp145
g1
(g2
g3
(dp146
g21
Vhttp://www.reddit.com/r/homestuck/comments/fcq1a/a_giant_sheet_of_troll_sprite_edits_some_good/c1ezwsq
p147
sg11
g23
sg24
g25
stRp148
asg29
VGeekthras on A giant sheet of troll sprite edits. Some good, some bad, some utterly hilarious.
p149
sg44
V2011-01-31T23:44:52.799527-07:00-0700
p150
sg102
g142
sg103
I01
sS'title_detail'
p151
g1
(g2
g3
(dp152
g9
S'http://www.reddit.com/user/Geekthras/.rss'
p153
sg11
S'text/plain'
p154
sg13
Nsg14
g149
stRp155
sg30
g147
sg75
(lp156
g110
aV*
aS'read'
p157
asg112
Vhttp://www.reddit.com/r/homestuck/comments/fcq1a/a_giant_sheet_of_troll_sprite_edits_some_good/c1ezwsq
p158
stRp159
ag1
(g2
g3
(dp160
S'summary_detail'
p161
g1
(g2
g3
(dp162
g9
S'http://www.reddit.com/user/Geekthras/.rss'
p163
sg11
S'text/html'
p164
sg13
Nsg14
VThe lesson to take from this is: don't take yourself too seriously about it. If you can't laugh at that reddit post, you're doing it wrong. Instead of getting sarcastic and upset, just flip off whoever's being a butt by obviously not giving a shit.
p165
stRp166
sg93
g45
((I2011
I1
I31
I20
I43
I53
I0
I31
I0
t(dtRp167
sg18
(lp168
g1
(g2
g3
(dp169
g21
Vhttp://www.reddit.com/r/furry/comments/fcfyz/my_so_and_i_are_new_furries_advice/c1ez7es
p170
sg11
g23
sg24
g25
stRp171
asg29
VGeekthras on My SO and I are new furries. Advice?
p172
sg44
V2011-01-31T20:43:53.198322-07:00-0700
p173
sg102
g165
sg103
I01
sS'title_detail'
p174
g1
(g2
g3
(dp175
g9
S'http://www.reddit.com/user/Geekthras/.rss'
p176
sg11
S'text/plain'
p177
sg13
Nsg14
g172
stRp178
sg30
g170
sg75
(lp179
g110
aV*
ag157
asg112
Vhttp://www.reddit.com/r/furry/comments/fcfyz/my_so_and_i_are_new_furries_advice/c1ez7es
p180
stRp181
ag1
(g2
g3
(dp182
S'summary_detail'
p183
g1
(g2
g3
(dp184
g9
S'http://www.reddit.com/user/Geekthras/.rss'
p185
sg11
S'text/html'
p186
sg13
Nsg14
VI read this as troll *sprites* at first, and got a little disappointed. Well, her are some: [Nepeta](http://i696.photobucket.com/albums/vv325/epengu/nepetanimated.gif), [Gamzee](http://img412.imageshack.us/img412/8881/gamzeeanimationsuperdup.gif), [Karkat](http://img577.imageshack.us/img577/9844/karkatneonetterlegs.gif)
p187
stRp188
sg93
g45
((I2011
I1
I31
I20
I35
I13
I0
I31
I0
t(dtRp189
sg18
(lp190
g1
(g2
g3
(dp191
g21
Vhttp://www.reddit.com/r/homestuck/comments/fcq1a/a_giant_sheet_of_troll_sprite_edits_some_good/c1ez5zx
p192
sg11
g23
sg24
g25
stRp193
asg29
VGeekthras on A giant sheet of troll sprite edits. Some good, some bad, some utterly hilarious.
p194
sg44
V2011-01-31T20:35:13.964414-07:00-0700
p195
sg102
g187
sg103
I01
sS'title_detail'
p196
g1
(g2
g3
(dp197
g9
S'http://www.reddit.com/user/Geekthras/.rss'
p198
sg11
S'text/plain'
p199
sg13
Nsg14
g194
stRp200
sg30
g192
sg75
(lp201
g110
aV*
ag157
asg112
Vhttp://www.reddit.com/r/homestuck/comments/fcq1a/a_giant_sheet_of_troll_sprite_edits_some_good/c1ez5zx
p202
stRp203
ag1
(g2
g3
(dp204
S'summary_detail'
p205
g1
(g2
g3
(dp206
g9
S'http://www.reddit.com/user/Geekthras/.rss'
p207
sg11
S'text/html'
p208
sg13
Nsg14
VOh right, John lost the Cosbytop again. Potentially forever. I'm sorry :(
p209
stRp210
sg93
g45
((I2011
I1
I31
I20
I31
I21
I0
I31
I0
t(dtRp211
sg18
(lp212
g1
(g2
g3
(dp213
g21
Vhttp://www.reddit.com/r/Minecraft/comments/fcflk/i_turned_25_yesterday_this_was_on_my_desk_at_work/c1ez5by
p214
sg11
g23
sg24
g25
stRp215
asg29
VGeekthras on I turned 25 yesterday. This was on my desk at work this morning. Do you think the pop is save?
p216
sg44
V2011-01-31T20:31:21.204775-07:00-0700
p217
sg102
g209
sg103
I01
sS'title_detail'
p218
g1
(g2
g3
(dp219
g9
S'http://www.reddit.com/user/Geekthras/.rss'
p220
sg11
S'text/plain'
p221
sg13
Nsg14
g216
stRp222
sg30
g214
sg75
(lp223
g110
aV*
ag157
asg112
Vhttp://www.reddit.com/r/Minecraft/comments/fcflk/i_turned_25_yesterday_this_was_on_my_desk_at_work/c1ez5by
p224
stRp225
ag1
(g2
g3
(dp226
S'summary_detail'
p227
g1
(g2
g3
(dp228
g9
S'http://www.reddit.com/user/Geekthras/.rss'
p229
sg11
S'text/html'
p230
sg13
Nsg14
VIf by the first epic troll flash you mean Make Her Pay: Everyone is dead, the juggalo and the underwater hipster are major characters, Jade is a suicidal furry ghost, and PM is the queen of the moon. The music team released a concept album based on The Felt from the intermission and a Christmas album, while the art team released a calendar. There was a half-hour long Earthbound style game, a recap entirely in white text, 30 updates about one of the trolls slowly bleeding to death, and a dream sequence narrated in morse code. So, more of the same.
p231
stRp232
sg93
g45
((I2011
I1
I31
I20
I20
I44
I0
I31
I0
t(dtRp233
sg18
(lp234
g1
(g2
g3
(dp235
g21
Vhttp://www.reddit.com/r/Minecraft/comments/fcflk/i_turned_25_yesterday_this_was_on_my_desk_at_work/c1ez3ku
p236
sg11
g23
sg24
g25
stRp237
asg29
VGeekthras on I turned 25 yesterday. This was on my desk at work this morning. Do you think the pop is save?
p238
sg44
V2011-01-31T20:20:44.528180-07:00-0700
p239
sg102
g231
sg103
I01
sS'title_detail'
p240
g1
(g2
g3
(dp241
g9
S'http://www.reddit.com/user/Geekthras/.rss'
p242
sg11
S'text/plain'
p243
sg13
Nsg14
g238
stRp244
sg30
g236
sg75
(lp245
g110
aV*
aS'read'
p246
asg112
Vhttp://www.reddit.com/r/Minecraft/comments/fcflk/i_turned_25_yesterday_this_was_on_my_desk_at_work/c1ez3ku
p247
stRp248
ag1
(g2
g3
(dp249
S'summary_detail'
p250
g1
(g2
g3
(dp251
g9
S'http://www.reddit.com/user/Geekthras/.rss'
p252
sg11
S'text/html'
p253
sg13
Nsg14
VI am a fan of Descriptive Complexity, you should look into that.
p254
stRp255
sg93
g45
((I2011
I1
I30
I23
I53
I25
I6
I30
I0
t(dtRp256
sg18
(lp257
g1
(g2
g3
(dp258
g21
Vhttp://www.reddit.com/r/compsci/comments/fc0hq/in_two_weeks_i_have_to_make_an_hour_long/c1eumfm
p259
sg11
g23
sg24
g25
stRp260
asg29
VGeekthras on In two weeks I have to make an hour long presentation on ANY CS Theory topic, and can't think of anything. Any ideas?
p261
sg44
V2011-01-30T23:53:25.287727-07:00-0700
p262
sg102
g254
sg103
I01
sS'title_detail'
p263
g1
(g2
g3
(dp264
g9
S'http://www.reddit.com/user/Geekthras/.rss'
p265
sg11
S'text/plain'
p266
sg13
Nsg14
g261
stRp267
sg30
g259
sg75
(lp268
g110
aV*
aS'read'
p269
asg112
Vhttp://www.reddit.com/r/compsci/comments/fc0hq/in_two_weeks_i_have_to_make_an_hour_long/c1eumfm
p270
stRp271
ag1
(g2
g3
(dp272
S'summary_detail'
p273
g1
(g2
g3
(dp274
g9
S'http://www.reddit.com/user/Geekthras/.rss'
p275
sg11
S'text/html'
p276
sg13
Nsg14
VYeah I can't tell what's going on exactly. It's perfectly possible to have fun, I just can't take it as seriously as I used to. I'm also probably out of practice since I couldn't play for a few months while my stock kit was dead. Are you in the SH league competition that started today, by the way?
p277
stRp278
sg93
g45
((I2011
I1
I30
I16
I19
I14
I6
I30
I0
t(dtRp279
sg18
(lp280
g1
(g2
g3
(dp281
g21
Vhttp://www.reddit.com/r/Rockband/comments/fbj4a/i_am_the_drummer_for_the_1_rb_band_on_x360_kings/c1et0ga
p282
sg11
g23
sg24
g25
stRp283
asg29
VGeekthras on I am the drummer for the #1 RB Band on X360 (Kings of the Sofa)
p284
sg44
V2011-01-30T16:19:14.543806-07:00-0700
p285
sg102
g277
sg103
I01
sS'title_detail'
p286
g1
(g2
g3
(dp287
g9
S'http://www.reddit.com/user/Geekthras/.rss'
p288
sg11
S'text/plain'
p289
sg13
Nsg14
g284
stRp290
sg30
g282
sg75
(lp291
g110
aVnew
p292
aVreddit: the voice of the internet -- news before it happens (4)
p293
aS'read'
p294
asg112
Vhttp://www.reddit.com/r/Rockband/comments/fbj4a/i_am_the_drummer_for_the_1_rb_band_on_x360_kings/c1et0ga
p295
stRp296
ag1
(g2
g3
(dp297
S'summary_detail'
p298
g1
(g2
g3
(dp299
g9
S'http://www.reddit.com/user/Geekthras/.rss'
p300
sg11
S'text/html'
p301
sg13
Nsg14
VI used to be pretty intense into it but I could never get good enough to compete much. Drumset issues abound.. I think my IONs are acting up a bit which is kind of frustrating. Also there's a bizarre bug on my copy where the drum calibration will be about an eighth note off when you start a song, unless you pause and continue long enough into the song that the count in starts when the music is already playing. Really obnoxious.
p302
stRp303
sg93
g45
((I2011
I1
I30
I11
I11
I11
I6
I30
I0
t(dtRp304
sg18
(lp305
g1
(g2
g3
(dp306
g21
Vhttp://www.reddit.com/r/Rockband/comments/fbj4a/i_am_the_drummer_for_the_1_rb_band_on_x360_kings/c1erwb1
p307
sg11
g23
sg24
g25
stRp308
asg29
VGeekthras on I am the drummer for the #1 RB Band on X360 (Kings of the Sofa)
p309
sg44
V2011-01-30T11:11:11.064350-07:00-0700
p310
sg102
g302
sg103
I01
sS'title_detail'
p311
g1
(g2
g3
(dp312
g9
S'http://www.reddit.com/user/Geekthras/.rss'
p313
sg11
S'text/plain'
p314
sg13
Nsg14
g309
stRp315
sg30
g307
sg75
(lp316
g110
ag292
ag293
ag294
asg112
Vhttp://www.reddit.com/r/Rockband/comments/fbj4a/i_am_the_drummer_for_the_1_rb_band_on_x360_kings/c1erwb1
p317
stRp318
ag1
(g2
g3
(dp319
S'summary_detail'
p320
g1
(g2
g3
(dp321
g9
S'http://www.reddit.com/user/Geekthras/.rss'
p322
sg11
S'text/html'
p323
sg13
Nsg14
VWhen x = -1, the first expression evaluates to 1 + (y-(1)^1/3 )^2 which is fine since the cube root of 1 is real. But (-1)^2/3 is complex so it gets screwed up.
p324
stRp325
sg93
g45
((I2011
I1
I29
I20
I29
I24
I5
I29
I0
t(dtRp326
sg18
(lp327
g1
(g2
g3
(dp328
g21
Vhttp://www.reddit.com/r/math/comments/fbk26/found_this_graffiti_on_campus_any_idea_as_to_its/c1eq6se
p329
sg11
g23
sg24
g25
stRp330
asg29
VGeekthras on Found this graffiti on campus. Any idea as to its significance?
p331
sg44
V2011-01-29T20:29:24.825392-07:00-0700
p332
sg102
g324
sg103
I01
sS'title_detail'
p333
g1
(g2
g3
(dp334
g9
S'http://www.reddit.com/user/Geekthras/.rss'
p335
sg11
S'text/plain'
p336
sg13
Nsg14
g331
stRp337
sg30
g329
sg75
(lp338
g110
ag292
ag293
ag294
asg112
Vhttp://www.reddit.com/r/math/comments/fbk26/found_this_graffiti_on_campus_any_idea_as_to_its/c1eq6se
p339
stRp340
ag1
(g2
g3
(dp341
S'summary_detail'
p342
g1
(g2
g3
(dp343
g9
S'http://www.reddit.com/user/Geekthras/.rss'
p344
sg11
S'text/html'
p345
sg13
Nsg14
V[YOU ARE THE LAW WHOOPS](http://www.mspaintadventures.com/?s=6&amp;p=003021)
p346
stRp347
sg93
g45
((I2011
I1
I29
I11
I40
I23
I5
I29
I0
t(dtRp348
sg18
(lp349
g1
(g2
g3
(dp350
g21
Vhttp://www.reddit.com/r/WTF/comments/fb3mx/the_law/c1eojsb
p351
sg11
g23
sg24
g25
stRp352
asg29
VGeekthras on THE LAW
p353
sg44
V2011-01-29T11:40:23.416511-07:00-0700
p354
sg102
g346
sg103
I01
sS'title_detail'
p355
g1
(g2
g3
(dp356
g9
S'http://www.reddit.com/user/Geekthras/.rss'
p357
sg11
S'text/plain'
p358
sg13
Nsg14
g353
stRp359
sg30
g351
sg75
(lp360
g110
ag292
ag293
ag294
asg112
Vhttp://www.reddit.com/r/WTF/comments/fb3mx/the_law/c1eojsb
p361
stRp362
ag1
(g2
g3
(dp363
S'summary_detail'
p364
g1
(g2
g3
(dp365
g9
S'http://www.reddit.com/user/Geekthras/.rss'
p366
sg11
S'text/html'
p367
sg13
Nsg14
VI think it's more just not being able to understand how to make things happen at first. In minecraft, you hit a tree until it breaks and you get wood. Simple enough. In dwarf fortress? You enable the woodcutting labor on a dwarf, then select an area of forest to be cut down and the dwarf gets around to cutting it eventually. It reminds me of trying to learn Haskell, it's just a totally different paradigm that seems like a totally unnatural way to do thing until you're used to it.
p368
stRp369
sg93
g45
((I2011
I1
I26
I15
I11
I0
I2
I26
I0
t(dtRp370
sg18
(lp371
g1
(g2
g3
(dp372
g21
Vhttp://www.reddit.com/r/gaming/comments/f9fzp/zero_punctuation_minecraft/c1ebklp
p373
sg11
g23
sg24
g25
stRp374
asg29
VGeekthras on Zero Punctuation: Minecraft
p375
sg44
V2011-01-26T15:11:00.473662-07:00-0700
p376
sg102
g368
sg103
I01
sS'title_detail'
p377
g1
(g2
g3
(dp378
g9
S'http://www.reddit.com/user/Geekthras/.rss'
p379
sg11
S'text/plain'
p380
sg13
Nsg14
g375
stRp381
sg30
g373
sg75
(lp382
g110
aVnew
p383
aVreddit: the voice of the internet -- news before it happens (4)
p384
aS'read'
p385
asg112
Vhttp://www.reddit.com/r/gaming/comments/f9fzp/zero_punctuation_minecraft/c1ebklp
p386
stRp387
ag1
(g2
g3
(dp388
S'summary_detail'
p389
g1
(g2
g3
(dp390
g9
S'http://www.reddit.com/user/Geekthras/.rss'
p391
sg11
S'text/html'
p392
sg13
Nsg14
VI'm assuming you don't need to do this with only a ruler and straightedge? I'm not sure what &quot;determine&quot; means in this case. Assuming that, you can write the length MN as a function of the height of the secant above AB and the radius of the circle by drawing the line OM or ON. Then use similar triangles to do the same for PQ. Then it's just algebra to find the height of the secant.
p393
stRp394
sg93
g45
((I2011
I1
I26
I10
I44
I55
I2
I26
I0
t(dtRp395
sg18
(lp396
g1
(g2
g3
(dp397
g21
Vhttp://www.reddit.com/r/cheatatmathhomework/comments/f9ab4/i_need_help_with_this_geometry_problem/c1eafhc
p398
sg11
g23
sg24
g25
stRp399
asg29
VGeekthras on I need help with this geometry problem
p400
sg44
V2011-01-26T10:44:55.802992-07:00-0700
p401
sg102
g393
sg103
I01
sS'title_detail'
p402
g1
(g2
g3
(dp403
g9
S'http://www.reddit.com/user/Geekthras/.rss'
p404
sg11
S'text/plain'
p405
sg13
Nsg14
g400
stRp406
sg30
g398
sg75
(lp407
g110
ag383
ag384
ag385
asg112
Vhttp://www.reddit.com/r/cheatatmathhomework/comments/f9ab4/i_need_help_with_this_geometry_problem/c1eafhc
p408
stRp409
ag1
(g2
g3
(dp410
S'summary_detail'
p411
g1
(g2
g3
(dp412
g9
S'http://www.reddit.com/user/Geekthras/.rss'
p413
sg11
S'text/html'
p414
sg13
Nsg14
VYup! It's basically designed for insane mathematicians. It also has a built-in operator (I think it's ::) for evaluating [DFAs](http://en.wikipedia.org/wiki/Deterministic_finite-state_machine) on input.
p415
stRp416
sg93
g45
((I2011
I1
I22
I12
I33
I59
I5
I22
I0
t(dtRp417
sg18
(lp418
g1
(g2
g3
(dp419
g21
Vhttp://www.reddit.com/r/programming/comments/f6xto/_/c1dsbeh
p420
sg11
g23
sg24
g25
stRp421
asg29
VGeekthras on ($=[$=[]][(__=!$+$)[_=-~-~-~$]+({}+$)[_/_]+ ($$=($_=!''+$)[_/_]+$_[+$])])()[__[_/_]+__ [_+~$]+$_[_]+$$](_/_)
p422
sg44
V2011-01-22T12:33:59.352755-07:00-0700
p423
sg102
g415
sg103
I01
sS'title_detail'
p424
g1
(g2
g3
(dp425
g9
S'http://www.reddit.com/user/Geekthras/.rss'
p426
sg11
S'text/plain'
p427
sg13
Nsg14
g422
stRp428
sg30
g420
sg75
(lp429
g110
aVnew
p430
aVreddit: the voice of the internet -- news before it happens (4)
p431
aS'read'
p432
asg112
Vhttp://www.reddit.com/r/programming/comments/f6xto/_/c1dsbeh
p433
stRp434
ag1
(g2
g3
(dp435
S'summary_detail'
p436
g1
(g2
g3
(dp437
g9
S'http://www.reddit.com/user/Geekthras/.rss'
p438
sg11
S'text/html'
p439
sg13
Nsg14
VThe irony here is that your post doesn't have a thumbnail.
p440
stRp441
sg93
g45
((I2011
I1
I22
I9
I41
I7
I5
I22
I0
t(dtRp442
sg18
(lp443
g1
(g2
g3
(dp444
g21
Vhttp://www.reddit.com/r/gaming/comments/f71i3/this_thumbnail_sure_isnt_suspicious/c1drpm6
p445
sg11
g23
sg24
g25
stRp446
asg29
VGeekthras on This thumbnail sure isn't suspicious
p447
sg44
V2011-01-22T09:41:07.326743-07:00-0700
p448
sg102
g440
sg103
I01
sS'title_detail'
p449
g1
(g2
g3
(dp450
g9
S'http://www.reddit.com/user/Geekthras/.rss'
p451
sg11
S'text/plain'
p452
sg13
Nsg14
g447
stRp453
sg30
g445
sg75
(lp454
g110
ag430
ag431
ag432
asg112
Vhttp://www.reddit.com/r/gaming/comments/f71i3/this_thumbnail_sure_isnt_suspicious/c1drpm6
p455
stRp456
ag1
(g2
g3
(dp457
S'summary_detail'
p458
g1
(g2
g3
(dp459
g9
S'http://www.reddit.com/user/Geekthras/.rss'
p460
sg11
S'text/html'
p461
sg13
Nsg14
VMy first thought when I saw this was &quot;Is this [J](http://pastebin.com/raw.php?i=yt58K0Ht) code?&quot;. But no, there's not enough periods or colons.
p462
stRp463
sg93
g45
((I2011
I1
I22
I6
I4
I59
I5
I22
I0
t(dtRp464
sg18
(lp465
g1
(g2
g3
(dp466
g21
Vhttp://www.reddit.com/r/programming/comments/f6xto/_/c1dr8mv
p467
sg11
g23
sg24
g25
stRp468
asg29
VGeekthras on ($=[$=[]][(__=!$+$)[_=-~-~-~$]+({}+$)[_/_]+ ($$=($_=!''+$)[_/_]+$_[+$])])()[__[_/_]+__ [_+~$]+$_[_]+$$](_/_)
p469
sg44
V2011-01-22T06:04:59.423962-07:00-0700
p470
sg102
g462
sg103
I01
sS'title_detail'
p471
g1
(g2
g3
(dp472
g9
S'http://www.reddit.com/user/Geekthras/.rss'
p473
sg11
S'text/plain'
p474
sg13
Nsg14
g469
stRp475
sg30
g467
sg75
(lp476
g110
ag430
ag431
ag432
asg112
Vhttp://www.reddit.com/r/programming/comments/f6xto/_/c1dr8mv
p477
stRp478
ag1
(g2
g3
(dp479
S'summary_detail'
p480
g1
(g2
g3
(dp481
g9
S'http://www.reddit.com/user/Geekthras/.rss'
p482
sg11
S'text/html'
p483
sg13
Nsg14
VThere is no other Geekthras on the internets I'm pretty sure. Who's this?
p484
stRp485
sg93
g45
((I2011
I1
I20
I11
I0
I58
I3
I20
I0
t(dtRp486
sg18
(lp487
g1
(g2
g3
(dp488
g21
Vhttp://www.reddit.com/r/math/comments/f5uqr/new_math_theories_reveal_the_nature_of_numbers/c1dilf3
p489
sg11
g23
sg24
g25
stRp490
asg29
VGeekthras on New math theories reveal the nature of numbers
p491
sg44
V2011-01-20T11:00:58.051135-07:00-0700
p492
sg102
g484
sg103
I01
sS'title_detail'
p493
g1
(g2
g3
(dp494
g9
S'http://www.reddit.com/user/Geekthras/.rss'
p495
sg11
S'text/plain'
p496
sg13
Nsg14
g491
stRp497
sg30
g489
sg75
(lp498
g110
ag430
ag431
ag432
asg112
Vhttp://www.reddit.com/r/math/comments/f5uqr/new_math_theories_reveal_the_nature_of_numbers/c1dilf3
p499
stRp500
ag1
(g2
g3
(dp501
S'summary_detail'
p502
g1
(g2
g3
(dp503
g9
S'http://www.reddit.com/user/Geekthras/.rss'
p504
sg11
S'text/html'
p505
sg13
Nsg14
VYou have to include the trivial case of just 4.
p506
stRp507
sg93
g45
((I2011
I1
I20
I10
I35
I28
I3
I20
I0
t(dtRp508
sg18
(lp509
g1
(g2
g3
(dp510
g21
Vhttp://www.reddit.com/r/math/comments/f5uqr/new_math_theories_reveal_the_nature_of_numbers/c1digtw
p511
sg11
g23
sg24
g25
stRp512
asg29
VGeekthras on New math theories reveal the nature of numbers
p513
sg44
V2011-01-20T10:35:28.622411-07:00-0700
p514
sg102
g506
sg103
I01
sS'title_detail'
p515
g1
(g2
g3
(dp516
g9
S'http://www.reddit.com/user/Geekthras/.rss'
p517
sg11
S'text/plain'
p518
sg13
Nsg14
g513
stRp519
sg30
g511
sg75
(lp520
g110
ag430
ag431
ag432
asg112
Vhttp://www.reddit.com/r/math/comments/f5uqr/new_math_theories_reveal_the_nature_of_numbers/c1digtw
p521
stRp522
ag1
(g2
g3
(dp523
S'summary_detail'
p524
g1
(g2
g3
(dp525
g9
S'http://www.reddit.com/user/Geekthras/.rss'
p526
sg11
S'text/html'
p527
sg13
Nsg14
VWhat the fuck? That sucks.
p528
stRp529
sg93
g45
((I2011
I1
I16
I14
I3
I37
I6
I16
I0
t(dtRp530
sg18
(lp531
g1
(g2
g3
(dp532
g21
Vhttp://www.reddit.com/r/Rockband/comments/f3bm9/rock_band_network_has_its_plug_pulled_on_wii/c1czs4o
p533
sg11
g23
sg24
g25
stRp534
asg29
VGeekthras on Rock Band Network Has Its Plug Pulled On Wii
p535
sg44
V2011-01-16T14:03:37.160518-07:00-0700
p536
sg102
g528
sg103
I01
sS'title_detail'
p537
g1
(g2
g3
(dp538
g9
S'http://www.reddit.com/user/Geekthras/.rss'
p539
sg11
S'text/plain'
p540
sg13
Nsg14
g535
stRp541
sg30
g533
sg75
(lp542
g110
ag430
ag431
ag432
asg112
Vhttp://www.reddit.com/r/Rockband/comments/f3bm9/rock_band_network_has_its_plug_pulled_on_wii/c1czs4o
p543
stRp544
ag1
(g2
g3
(dp545
S'summary_detail'
p546
g1
(g2
g3
(dp547
g9
S'http://www.reddit.com/user/Geekthras/.rss'
p548
sg11
S'text/html'
p549
sg13
Nsg14
VAradia's bed was in Derse, it's conceivable that his could be somewhere weird too, like even deeper in this weird asteroid place or something.
p550
stRp551
sg93
g45
((I2011
I1
I16
I10
I39
I24
I6
I16
I0
t(dtRp552
sg18
(lp553
g1
(g2
g3
(dp554
g21
Vhttp://www.reddit.com/r/homestuck/comments/f337u/s_wake/c1cyznp
p555
sg11
g23
sg24
g25
stRp556
asg29
VGeekthras on [S] Wake.
p557
sg44
V2011-01-16T10:39:24.806872-07:00-0700
p558
sg102
g550
sg103
I01
sS'title_detail'
p559
g1
(g2
g3
(dp560
g9
S'http://www.reddit.com/user/Geekthras/.rss'
p561
sg11
S'text/plain'
p562
sg13
Nsg14
g557
stRp563
sg30
g555
sg75
(lp564
g110
ag430
ag431
ag432
asg112
Vhttp://www.reddit.com/r/homestuck/comments/f337u/s_wake/c1cyznp
p565
stRp566
ag1
(g2
g3
(dp567
S'summary_detail'
p568
g1
(g2
g3
(dp569
g9
S'http://www.reddit.com/user/Geekthras/.rss'
p570
sg11
S'text/html'
p571
sg13
Nsg14
VThe effect was completely ruined by the fact that at the bottom was a large ad for projector lamps. I started giggling to myself and couldn't take the rest seriously.
p572
stRp573
sg93
g45
((I2011
I1
I13
I0
I31
I9
I3
I13
I0
t(dtRp574
sg18
(lp575
g1
(g2
g3
(dp576
g21
Vhttp://www.reddit.com/r/nosleep/comments/ezw3n/this_scp_article_continues_to_screw_with_my/c1ck0om
p577
sg11
g23
sg24
g25
stRp578
asg29
VGeekthras on this SCP article continues to screw with my ability to turn off the lights and go to bed, especially the photo at the end.
p579
sg44
V2011-01-13T00:31:09.827759-07:00-0700
p580
sg102
g572
sg103
I01
sS'title_detail'
p581
g1
(g2
g3
(dp582
g9
S'http://www.reddit.com/user/Geekthras/.rss'
p583
sg11
S'text/plain'
p584
sg13
Nsg14
g579
stRp585
sg30
g577
sg75
(lp586
g110
ag430
ag431
ag432
asg112
Vhttp://www.reddit.com/r/nosleep/comments/ezw3n/this_scp_article_continues_to_screw_with_my/c1ck0om
p587
stRp588
ag1
(g2
g3
(dp589
S'summary_detail'
p590
g1
(g2
g3
(dp591
g9
S'http://www.reddit.com/user/Geekthras/.rss'
p592
sg11
S'text/html'
p593
sg13
Nsg14
V:O Seriously? I just remembered &quot;portraits. except windows. not his house&quot; and extrapolated as best I could. I'll have to look up that video, I've never seen it, I just read this one online a few years ago.
p594
stRp595
sg93
g45
((I2011
I1
I13
I0
I16
I18
I3
I13
I0
t(dtRp596
sg18
(lp597
g1
(g2
g3
(dp598
g21
Vhttp://www.reddit.com/r/nosleep/comments/f1a7o/creepy_story_i_heard_as_a_kid_never_fails_to/c1cjz81
p599
sg11
g23
sg24
g25
stRp600
asg29
VGeekthras on Creepy story I heard as a kid, never fails to freak me out even now.
p601
sg44
V2011-01-13T00:16:18.397164-07:00-0700
p602
sg102
g594
sg103
I01
sS'title_detail'
p603
g1
(g2
g3
(dp604
g9
S'http://www.reddit.com/user/Geekthras/.rss'
p605
sg11
S'text/plain'
p606
sg13
Nsg14
g601
stRp607
sg30
g599
sg75
(lp608
g110
ag430
ag431
ag432
asg112
Vhttp://www.reddit.com/r/nosleep/comments/f1a7o/creepy_story_i_heard_as_a_kid_never_fails_to/c1cjz81
p609
stRp610
ag1
(g2
g3
(dp611
S'summary_detail'
p612
g1
(g2
g3
(dp613
g9
S'http://www.reddit.com/user/Geekthras/.rss'
p614
sg11
S'text/html'
p615
sg13
Nsg14
V&quot;as a kid&quot;?
p616
stRp617
sg93
g45
((I2011
I1
I13
I0
I12
I42
I3
I13
I0
t(dtRp618
sg18
(lp619
g1
(g2
g3
(dp620
g21
Vhttp://www.reddit.com/r/nosleep/comments/f1cwq/did_this_give_anyone_else_nosleep_as_a_kid/c1cjyum
p621
sg11
g23
sg24
g25
stRp622
asg29
VGeekthras on Did this give anyone else nosleep as a kid?
p623
sg44
V2011-01-13T00:12:42.297521-07:00-0700
p624
sg102
g616
sg103
I01
sS'title_detail'
p625
g1
(g2
g3
(dp626
g9
S'http://www.reddit.com/user/Geekthras/.rss'
p627
sg11
S'text/plain'
p628
sg13
Nsg14
g623
stRp629
sg30
g621
sg75
(lp630
g110
ag430
ag431
ag432
asg112
Vhttp://www.reddit.com/r/nosleep/comments/f1cwq/did_this_give_anyone_else_nosleep_as_a_kid/c1cjyum
p631
stRp632
ag1
(g2
g3
(dp633
S'summary_detail'
p634
g1
(g2
g3
(dp635
g9
S'http://www.reddit.com/user/Geekthras/.rss'
p636
sg11
S'text/html'
p637
sg13
Nsg14
VMy favorite variant, and one that is particularly effective in keeping me up all goddamned night: A man gets lost in the woods on a very cold winter day. Not very up on his survival skills, he wanders around basically aimlessly and, he's wondering how he's going to survive the night, happens upon a cabin. It's getting dark, he's been wandering around for hours, and the door's unlocked, so he figures he'll make his explanations to the owner later and walks in, throwing his coat to the ground as he enters. After starting a meager fire in the hearth, he collapses on a couch, not being quite rude enough to sleep in the owner's bed, and starts to doze off. However, despite his exhaustion, he finds it quite difficult to get to sleep because as he looks around the cabin he finds himself quite put off by an extraordinarily grotesque and tasteless set of portraits the owner has hanging on the walls. All the portraits seem to have been made to appear as though they are staring directly at the observer, and most are leering in a most off-putting way. The effect is naturally disconcerting and it is several hours before he can get to sleep. The man rises in the morning still uneasy and prepares to leave as quickly as he can. However, when he glances at the walls, he sees no portraits hanging up - only windows. Fuck me, now *I* can't sleep.
p638
stRp639
sg93
g45
((I2011
I1
I13
I0
I10
I24
I3
I13
I0
t(dtRp640
sg18
(lp641
g1
(g2
g3
(dp642
g21
Vhttp://www.reddit.com/r/nosleep/comments/f1a7o/creepy_story_i_heard_as_a_kid_never_fails_to/c1cjymf
p643
sg11
g23
sg24
g25
stRp644
asg29
VGeekthras on Creepy story I heard as a kid, never fails to freak me out even now.
p645
sg44
V2011-01-13T00:10:24.355609-07:00-0700
p646
sg102
g638
sg103
I01
sS'title_detail'
p647
g1
(g2
g3
(dp648
g9
S'http://www.reddit.com/user/Geekthras/.rss'
p649
sg11
S'text/plain'
p650
sg13
Nsg14
g645
stRp651
sg30
g643
sg75
(lp652
g110
ag430
ag431
ag432
asg112
Vhttp://www.reddit.com/r/nosleep/comments/f1a7o/creepy_story_i_heard_as_a_kid_never_fails_to/c1cjymf
p653
stRp654
ag1
(g2
g3
(dp655
S'summary_detail'
p656
g1
(g2
g3
(dp657
S'base'
p658
S'http://www.reddit.com/user/Geekthras/.rss'
p659
sS'type'
p660
S'text/html'
p661
sS'language'
p662
NsS'value'
p663
VI think it's so we can show off how well we handle snow. Like, thirty years ago, we didn't know what the fuck we were doing but now everyone gets off the roads, chills out, lets the plows do their thing, and we're back to work a day or two later instead of pulling a Maryland and being completely jammed up for like a week.
p664
stRp665
sS'updated_parsed'
p666
g45
((I2011
I1
I12
I9
I52
I22
I2
I12
I0
t(dtRp667
sS'links'
p668
(lp669
g1
(g2
g3
(dp670
S'href'
p671
Vhttp://www.reddit.com/r/boston/comments/f0bcy/get_ready_boston/c1cgdy2
p672
sg660
S'text/html'
p673
sS'rel'
p674
S'alternate'
p675
stRp676
asS'title'
p677
VGeekthras on Get Ready Boston...
p678
sS'updated'
p679
V2011-01-12T09:52:22.660003-07:00-0700
p680
sS'summary'
p681
g664
sS'guidislink'
p682
I01
sS'title_detail'
p683
g1
(g2
g3
(dp684
g658
S'http://www.reddit.com/user/Geekthras/.rss'
p685
sg660
S'text/plain'
p686
sg662
Nsg663
g678
stRp687
sS'link'
p688
g672
sS'canto_state'
p689
(lp690
g110
ag430
ag431
ag432
asS'id'
p691
Vhttp://www.reddit.com/r/boston/comments/f0bcy/get_ready_boston/c1cgdy2
p692
stRp693
ag1
(g2
g3
(dp694
S'summary_detail'
p695
g1
(g2
g3
(dp696
g658
S'http://www.reddit.com/user/Geekthras/.rss'
p697
sg660
S'text/html'
p698
sg662
Nsg663
VCordwainer Smith (Or Cordwainzer as my friends and I call him... don't ask) is a pretty great undiscovered gem! Nobody seems to have heard of him but he writes some of the coolest stuff I've read in ages. I hear if you like him you might like CS Friedman (actually the other way around but whatever)
p699
stRp700
sg666
g45
((I2011
I1
I6
I23
I34
I39
I3
I6
I0
t(dtRp701
sg668
(lp702
g1
(g2
g3
(dp703
g671
Vhttp://www.reddit.com/r/books/comments/exq7x/just_read_all_of_cordwainer_smithwow/c1brbq2
p704
sg660
g673
sg674
g675
stRp705
asg677
VGeekthras on Just read all of Cordwainer Smith...WOW!
p706
sg679
V2011-01-06T23:34:39.856614-07:00-0700
p707
sg681
g699
sg682
I01
sS'title_detail'
p708
g1
(g2
g3
(dp709
g658
S'http://www.reddit.com/user/Geekthras/.rss'
p710
sg660
S'text/plain'
p711
sg662
Nsg663
g706
stRp712
sg688
g704
sg689
(lp713
g110
ag430
ag431
ag432
asg691
Vhttp://www.reddit.com/r/books/comments/exq7x/just_read_all_of_cordwainer_smithwow/c1brbq2
p714
stRp715
ag1
(g2
g3
(dp716
S'summary_detail'
p717
g1
(g2
g3
(dp718
S'base'
p719
S'http://www.reddit.com/user/Geekthras/.rss'
p720
sS'type'
p721
S'text/html'
p722
sS'value'
p723
VWherever the furries are, there will be drama :/
p724
sS'language'
p725
NstRp726
sS'updated_parsed'
p727
g45
((I2011
I1
I6
I1
I6
I30
I3
I6
I0
t(dtRp728
sS'links'
p729
(lp730
g1
(g2
g3
(dp731
S'href'
p732
Vhttp://www.reddit.com/r/furry/comments/ex2if/interested_in_talking_to_a_furry/c1bmhiu
p733
sg721
S'text/html'
p734
sS'rel'
p735
S'alternate'
p736
stRp737
asS'title'
p738
VGeekthras on Interested in talking to a Furry.
p739
sS'updated'
p740
V2011-01-06T01:06:30.537207-07:00-0700
p741
sS'summary'
p742
g724
sS'guidislink'
p743
I01
sS'title_detail'
p744
g1
(g2
g3
(dp745
g719
S'http://www.reddit.com/user/Geekthras/.rss'
p746
sg721
S'text/plain'
p747
sg723
g739
sg725
NstRp748
sS'link'
p749
g733
sS'canto_state'
p750
(lp751
g110
ag430
ag431
ag432
asS'id'
p752
Vhttp://www.reddit.com/r/furry/comments/ex2if/interested_in_talking_to_a_furry/c1bmhiu
p753
stRp754
ag1
(g2
g3
(dp755
S'summary_detail'
p756
g1
(g2
g3
(dp757
S'base'
p758
S'http://www.reddit.com/user/Geekthras/.rss'
p759
sS'type'
p760
S'text/html'
p761
sS'value'
p762
V<table> <tr><td> <a href="http://www.reddit.com/r/homestuck/comments/ew81g/andrew_is_going_to_be_at_tcaf/"><img src="http://thumbs.reddit.com/t3_ew81g.png" alt="Andrew is going to be at TCAF!" title="Andrew is going to be at TCAF!" /></a> </td><td> submitted by <a href="http://www.reddit.com/user/Geekthras"> Geekthras </a> to <a href="http://www.reddit.com/r/homestuck/"> homestuck</a> <br /> <a href="http://torontocomics.com/andrew-hussie/">[link]</a> <a href="http://www.reddit.com/r/homestuck/comments/ew81g/andrew_is_going_to_be_at_tcaf/">[1 comment]</a> </td></tr></table>
p763
sS'language'
p764
NstRp765
sS'updated_parsed'
p766
g45
((I2011
I1
I4
I21
I47
I27
I1
I4
I0
t(dtRp767
sS'links'
p768
(lp769
g1
(g2
g3
(dp770
S'href'
p771
Vhttp://www.reddit.com/r/homestuck/comments/ew81g/andrew_is_going_to_be_at_tcaf/
p772
sg760
S'text/html'
p773
sS'rel'
p774
S'alternate'
p775
stRp776
asS'title'
p777
VAndrew is going to be at TCAF!
p778
sS'updated'
p779
VTue, 04 Jan 2011 14:47:27 -0700
p780
sS'media_thumbnail'
p781
V
sS'summary'
p782
g763
sS'guidislink'
p783
I00
sS'title_detail'
p784
g1
(g2
g3
(dp785
g758
S'http://www.reddit.com/user/Geekthras/.rss'
p786
sg760
S'text/plain'
p787
sg762
g778
sg764
NstRp788
sS'link'
p789
g772
sS'canto_state'
p790
(lp791
g110
ag430
ag431
ag432
asS'id'
p792
Vhttp://www.reddit.com/r/homestuck/comments/ew81g/andrew_is_going_to_be_at_tcaf/
p793
stRp794
ag1
(g2
g3
(dp795
S'summary_detail'
p796
g1
(g2
g3
(dp797
g758
S'http://www.reddit.com/user/Geekthras/.rss'
p798
sg760
S'text/html'
p799
sg762
VI don't think you're in any position to make judgements about what's weird and what isn't, judging by your comment history. The real question is: why do people keep bringing them up just to circlejerk about what creepy attention whores they all are? If they really creep you out, then just stop bringing them up every other thread.
p800
sg764
NstRp801
sg766
g45
((I2011
I1
I4
I12
I31
I46
I1
I4
I0
t(dtRp802
sg768
(lp803
g1
(g2
g3
(dp804
g771
Vhttp://www.reddit.com/r/comics/comments/evw88/honey_i_think_billy_might_come_out_of_the_closet/c1beygp
p805
sg760
g773
sg774
g775
stRp806
asg777
VGeekthras on Honey! I think Billy might come out of the closet to us! [SMBC]
p807
sg779
V2011-01-04T12:31:46.209585-07:00-0700
p808
sg782
g800
sg783
I01
sS'title_detail'
p809
g1
(g2
g3
(dp810
g758
S'http://www.reddit.com/user/Geekthras/.rss'
p811
sg760
S'text/plain'
p812
sg762
g807
sg764
NstRp813
sg789
g805
sg790
(lp814
g110
ag430
ag431
ag432
asg792
Vhttp://www.reddit.com/r/comics/comments/evw88/honey_i_think_billy_might_come_out_of_the_closet/c1beygp
p815
stRp816
ag1
(g2
g3
(dp817
S'summary_detail'
p818
g1
(g2
g3
(dp819
g758
S'http://www.reddit.com/user/Geekthras/.rss'
p820
sg760
S'text/html'
p821
sg762
V&gt; (please don't flood this post's comments with them)
p822
sg764
NstRp823
sg766
g45
((I2011
I1
I3
I14
I46
I37
I0
I3
I0
t(dtRp824
sg768
(lp825
g1
(g2
g3
(dp826
g771
Vhttp://www.reddit.com/r/blog/comments/evmek/2010_we_hardly_knew_ye/c1bb50q
p827
sg760
g773
sg774
g775
stRp828
asg777
VGeekthras on 2010, we hardly knew ye
p829
sg779
V2011-01-03T14:46:37.864480-07:00-0700
p830
sg782
g822
sg783
I01
sS'title_detail'
p831
g1
(g2
g3
(dp832
g758
S'http://www.reddit.com/user/Geekthras/.rss'
p833
sg760
S'text/plain'
p834
sg762
g829
sg764
NstRp835
sg789
g827
sg790
(lp836
g110
ag430
ag431
ag432
asg792
Vhttp://www.reddit.com/r/blog/comments/evmek/2010_we_hardly_knew_ye/c1bb50q
p837
stRp838
ag1
(g2
g3
(dp839
S'summary_detail'
p840
g1
(g2
g3
(dp841
S'base'
p842
S'http://www.reddit.com/user/Geekthras/.rss'
p843
sS'type'
p844
S'text/html'
p845
sS'language'
p846
NsS'value'
p847
VThe most important character part is probably a reference to people getting uppity about certain characters - Gamzee, Sollux, Nepeta, and so forth - not getting much screentime and only being incidental to the plot. The fact that he used the 'blood' to draw a clown face on the page before it makes me think that maybe it's not blood and AH is just messing with us
p848
stRp849
sS'updated_parsed'
p850
g45
((I2011
I1
I1
I13
I19
I50
I5
I1
I0
t(dtRp851
sS'links'
p852
(lp853
g1
(g2
g3
(dp854
S'href'
p855
Vhttp://www.reddit.com/r/homestuck/comments/euikb/what_the_fuck_is_going_on/c1b2hcw
p856
sg844
S'text/html'
p857
sS'rel'
p858
S'alternate'
p859
stRp860
asS'title'
p861
VGeekthras on What the fuck is going on?
p862
sS'updated'
p863
V2011-01-01T13:19:50.342026-07:00-0700
p864
sS'summary'
p865
g848
sS'guidislink'
p866
I01
sS'title_detail'
p867
g1
(g2
g3
(dp868
g842
S'http://www.reddit.com/user/Geekthras/.rss'
p869
sg844
S'text/plain'
p870
sg846
Nsg847
g862
stRp871
sS'link'
p872
g856
sS'canto_state'
p873
(lp874
g110
ag430
ag431
ag432
asS'id'
p875
Vhttp://www.reddit.com/r/homestuck/comments/euikb/what_the_fuck_is_going_on/c1b2hcw
p876
stRp877
ag1
(g2
g3
(dp878
S'summary_detail'
p879
g1
(g2
g3
(dp880
S'base'
p881
S'http://www.reddit.com/user/Geekthras/.rss'
p882
sS'type'
p883
S'text/html'
p884
sS'value'
p885
VYou should probably mark e621 links as NSFW due to ads. Just saying.
p886
sS'language'
p887
NstRp888
sS'updated_parsed'
p889
g45
((I2010
I12
I25
I20
I59
I12
I5
I359
I0
t(dtRp890
sS'links'
p891
(lp892
g1
(g2
g3
(dp893
S'href'
p894
Vhttp://www.reddit.com/r/furry/comments/er9ah/this_is_what_cyanide_and_happiness_would_look/c1acb05
p895
sg883
S'text/html'
p896
sS'rel'
p897
S'alternate'
p898
stRp899
asS'title'
p900
VGeekthras on This is what Cyanide and Happiness would look like as a furry comic
p901
sS'updated'
p902
V2010-12-25T20:59:12.228971-07:00-0700
p903
sS'summary'
p904
g886
sS'guidislink'
p905
I01
sS'title_detail'
p906
g1
(g2
g3
(dp907
g881
S'http://www.reddit.com/user/Geekthras/.rss'
p908
sg883
S'text/plain'
p909
sg885
g901
sg887
NstRp910
sS'link'
p911
g895
sS'canto_state'
p912
(lp913
g110
ag430
ag431
ag432
asS'id'
p914
Vhttp://www.reddit.com/r/furry/comments/er9ah/this_is_what_cyanide_and_happiness_would_look/c1acb05
p915
stRp916
ag1
(g2
g3
(dp917
S'summary_detail'
p918
g1
(g2
g3
(dp919
S'base'
p920
S'http://www.reddit.com/user/Geekthras/.rss'
p921
sS'type'
p922
S'text/html'
p923
sS'value'
p924
VDid the same thing. &quot;I... uhh... I'll just pretend I didn't see that comment and buy it on steam anyway&quot;
p925
sS'language'
p926
NstRp927
sS'updated_parsed'
p928
g45
((I2010
I12
I23
I11
I50
I32
I3
I357
I0
t(dtRp929
sS'links'
p930
(lp931
g1
(g2
g3
(dp932
S'href'
p933
Vhttp://www.reddit.com/r/gaming/comments/eqjcw/steam_holiday_sale_day_4_wings_of_prey_deathspank/c1a4ln6
p934
sg922
S'text/html'
p935
sS'rel'
p936
S'alternate'
p937
stRp938
asS'title'
p939
VGeekthras on Steam Holiday Sale Day 4: Wings of Prey, Deathspank, Dead Rising 2, Blur, Darksiders, Mass Effect 2, more
p940
sS'updated'
p941
V2010-12-23T11:50:32.468036-07:00-0700
p942
sS'summary'
p943
g925
sS'guidislink'
p944
I01
sS'title_detail'
p945
g1
(g2
g3
(dp946
g920
S'http://www.reddit.com/user/Geekthras/.rss'
p947
sg922
S'text/plain'
p948
sg924
g940
sg926
NstRp949
sS'link'
p950
g934
sS'canto_state'
p951
(lp952
g110
ag430
ag431
ag432
asS'id'
p953
Vhttp://www.reddit.com/r/gaming/comments/eqjcw/steam_holiday_sale_day_4_wings_of_prey_deathspank/c1a4ln6
p954
stRp955
ag1
(g2
g3
(dp956
S'summary_detail'
p957
g1
(g2
g3
(dp958
g920
S'http://www.reddit.com/user/Geekthras/.rss'
p959
sg922
S'text/html'
p960
sg924
VI rarely enjoy listening to extended solos. The only exception I've heard recently is the solo posted to /r/Percussionists a few days ago: [Khanda West](http://www.youtube.com/watch?v=F_T4YXhnveA) by Steve Smith.
p961
sg926
NstRp962
sg928
g45
((I2010
I12
I16
I16
I23
I15
I3
I350
I0
t(dtRp963
sg930
(lp964
g1
(g2
g3
(dp965
g933
Vhttp://www.reddit.com/r/drums/comments/emuyp/shell_kick_your_ass_on_drums_and_shes_only_13/c19co57
p966
sg922
g935
sg936
g937
stRp967
asg939
VGeekthras on She'll kick your ass on drums and she's only 13.
p968
sg941
V2010-12-16T16:23:15.244459-07:00-0700
p969
sg943
g961
sg944
I01
sS'title_detail'
p970
g1
(g2
g3
(dp971
g920
S'http://www.reddit.com/user/Geekthras/.rss'
p972
sg922
S'text/plain'
p973
sg924
g968
sg926
NstRp974
sg950
g966
sg951
(lp975
g110
ag430
ag431
ag432
asg953
Vhttp://www.reddit.com/r/drums/comments/emuyp/shell_kick_your_ass_on_drums_and_shes_only_13/c19co57
p976
stRp977
ag1
(g2
g3
(dp978
S'summary_detail'
p979
g1
(g2
g3
(dp980
g920
S'http://www.reddit.com/user/Geekthras/.rss'
p981
sg922
S'text/html'
p982
sg924
V13 now. Where making this transpire.
p983
sg926
NstRp984
sg928
g45
((I2010
I12
I16
I0
I10
I55
I3
I350
I0
t(dtRp985
sg930
(lp986
g1
(g2
g3
(dp987
g933
Vhttp://www.reddit.com/r/homestuck/comments/eky8h/no_this_shit_grows_now/c199n84
p988
sg922
g935
sg936
g937
stRp989
asg939
VGeekthras on NO. This shit grows, NOW
p990
sg941
V2010-12-16T00:10:55.543291-07:00-0700
p991
sg943
g983
sg944
I01
sS'title_detail'
p992
g1
(g2
g3
(dp993
g920
S'http://www.reddit.com/user/Geekthras/.rss'
p994
sg922
S'text/plain'
p995
sg924
g990
sg926
NstRp996
sg950
g988
sg951
(lp997
g110
ag430
ag431
ag432
asg953
Vhttp://www.reddit.com/r/homestuck/comments/eky8h/no_this_shit_grows_now/c199n84
p998
stRp999
ag1
(g2
g3
(dp1000
S'summary_detail'
p1001
g1
(g2
g3
(dp1002
g920
S'http://www.reddit.com/user/Geekthras/.rss'
p1003
sg922
S'text/html'
p1004
sg924
VOh man! He did Three in the Morning if I'm not mistaken! Tell him he is the RADDEST.
p1005
sg926
NstRp1006
sg928
g45
((I2010
I12
I15
I21
I29
I17
I2
I349
I0
t(dtRp1007
sg930
(lp1008
g1
(g2
g3
(dp1009
g933
Vhttp://www.reddit.com/r/comics/comments/emjr9/mspaintadventures_keeps_blurring_the_lines_of/c1993g5
p1010
sg922
g935
sg936
g937
stRp1011
asg939
VGeekthras on MSPAINTADVENTURES keeps blurring the lines of what a web comic has to be. Todays comic is a playable web game.
p1012
sg941
V2010-12-15T21:29:17.604582-07:00-0700
p1013
sg943
g1005
sg944
I01
sS'title_detail'
p1014
g1
(g2
g3
(dp1015
g920
S'http://www.reddit.com/user/Geekthras/.rss'
p1016
sg922
S'text/plain'
p1017
sg924
g1012
sg926
NstRp1018
sg950
g1010
sg951
(lp1019
g110
ag430
ag431
ag432
asg953
Vhttp://www.reddit.com/r/comics/comments/emjr9/mspaintadventures_keeps_blurring_the_lines_of/c1993g5
p1020
stRp1021
ag1
(g2
g3
(dp1022
S'summary_detail'
p1023
g1
(g2
g3
(dp1024
S'base'
p1025
S'http://www.reddit.com/user/Geekthras/.rss'
p1026
sS'type'
p1027
S'text/html'
p1028
sS'language'
p1029
NsS'value'
p1030
VHeh, true to form he's already updated again today &gt;_&gt;
p1031
stRp1032
sS'updated_parsed'
p1033
g45
((I2010
I12
I15
I21
I2
I14
I2
I349
I0
t(dtRp1034
sS'links'
p1035
(lp1036
g1
(g2
g3
(dp1037
S'href'
p1038
Vhttp://www.reddit.com/r/comics/comments/emjr9/mspaintadventures_keeps_blurring_the_lines_of/c198zra
p1039
sg1027
S'text/html'
p1040
sS'rel'
p1041
S'alternate'
p1042
stRp1043
asS'title'
p1044
VGeekthras on MSPAINTADVENTURES keeps blurring the lines of what a web comic has to be. Todays comic is a playable web game.
p1045
sS'updated'
p1046
V2010-12-15T21:02:14.817927-07:00-0700
p1047
sS'summary'
p1048
g1031
sS'guidislink'
p1049
I01
sS'title_detail'
p1050
g1
(g2
g3
(dp1051
g1025
S'http://www.reddit.com/user/Geekthras/.rss'
p1052
sg1027
S'text/plain'
p1053
sg1029
Nsg1030
g1045
stRp1054
sS'link'
p1055
g1039
sS'canto_state'
p1056
(lp1057
g110
ag430
ag431
ag432
asS'id'
p1058
Vhttp://www.reddit.com/r/comics/comments/emjr9/mspaintadventures_keeps_blurring_the_lines_of/c198zra
p1059
stRp1060
ag1
(g2
g3
(dp1061
S'summary_detail'
p1062
g1
(g2
g3
(dp1063
g1025
S'http://www.reddit.com/user/Geekthras/.rss'
p1064
sg1027
S'text/html'
p1065
sg1029
Nsg1030
V[If you're a fan check this out](http://www.tindeck.com/listen/tmey) and then [this](http://www.youtube.com/watch?v=p43_9n9xUVo)
p1066
stRp1067
sg1033
g45
((I2010
I12
I15
I20
I57
I49
I2
I349
I0
t(dtRp1068
sg1035
(lp1069
g1
(g2
g3
(dp1070
g1038
Vhttp://www.reddit.com/r/comics/comments/emjr9/mspaintadventures_keeps_blurring_the_lines_of/c198z3w
p1071
sg1027
g1040
sg1041
g1042
stRp1072
asg1044
VGeekthras on MSPAINTADVENTURES keeps blurring the lines of what a web comic has to be. Todays comic is a playable web game.
p1073
sg1046
V2010-12-15T20:57:49.733578-07:00-0700
p1074
sg1048
g1066
sg1049
I01
sS'title_detail'
p1075
g1
(g2
g3
(dp1076
g1025
S'http://www.reddit.com/user/Geekthras/.rss'
p1077
sg1027
S'text/plain'
p1078
sg1029
Nsg1030
g1073
stRp1079
sg1055
g1071
sg1056
(lp1080
g110
ag430
ag431
ag432
asg1058
Vhttp://www.reddit.com/r/comics/comments/emjr9/mspaintadventures_keeps_blurring_the_lines_of/c198z3w
p1081
stRp1082
astRp1083
.