ccopy_reg
_reconstructor
p1
(cfeedparser
FeedParserDict
p2
c__builtin__
dict
p3
(dp4
S'feed'
p5
g1
(g2
g3
(dp6
S'updated'
p7
V2011-02-10T03:27:11+00:00
p8
sS'subtitle'
p9
VDebian Latest News
p10
sS'links'
p11
(lp12
g1
(g2
g3
(dp13
S'href'
p14
Vhttp://www.debian.org/News/
p15
sS'type'
p16
S'text/html'
p17
sS'rel'
p18
S'alternate'
p19
stRp20
asS'language'
p21
S'en'
p22
sS'title'
p23
VDebian News
p24
sS'rdf_seq'
p25
V
sS'rdf_li'
p26
V
sS'subtitle_detail'
p27
g1
(g2
g3
(dp28
S'base'
p29
S'news.en.rdf'
p30
sg16
S'text/html'
p31
sg21
Ven
p32
sS'value'
p33
g10
stRp34
sS'title_detail'
p35
g1
(g2
g3
(dp36
g29
g30
sg16
S'text/plain'
p37
sg21
g32
sg33
g24
stRp38
sS'link'
p39
g15
sS'entries'
p40
V
sS'updated_parsed'
p41
ctime
struct_time
p42
((I2011
I2
I10
I3
I27
I11
I3
I41
I0
t(dtRp43
stRp44
sS'status'
p45
I200
sg7
g42
((I2011
I2
I10
I3
I27
I11
I3
I41
I0
t(dtRp46
sS'encoding'
p47
S'iso-8859-1'
p48
sS'bozo'
p49
I0
sg40
(lp50
g1
(g2
g3
(dp51
S'summary_detail'
p52
g1
(g2
g3
(dp53
g29
g30
sg16
S'text/html'
p54
sg21
g32
sg33
VThe Debian Project wishes to announce the change of the GNU Privacy\u000aGuard key used to digitally sign the archive reference files. Signatures\u000aare used to ensure that packages installed by users are the very same\u000aoriginally distributed by Debian and have not been exchanged or\u000atampered with.
p55
stRp56
sg41
g42
((I2011
I2
I9
I0
I0
I0
I2
I40
I0
t(dtRp57
sg11
(lp58
g1
(g2
g3
(dp59
g14
Vhttp://www.debian.org/News/2011/20110209
p60
sg16
g17
sg18
g19
stRp61
asg23
VDebian Archive Signing Key to be changed
p62
sg7
V2011-02-09
p63
sS'summary'
p64
g55
sS'title_detail'
p65
g1
(g2
g3
(dp66
g29
g30
sg16
S'text/plain'
p67
sg21
g32
sg33
g62
stRp68
sg39
g60
sS'canto_state'
p69
(lp70
VDebian News
p71
aV*
aS'read'
p72
asS'id'
p73
Vhttp://www.debian.org/News/2011/20110209
p74
stRp75
ag1
(g2
g3
(dp76
S'summary_detail'
p77
g1
(g2
g3
(dp78
g29
g30
sg16
S'text/html'
p79
sg21
g32
sg33
VOn the occasion of the release of <a href="http://www.debian.org/News/2011/20110205a">Debian 6.0 <q>Squeeze</q></a>, the\u000aDebian website team is pleased to publish a new design for Debian's web\u000apresence. After roughly <a href="http://web.archive.org/web/19981212024258/http://www.debian.org/">13\u000ayears</a> with nearly the same design, the layout and design of many of the\u000awebsites run by Debian changed together with today's release of Debian\u000aSqueeze.\u000aDebian's <a href="http://www.debian.org">main website</a> and its <a href="http://wiki.debian.org/">wiki</a>, <a href="http://lists.debian.org/">lists archive</a>, blog aggregator <a href="http://planet.debian.org/">planet</a> and <a href="http://packages.debian.org/">package information system</a> now have\u000aa consistent new layout. The new layout is meant to give Debian's web\u000apresence a cleaner and more modern look as well as making the web pages\u000aeasier to use and navigate.
p80
stRp81
sg41
g42
((I2011
I2
I6
I0
I0
I0
I6
I37
I0
t(dtRp82
sg11
(lp83
g1
(g2
g3
(dp84
g14
Vhttp://www.debian.org/News/2011/20110205b
p85
sg16
g17
sg18
g19
stRp86
asg23
VNew look for Debian's websites
p87
sg7
V2011-02-06
p88
sg64
g80
sS'title_detail'
p89
g1
(g2
g3
(dp90
g29
g30
sg16
S'text/plain'
p91
sg21
g32
sg33
g87
stRp92
sg39
g85
sg69
(lp93
VDebian News
p94
aV*
aS'read'
p95
asg73
Vhttp://www.debian.org/News/2011/20110205b
p96
stRp97
ag1
(g2
g3
(dp98
S'summary_detail'
p99
g1
(g2
g3
(dp100
g29
g30
sg16
S'text/html'
p101
sg21
g32
sg33
VAfter 24 months of constant development, the Debian Project is\u000aproud to present its new stable version 6.0 (code name\u000a<q>Squeeze</q>). Debian 6.0 is a free operating system, coming for the\u000afirst time in two flavours. Alongside Debian GNU/Linux, Debian\u000aGNU/kFreeBSD is introduced with this version as a <q>technology\u000apreview</q>.
p102
stRp103
sg41
g42
((I2011
I2
I6
I0
I0
I0
I6
I37
I0
t(dtRp104
sg11
(lp105
g1
(g2
g3
(dp106
g14
Vhttp://www.debian.org/News/2011/20110205a
p107
sg16
g17
sg18
g19
stRp108
asg23
VDebian 6.0 "Squeeze" released
p109
sg7
V2011-02-06
p110
sg64
g102
sS'title_detail'
p111
g1
(g2
g3
(dp112
g29
g30
sg16
S'text/plain'
p113
sg21
g32
sg33
g109
stRp114
sg39
g107
sg69
(lp115
g94
aV*
ag95
asg73
Vhttp://www.debian.org/News/2011/20110205a
p116
stRp117
ag1
(g2
g3
(dp118
S'summary_detail'
p119
g1
(g2
g3
(dp120
g29
g30
sg16
S'text/html'
p121
sg21
g32
sg33
VThe Debian Project is pleased to announce that it will be present at\u000aseveral events in the coming weeks, ranging from developer oriented\u000aconferences to user oriented trade fairs. As usual, <a href="http://www.debian.org/events/">upcoming events</a> are also\u000alisted on our website.
p122
stRp123
sg41
g42
((I2011
I1
I26
I0
I0
I0
I2
I26
I0
t(dtRp124
sg11
(lp125
g1
(g2
g3
(dp126
g14
Vhttp://www.debian.org/News/2011/20110126
p127
sg16
g17
sg18
g19
stRp128
asg23
VDebian Project at several conferences and trade fairs
p129
sg7
V2011-01-26
p130
sg64
g122
sS'title_detail'
p131
g1
(g2
g3
(dp132
g29
g30
sg16
S'text/plain'
p133
sg21
g32
sg33
g129
stRp134
sg39
g127
sg69
(lp135
VDebian News
p136
aV*
aVnew
p137
aS'read'
p138
asg73
Vhttp://www.debian.org/News/2011/20110126
p139
stRp140
ag1
(g2
g3
(dp141
S'summary_detail'
p142
g1
(g2
g3
(dp143
g29
g30
sg16
S'text/html'
p144
sg21
g32
sg33
VThe Debian Project would like to invite representatives of distributions\u000aderived from Debian to participate in a <a href="http://wiki.debian.org/Derivatives/Census">census of Debian\u000aderivatives</a>.\u000aIn addition we would like to invite representatives of distributions\u000aderived from Debian to join the <a href="http://wiki.debian.org/Derivatives">Debian derivatives</a> <a href="http://wiki.debian.org/DerivativesFrontDesk">front</a> <a href="http://www.debian.org/News/2010/20100629">desk</a>.\u000aDebian encourages members of derivative distributions to contribute\u000atheir ideas, patches, bug reports to Debian and to the upstream\u000adevelopers of software included in Debian.
p145
stRp146
sg41
g42
((I2011
I1
I24
I0
I0
I0
I0
I24
I0
t(dtRp147
sg11
(lp148
g1
(g2
g3
(dp149
g14
Vhttp://www.debian.org/News/2011/20110124
p150
sg16
g17
sg18
g19
stRp151
asg23
VDebian derivatives census
p152
sg7
V2011-01-24
p153
sg64
g145
sS'title_detail'
p154
g1
(g2
g3
(dp155
g29
g30
sg16
S'text/plain'
p156
sg21
g32
sg33
g152
stRp157
sg39
g150
sg69
(lp158
VDebian News
p159
aV*
aVnew
p160
aS'read'
p161
asg73
Vhttp://www.debian.org/News/2011/20110124
p162
stRp163
ag1
(g2
g3
(dp164
S'summary_detail'
p165
g1
(g2
g3
(dp166
g29
g30
sg16
S'text/html'
p167
sg21
g32
sg33
VThe Debian project is pleased to announce the eighth update of its\u000astable distribution Debian GNU/Linux 5.0 (codename <q></q>).\u000aThis update mainly adds corrections for security problems to the stable release,\u000aalong with a few adjustment to serious problems.
p168
stRp169
sg41
g42
((I2011
I1
I22
I0
I0
I0
I5
I22
I0
t(dtRp170
sg11
(lp171
g1
(g2
g3
(dp172
g14
Vhttp://www.debian.org/News/2011/20110122
p173
sg16
g17
sg18
g19
stRp174
asg23
VUpdated Debian GNU/Linux: 5.0.8 released
p175
sg7
V2011-01-22
p176
sg64
g168
sS'title_detail'
p177
g1
(g2
g3
(dp178
g29
g30
sg16
S'text/plain'
p179
sg21
g32
sg33
g175
stRp180
sg39
g173
sg69
(lp181
VDebian News
p182
aV*
aVnew
p183
aS'read'
p184
asg73
Vhttp://www.debian.org/News/2011/20110122
p185
stRp186
ag1
(g2
g3
(dp187
S'summary_detail'
p188
g1
(g2
g3
(dp189
g29
g30
sg16
S'text/html'
p190
sg21
g32
sg33
VThe Debian Installer team is pleased to announce the first release\u000acandidate of the installer for Debian 6.0 <q>Squeeze</q>. Changes since\u000athe second beta of the installer include:
p191
stRp192
sg41
g42
((I2011
I1
I13
I0
I0
I0
I3
I13
I0
t(dtRp193
sg11
(lp194
g1
(g2
g3
(dp195
g14
Vhttp://www.debian.org/News/2011/20110113
p196
sg16
g17
sg18
g19
stRp197
asg23
VDebian Installer 6.0 Release Candidate 1 published
p198
sg7
V2011-01-13
p199
sg64
g191
sS'title_detail'
p200
g1
(g2
g3
(dp201
g29
g30
sg16
S'text/plain'
p202
sg21
g32
sg33
g198
stRp203
sg39
g196
sg69
(lp204
g182
aV*
ag183
ag184
asg73
Vhttp://www.debian.org/News/2011/20110113
p205
stRp206
ag1
(g2
g3
(dp207
S'summary_detail'
p208
g1
(g2
g3
(dp209
S'base'
p210
S'news.en.rdf'
p211
sS'type'
p212
S'text/html'
p213
sS'value'
p214
VThe Debian project has been working in removing non-free firmware from the\u000aLinux kernel shipped with Debian for the past two release cycles. At the time\u000aof the releases of <a href="$(HOME)/releases/etch/">Debian 4.0 <q>Etch</q></a>\u000aand <a href="$(HOME)/releases/lenny/">5.0 <q>Lenny</q></a>, however, it was not yet\u000apossible to ship Linux kernels stripped of all non-free firmware bits. Back\u000athen we had to acknowledge that freedom issues concerning Linux firmware were\u000a<a href="$(HOME)/vote/2006/vote_007">not completely</a>\u000a<a href="$(HOME)/vote/2008/vote_003">sorted out</a>.
p215
sS'language'
p216
Ven
p217
stRp218
sS'updated_parsed'
p219
g42
((I2010
I12
I15
I0
I0
I0
I2
I349
I0
t(dtRp220
sS'links'
p221
(lp222
g1
(g2
g3
(dp223
S'href'
p224
Vhttp://www.debian.org/News/2010/20101215
p225
sg212
S'text/html'
p226
sS'rel'
p227
S'alternate'
p228
stRp229
asS'title'
p230
VDebian 6.0 "Squeeze" to be released with completely free Linux Kernel
p231
sS'updated'
p232
V2010-12-15
p233
sS'summary'
p234
g215
sS'title_detail'
p235
g1
(g2
g3
(dp236
g210
g211
sg212
S'text/plain'
p237
sg214
g231
sg216
g217
stRp238
sS'link'
p239
g225
sS'canto_state'
p240
(lp241
g182
aV*
ag183
ag184
asS'id'
p242
Vhttp://www.debian.org/News/2010/20101215
p243
stRp244
ag1
(g2
g3
(dp245
S'summary_detail'
p246
g1
(g2
g3
(dp247
g210
g211
sg212
S'text/html'
p248
sg214
VThe Debian project is pleased to announce the seventh update of its\u000astable distribution Debian GNU/Linux 5.0 (codename "lenny"). This update\u000amainly adds corrections for security problems to the stable release,\u000aalong with a few adjustment to serious problems.
p249
sg216
g217
stRp250
sg219
g42
((I2010
I11
I27
I0
I0
I0
I5
I331
I0
t(dtRp251
sg221
(lp252
g1
(g2
g3
(dp253
g224
Vhttp://www.debian.org/News/2010/20101127
p254
sg212
g226
sg227
g228
stRp255
asg230
VUpdated Debian GNU/Linux: 5.0.7 released
p256
sg232
V2010-11-27
p257
sg234
g249
sS'title_detail'
p258
g1
(g2
g3
(dp259
g210
g211
sg212
S'text/plain'
p260
sg214
g256
sg216
g217
stRp261
sg239
g254
sg240
(lp262
g182
aV*
ag183
ag184
asg242
Vhttp://www.debian.org/News/2010/20101127
p263
stRp264
ag1
(g2
g3
(dp265
S'summary_detail'
p266
g1
(g2
g3
(dp267
S'base'
p268
S'news.en.rdf'
p269
sS'type'
p270
S'text/html'
p271
sS'language'
p272
Ven
p273
sS'value'
p274
VThe Debian project is proud to announce, that its upcoming release\u000aDebian 6.0 <q>Squeeze</q> has entered the final phase of its development\u000acycle and is nearly in its final form. We now seek the help of our users\u000ato find the remaining bugs related to upgrades from the previous stable\u000arelease as well as bugs related to the installation of fresh systems.
p275
stRp276
sS'updated_parsed'
p277
g42
((I2010
I11
I16
I0
I0
I0
I1
I320
I0
t(dtRp278
sS'links'
p279
(lp280
g1
(g2
g3
(dp281
S'href'
p282
Vhttp://www.debian.org/News/2010/20101116b
p283
sg270
S'text/html'
p284
sS'rel'
p285
S'alternate'
p286
stRp287
asS'title'
p288
VDebian 6.0 "Squeeze": Call for Upgrade and Installation tests
p289
sS'updated'
p290
V2010-11-16
p291
sS'summary'
p292
g275
sS'title_detail'
p293
g1
(g2
g3
(dp294
g268
g269
sg270
S'text/plain'
p295
sg272
g273
sg274
g289
stRp296
sS'link'
p297
g283
sS'canto_state'
p298
(lp299
g182
aV*
ag183
ag184
asS'id'
p300
Vhttp://www.debian.org/News/2010/20101116b
p301
stRp302
ag1
(g2
g3
(dp303
S'summary_detail'
p304
g1
(g2
g3
(dp305
g268
g269
sg270
S'text/html'
p306
sg272
g273
sg274
VThe Debian Women project is pleased to announce the forthcoming start of a\u000aseries of training sessions which will be held on IRC by experienced community\u000amembers. The main goal of this initiative is to encourage more people, and\u000aspecifically women, to contribute to Debian while introducing them to\u000adifferent aspects of the Debian Project. Topics will span over a wide range\u000aof subjects related to daily Debian maintenance efforts as well as advanced tasks.\u000aThese sessions are organized by the Debian Women project on its IRC channel\u000a(#debian-women on irc.debian.org) and are open to everybody, regardless of\u000agender or previous involvements in the community.
p307
stRp308
sg277
g42
((I2010
I11
I16
I0
I0
I0
I1
I320
I0
t(dtRp309
sg279
(lp310
g1
(g2
g3
(dp311
g282
Vhttp://www.debian.org/News/2010/20101116a
p312
sg270
g284
sg285
g286
stRp313
asg288
VDebian Women IRC Training Sessions
p314
sg290
V2010-11-16
p315
sg292
g307
sS'title_detail'
p316
g1
(g2
g3
(dp317
g268
g269
sg270
S'text/plain'
p318
sg272
g273
sg274
g314
stRp319
sg297
g312
sg298
(lp320
g182
aV*
ag183
ag184
asg300
Vhttp://www.debian.org/News/2010/20101116a
p321
stRp322
asS'canto_update'
p323
F1297684098.9518239
sS'headers'
p324
(dp325
S'content-length'
p326
S'6055'
p327
sS'content-location'
p328
g30
sS'content-language'
p329
g22
sS'accept-ranges'
p330
S'bytes'
p331
sS'expires'
p332
S'Tue, 15 Feb 2011 11:48:25 GMT'
p333
sS'vary'
p334
S'negotiate,accept-language'
p335
sS'server'
p336
S'Apache'
p337
sS'tcn'
p338
S'choice'
p339
sS'last-modified'
p340
S'Thu, 10 Feb 2011 03:27:11 GMT'
p341
sS'connection'
p342
S'close'
p343
sS'etag'
p344
S'"767f2-17a7-49be52831a1c0;49c2efde64d40"'
p345
sS'cache-control'
p346
S'max-age=86400'
p347
sS'date'
p348
S'Mon, 14 Feb 2011 11:48:25 GMT'
p349
sS'content-type'
p350
S'application/rss+xml'
p351
ssg14
S'http://www.debian.org/News/news'
p352
sS'version'
p353
S'rss10'
p354
sg69
(lp355
sS'etag'
p356
g345
sS'namespaces'
p357
(dp358
S''
Vhttp://purl.org/rss/1.0/
p359
sS'rdf'
p360
Vhttp://www.w3.org/1999/02/22-rdf-syntax-ns#
p361
sS'dc'
p362
Vhttp://purl.org/dc/elements/1.1/
p363
ssS'canto_version'
p364
(I0
I7
I9
tp365
stRp366
.