ccopy_reg
_reconstructor
p1
(cfeedparser
FeedParserDict
p2
c__builtin__
dict
p3
(dp4
S'feed'
p5
g1
(g2
g3
(dp6
S'lastbuilddate'
p7
VFri, 11 Feb 2011 21:08:09 +0000
p8
sS'subtitle'
p9
VSo Beautiful
p10
sS'links'
p11
(lp12
g1
(g2
g3
(dp13
S'href'
p14
Vhttp://nedroid.com/feed/
p15
sS'type'
p16
Vapplication/rss+xml
p17
sS'rel'
p18
Vself
p19
stRp20
ag1
(g2
g3
(dp21
S'href'
p22
Vhttp://nedroid.com
p23
sS'type'
p24
S'text/html'
p25
sS'rel'
p26
S'alternate'
p27
stRp28
asS'generator'
p29
Vhttp://wordpress.org/?v=2.9.1
p30
sS'title'
p31
VNedroid Picture Diary 2
p32
sS'generator_detail'
p33
g1
(g2
g3
(dp34
S'name'
p35
g30
stRp36
sS'subtitle_detail'
p37
g1
(g2
g3
(dp38
S'base'
p39
S'http://nedroid.com/feed/'
p40
sg24
S'text/html'
p41
sS'language'
p42
NsS'value'
p43
g10
stRp44
sg42
Ven
p45
sS'title_detail'
p46
g1
(g2
g3
(dp47
g39
S'http://nedroid.com/feed/'
p48
sg24
S'text/plain'
p49
sg42
Nsg43
g32
stRp50
sS'link'
p51
g23
sS'sy_updateperiod'
p52
Vhourly
p53
sS'sy_updatefrequency'
p54
V1
stRp55
sS'status'
p56
I200
sS'encoding'
p57
S'UTF-8'
p58
sS'bozo'
p59
I0
sS'entries'
p60
(lp61
g1
(g2
g3
(dp62
S'updated'
p63
VFri, 11 Feb 2011 21:07:36 +0000
p64
sS'updated_parsed'
p65
ctime
struct_time
p66
((I2011
I2
I11
I21
I7
I36
I4
I42
I0
t(dtRp67
sg11
(lp68
g1
(g2
g3
(dp69
g22
Vhttp://nedroid.com/2011/02/that-guy/
p70
sg24
g25
sg26
g27
stRp71
asS'tags'
p72
(lp73
g1
(g2
g3
(dp74
S'term'
p75
VBeartato
p76
sS'scheme'
p77
NsS'label'
p78
NstRp79
ag1
(g2
g3
(dp80
g75
VComic
p81
sg77
Nsg78
NstRp82
asS'summary_detail'
p83
g1
(g2
g3
(dp84
g39
S'http://nedroid.com/feed/'
p85
sg24
S'text/html'
p86
sg42
Nsg43
V<p><a href="http://nedroid.com/2011/02/that-guy/"><img src="http://nedroid.com/comic/comics-rss/2011-02-11-beartato-mistaken.png" border="0" alt="That Guy" title="I get that a lot" /></a></p>
p87
stRp88
sg51
g70
sS'wfw_commentrss'
p89
Vhttp://nedroid.com/2011/02/that-guy/feed/
p90
sS'id'
p91
Vhttp://nedroid.com/2011/02/that-guy/
p92
sS'slash_comments'
p93
V0
sg31
VThat Guy
p94
sS'author'
p95
Vnedroid
p96
sS'comments'
p97
Vhttp://nedroid.com/2011/02/that-guy/#comments
p98
sS'summary'
p99
g87
sS'content'
p100
(lp101
g1
(g2
g3
(dp102
g39
S'http://nedroid.com/feed/'
p103
sg24
S'text/html'
p104
sg42
Nsg43
V<p><a href="http://nedroid.com/2011/02/that-guy/"><img src="http://nedroid.com/comic/comics-rss/2011-02-11-beartato-mistaken.png" border="0" alt="That Guy" title="I get that a lot" /></a></p>
p105
stRp106
asS'guidislink'
p107
I00
sS'title_detail'
p108
g1
(g2
g3
(dp109
g39
S'http://nedroid.com/feed/'
p110
sg24
S'text/plain'
p111
sg42
Nsg43
g94
stRp112
sS'canto_state'
p113
(lp114
VNedroid Picture Diary 2
p115
aV*
aS'read'
p116
astRp117
ag1
(g2
g3
(dp118
g63
VMon, 07 Feb 2011 22:08:28 +0000
p119
sg65
g66
((I2011
I2
I7
I22
I8
I28
I0
I38
I0
t(dtRp120
sg11
(lp121
g1
(g2
g3
(dp122
g22
Vhttp://nedroid.com/2011/02/spring-dreams/
p123
sg24
g25
sg26
g27
stRp124
asg72
(lp125
g1
(g2
g3
(dp126
g75
VBlog
p127
sg77
Nsg78
NstRp128
asS'summary_detail'
p129
g1
(g2
g3
(dp130
g39
S'http://nedroid.com/feed/'
p131
sg24
S'text/html'
p132
sg42
Nsg43
VWinter will be over soon.
p133
stRp134
sg51
g123
sS'wfw_commentrss'
p135
Vhttp://nedroid.com/2011/02/spring-dreams/feed/
p136
sg91
Vhttp://nedroid.com/2011/02/spring-dreams/
p137
sS'slash_comments'
p138
V0
sg31
VSpring Dreams
p139
sg95
Vnedroid
p140
sS'comments'
p141
Vhttp://nedroid.com/2011/02/spring-dreams/#comments
p142
sg99
g133
sg100
(lp143
g1
(g2
g3
(dp144
g39
S'http://nedroid.com/feed/'
p145
sg24
S'text/html'
p146
sg42
Nsg43
V<p><img src="http://nedroid.com/imagesb/beartato-kiteflying.jpg" /></p>\u000a<p>Winter will be over soon.</p>
p147
stRp148
asg107
I00
sS'title_detail'
p149
g1
(g2
g3
(dp150
g39
S'http://nedroid.com/feed/'
p151
sg24
S'text/plain'
p152
sg42
Nsg43
g139
stRp153
sg113
(lp154
VNedroid Picture Diary 2
p155
aV*
aS'read'
p156
astRp157
ag1
(g2
g3
(dp158
g63
VThu, 03 Feb 2011 20:41:13 +0000
p159
sg65
g66
((I2011
I2
I3
I20
I41
I13
I3
I34
I0
t(dtRp160
sg11
(lp161
g1
(g2
g3
(dp162
g22
Vhttp://nedroid.com/2011/02/table-manners/
p163
sg24
g25
sg26
g27
stRp164
asg72
(lp165
g1
(g2
g3
(dp166
g75
VBeartato
p167
sg77
Nsg78
NstRp168
ag1
(g2
g3
(dp169
g75
VComic
p170
sg77
Nsg78
NstRp171
asS'summary_detail'
p172
g1
(g2
g3
(dp173
g39
S'http://nedroid.com/feed/'
p174
sg24
S'text/html'
p175
sg42
Nsg43
V<p><a href="http://nedroid.com/2011/02/table-manners/"><img src="http://nedroid.com/comic/comics-rss/2011-02-03-beartato-lickingplates.png" border="0" alt="Table Manners" title="I don't think you're supposed to eat off those commemorative Star Trek\u2122 plates.  I think they are probably incredibly toxic." /></a></p>
p176
stRp177
sg51
g163
sS'wfw_commentrss'
p178
Vhttp://nedroid.com/2011/02/table-manners/feed/
p179
sg91
Vhttp://nedroid.com/2011/02/table-manners/
p180
sS'slash_comments'
p181
V0
sg31
VTable Manners
p182
sg95
Vnedroid
p183
sS'comments'
p184
Vhttp://nedroid.com/2011/02/table-manners/#comments
p185
sg99
g176
sg100
(lp186
g1
(g2
g3
(dp187
g39
S'http://nedroid.com/feed/'
p188
sg24
S'text/html'
p189
sg42
Nsg43
V<p><a href="http://nedroid.com/2011/02/table-manners/"><img src="http://nedroid.com/comic/comics-rss/2011-02-03-beartato-lickingplates.png" border="0" alt="Table Manners" title="I don't think you're supposed to eat off those commemorative Star Trek\u2122 plates.  I think they are probably incredibly toxic." /></a></p>
p190
stRp191
asg107
I00
sS'title_detail'
p192
g1
(g2
g3
(dp193
g39
S'http://nedroid.com/feed/'
p194
sg24
S'text/plain'
p195
sg42
Nsg43
g182
stRp196
sg113
(lp197
VNedroid Picture Diary 2
p198
aV*
aS'read'
p199
astRp200
ag1
(g2
g3
(dp201
g63
VWed, 02 Feb 2011 14:27:18 +0000
p202
sg65
g66
((I2011
I2
I2
I14
I27
I18
I2
I33
I0
t(dtRp203
sg11
(lp204
g1
(g2
g3
(dp205
g22
Vhttp://nedroid.com/2011/02/groundhogday2011/
p206
sg24
g25
sg26
g27
stRp207
asg72
(lp208
g1
(g2
g3
(dp209
g75
VBeartato
p210
sg77
Nsg78
NstRp211
ag1
(g2
g3
(dp212
g75
VComic
p213
sg77
Nsg78
NstRp214
asS'summary_detail'
p215
g1
(g2
g3
(dp216
g39
S'http://nedroid.com/feed/'
p217
sg24
S'text/html'
p218
sg42
Nsg43
V<p><a href="http://nedroid.com/2011/02/groundhogday2011/"><img src="http://nedroid.com/comic/comics-rss/2011-02-02-beartato-groundhogday2011.png" border="0" alt="Shady Deals" title="This morning I saw the shadows of a couple of FOOLS" /></a></p>
p219
stRp220
sg51
g206
sS'wfw_commentrss'
p221
Vhttp://nedroid.com/2011/02/groundhogday2011/feed/
p222
sg91
Vhttp://nedroid.com/2011/02/groundhogday2011/
p223
sS'slash_comments'
p224
V0
sg31
VShady Deals
p225
sg95
Vnedroid
p226
sS'comments'
p227
Vhttp://nedroid.com/2011/02/groundhogday2011/#comments
p228
sg99
g219
sg100
(lp229
g1
(g2
g3
(dp230
g39
S'http://nedroid.com/feed/'
p231
sg24
S'text/html'
p232
sg42
Nsg43
V<p><a href="http://nedroid.com/2011/02/groundhogday2011/"><img src="http://nedroid.com/comic/comics-rss/2011-02-02-beartato-groundhogday2011.png" border="0" alt="Shady Deals" title="This morning I saw the shadows of a couple of FOOLS" /></a></p>
p233
stRp234
asg107
I00
sS'title_detail'
p235
g1
(g2
g3
(dp236
g39
S'http://nedroid.com/feed/'
p237
sg24
S'text/plain'
p238
sg42
Nsg43
g225
stRp239
sg113
(lp240
VNedroid Picture Diary 2
p241
aV*
aS'read'
p242
astRp243
ag1
(g2
g3
(dp244
g63
VTue, 01 Feb 2011 22:01:37 +0000
p245
sg65
g66
((I2011
I2
I1
I22
I1
I37
I1
I32
I0
t(dtRp246
sg11
(lp247
g1
(g2
g3
(dp248
g22
Vhttp://nedroid.com/2011/02/advice-about-comics/
p249
sg24
g25
sg26
g27
stRp250
asg72
(lp251
g1
(g2
g3
(dp252
g75
VBeartato
p253
sg77
Nsg78
NstRp254
ag1
(g2
g3
(dp255
g75
VComic
p256
sg77
Nsg78
NstRp257
asS'summary_detail'
p258
g1
(g2
g3
(dp259
g39
S'http://nedroid.com/feed/'
p260
sg24
S'text/html'
p261
sg42
Nsg43
V<p><a href="http://nedroid.com/2011/02/advice-about-comics/"><img src="http://nedroid.com/comic/comics-rss/2011-02-01-beartato-showdonttell.png" border="0" alt="Advice About Comics" title="Get it? Do you get it" /></a></p>
p262
stRp263
sg51
g249
sS'wfw_commentrss'
p264
Vhttp://nedroid.com/2011/02/advice-about-comics/feed/
p265
sg91
Vhttp://nedroid.com/2011/02/advice-about-comics/
p266
sS'slash_comments'
p267
V0
sg31
VAdvice About Comics
p268
sg95
Vnedroid
p269
sS'comments'
p270
Vhttp://nedroid.com/2011/02/advice-about-comics/#comments
p271
sg99
g262
sg100
(lp272
g1
(g2
g3
(dp273
g39
S'http://nedroid.com/feed/'
p274
sg24
S'text/html'
p275
sg42
Nsg43
V<p><a href="http://nedroid.com/2011/02/advice-about-comics/"><img src="http://nedroid.com/comic/comics-rss/2011-02-01-beartato-showdonttell.png" border="0" alt="Advice About Comics" title="Get it? Do you get it" /></a></p>
p276
stRp277
asg107
I00
sS'title_detail'
p278
g1
(g2
g3
(dp279
g39
S'http://nedroid.com/feed/'
p280
sg24
S'text/plain'
p281
sg42
Nsg43
g268
stRp282
sg113
(lp283
VNedroid Picture Diary 2
p284
aV*
aS'read'
p285
astRp286
ag1
(g2
g3
(dp287
g63
VSat, 29 Jan 2011 19:29:43 +0000
p288
sg65
g66
((I2011
I1
I29
I19
I29
I43
I5
I29
I0
t(dtRp289
sg11
(lp290
g1
(g2
g3
(dp291
g22
Vhttp://nedroid.com/2011/01/tactics/
p292
sg24
g25
sg26
g27
stRp293
asg72
(lp294
g1
(g2
g3
(dp295
g75
VComic
p296
sg77
Nsg78
NstRp297
asS'summary_detail'
p298
g1
(g2
g3
(dp299
g39
S'http://nedroid.com/feed/'
p300
sg24
S'text/html'
p301
sg42
Nsg43
V<p><a href="http://nedroid.com/2011/01/tactics/"><img src="http://nedroid.com/comic/comics-rss/2011-01-29-babycomics.png" border="0" alt="Tactics" title="He's not talking" /></a></p>
p302
stRp303
sg51
g292
sS'wfw_commentrss'
p304
Vhttp://nedroid.com/2011/01/tactics/feed/
p305
sg91
Vhttp://nedroid.com/2011/01/tactics/
p306
sS'slash_comments'
p307
V0
sg31
VTactics
p308
sg95
Vnedroid
p309
sS'comments'
p310
Vhttp://nedroid.com/2011/01/tactics/#comments
p311
sg99
g302
sg100
(lp312
g1
(g2
g3
(dp313
g39
S'http://nedroid.com/feed/'
p314
sg24
S'text/html'
p315
sg42
Nsg43
V<p><a href="http://nedroid.com/2011/01/tactics/"><img src="http://nedroid.com/comic/comics-rss/2011-01-29-babycomics.png" border="0" alt="Tactics" title="He's not talking" /></a></p>
p316
stRp317
asg107
I00
sS'title_detail'
p318
g1
(g2
g3
(dp319
g39
S'http://nedroid.com/feed/'
p320
sg24
S'text/plain'
p321
sg42
Nsg43
g308
stRp322
sg113
(lp323
VNedroid Picture Diary 2
p324
aV*
aVnew
p325
aS'read'
p326
astRp327
ag1
(g2
g3
(dp328
g63
VThu, 27 Jan 2011 22:57:49 +0000
p329
sg65
g66
((I2011
I1
I27
I22
I57
I49
I3
I27
I0
t(dtRp330
sg11
(lp331
g1
(g2
g3
(dp332
g22
Vhttp://nedroid.com/2011/01/1103/
p333
sg24
g25
sg26
g27
stRp334
asg72
(lp335
g1
(g2
g3
(dp336
g75
VBlog
p337
sg77
Nsg78
NstRp338
asS'summary_detail'
p339
g1
(g2
g3
(dp340
g39
S'http://nedroid.com/feed/'
p341
sg24
S'text/html'
p342
sg42
Nsg43
VI have joined the Future Web and started a &#8220;Tumblr&#8221; web picture log, for purposes of posting various sketches and miscellany.  If you use &#8220;Tumblr&#8221; you can &#8220;Follow&#8221; my posts on your &#8220;Computer.&#8221; Then you will be able to see such gems at the pizza-dispensing robot I designed.
p343
stRp344
sg51
g333
sS'wfw_commentrss'
p345
Vhttp://nedroid.com/2011/01/1103/feed/
p346
sg91
Vhttp://nedroid.com/2011/01/1103/
p347
sS'slash_comments'
p348
V0
sg31
V
sg95
Vnedroid
p349
sS'comments'
p350
Vhttp://nedroid.com/2011/01/1103/#comments
p351
sg99
g343
sg100
(lp352
g1
(g2
g3
(dp353
g39
S'http://nedroid.com/feed/'
p354
sg24
S'text/html'
p355
sg42
Nsg43
V<p>I have joined the Future Web and started a &#8220;Tumblr&#8221; web picture log, for purposes of posting various sketches and miscellany. <a href="http://nedroidcomics.tumblr.com"> If you use &#8220;Tumblr&#8221; you can &#8220;Follow&#8221; my posts on your &#8220;Computer.&#8221; </a>Then you will be able to see such gems at the pizza-dispensing robot I designed.</p>\u000a<p><img src="http://nedroid.com/imagesb/pizzarobot.png" alt="Pizza comes out" /></p>
p356
stRp357
asg107
I00
sS'title_detail'
p358
g1
(g2
g3
(dp359
g39
S'http://nedroid.com/feed/'
p360
sg24
S'text/plain'
p361
sg42
Nsg43
V
stRp362
sg113
(lp363
VNedroid Picture Diary 2
p364
aV*
aVnew
p365
aS'read'
p366
astRp367
ag1
(g2
g3
(dp368
g63
VFri, 21 Jan 2011 17:22:34 +0000
p369
sg65
g66
((I2011
I1
I21
I17
I22
I34
I4
I21
I0
t(dtRp370
sg11
(lp371
g1
(g2
g3
(dp372
g22
Vhttp://nedroid.com/2011/01/dinner-date/
p373
sg24
g25
sg26
g27
stRp374
asg72
(lp375
g1
(g2
g3
(dp376
g75
VBeartato
p377
sg77
Nsg78
NstRp378
ag1
(g2
g3
(dp379
g75
VComic
p380
sg77
Nsg78
NstRp381
asS'summary_detail'
p382
g1
(g2
g3
(dp383
g39
S'http://nedroid.com/feed/'
p384
sg24
S'text/html'
p385
sg42
Nsg43
V<p><a href="http://nedroid.com/2011/01/dinner-date/"><img src="http://nedroid.com/comic/comics-rss/2011-01-21-beartato-cooldate.png" border="0" alt="Dinner Date" title="Why did I ask for my drink in a dribble glass??" /></a></p>
p386
stRp387
sg51
g373
sS'wfw_commentrss'
p388
Vhttp://nedroid.com/2011/01/dinner-date/feed/
p389
sg91
Vhttp://nedroid.com/2011/01/dinner-date/
p390
sS'slash_comments'
p391
V0
sg31
VDinner Date
p392
sg95
Vnedroid
p393
sS'comments'
p394
Vhttp://nedroid.com/2011/01/dinner-date/#comments
p395
sg99
g386
sg100
(lp396
g1
(g2
g3
(dp397
g39
S'http://nedroid.com/feed/'
p398
sg24
S'text/html'
p399
sg42
Nsg43
V<p><a href="http://nedroid.com/2011/01/dinner-date/"><img src="http://nedroid.com/comic/comics-rss/2011-01-21-beartato-cooldate.png" border="0" alt="Dinner Date" title="Why did I ask for my drink in a dribble glass??" /></a></p>
p400
stRp401
asg107
I00
sS'title_detail'
p402
g1
(g2
g3
(dp403
g39
S'http://nedroid.com/feed/'
p404
sg24
S'text/plain'
p405
sg42
Nsg43
g392
stRp406
sg113
(lp407
VNedroid Picture Diary 2
p408
aV*
aVnew
p409
aS'read'
p410
astRp411
ag1
(g2
g3
(dp412
g63
VTue, 18 Jan 2011 02:18:51 +0000
p413
sg65
g66
((I2011
I1
I18
I2
I18
I51
I1
I18
I0
t(dtRp414
sg11
(lp415
g1
(g2
g3
(dp416
g22
Vhttp://nedroid.com/2011/01/sweets-for-the-sweet/
p417
sg24
g25
sg26
g27
stRp418
asg72
(lp419
g1
(g2
g3
(dp420
g75
VBlog
p421
sg77
Nsg78
NstRp422
asS'summary_detail'
p423
g1
(g2
g3
(dp424
g39
S'http://nedroid.com/feed/'
p425
sg24
S'text/html'
p426
sg42
Nsg43
VValentine&#8217;s Day is coming up!  What better way to say to someone, &#8220;I got you this card,&#8221; than with cards like these. Did you know that some cultures consider bear-potatoes to be an aphrodisiac?  Don&#8217;t ask me which ones, I am bound to secrecy.\u000aThese cards are available from TopatoCo. \u000aWe are not responsible [...]
p427
stRp428
sg51
g417
sS'wfw_commentrss'
p429
Vhttp://nedroid.com/2011/01/sweets-for-the-sweet/feed/
p430
sg91
Vhttp://nedroid.com/2011/01/sweets-for-the-sweet/
p431
sS'slash_comments'
p432
V0
sg31
VSweets for the Sweet
p433
sg95
Vnedroid
p434
sS'comments'
p435
Vhttp://nedroid.com/2011/01/sweets-for-the-sweet/#comments
p436
sg99
g427
sg100
(lp437
g1
(g2
g3
(dp438
g39
S'http://nedroid.com/feed/'
p439
sg24
S'text/html'
p440
sg42
Nsg43
V<p><a href="http://www.topatoco.com/merchant.mvc?Screen=PROD&Store_Code=TO&Product_Code=NED-VDAY-CARDS&Category_Code=NED"><img src="http://nedroid.com/imagesb/vcards.jpg" /></a></p>\u000a<p>Valentine&#8217;s Day is coming up!  What better way to say to someone, &#8220;I got you this card,&#8221; than with cards like <i>these</i>. Did you know that some cultures consider bear-potatoes to be an aphrodisiac?  Don&#8217;t ask me which ones, I am bound to secrecy.</p>\u000a<p><a href="http://www.topatoco.com/merchant.mvc?Screen=PROD&Store_Code=TO&Product_Code=NED-VDAY-CARDS&Category_Code=NED">These cards are available from TopatoCo.</a> </p>\u000a<p><small>We are not responsible for injuries sustained when being smooched by the receiver of these cards.</small></p>
p441
stRp442
asg107
I00
sS'title_detail'
p443
g1
(g2
g3
(dp444
g39
S'http://nedroid.com/feed/'
p445
sg24
S'text/plain'
p446
sg42
Nsg43
g433
stRp447
sg113
(lp448
g408
aV*
ag409
ag410
astRp449
ag1
(g2
g3
(dp450
g63
VMon, 17 Jan 2011 15:34:19 +0000
p451
sg65
g66
((I2011
I1
I17
I15
I34
I19
I0
I17
I0
t(dtRp452
sg11
(lp453
g1
(g2
g3
(dp454
g22
Vhttp://nedroid.com/2011/01/you-comics/
p455
sg24
g25
sg26
g27
stRp456
asg72
(lp457
g1
(g2
g3
(dp458
g75
VBeartato
p459
sg77
Nsg78
NstRp460
ag1
(g2
g3
(dp461
g75
VComic
p462
sg77
Nsg78
NstRp463
asS'summary_detail'
p464
g1
(g2
g3
(dp465
g39
S'http://nedroid.com/feed/'
p466
sg24
S'text/html'
p467
sg42
Nsg43
V<p><a href="http://nedroid.com/2011/01/you-comics/"><img src="http://nedroid.com/comic/comics-rss/2011-01-17-beartato-comicaboutyou.png" border="0" alt="YOU COMICS" title="You sicken me, ___________.  I can't believe you __________ the __________." /></a></p>
p468
stRp469
sg51
g455
sS'wfw_commentrss'
p470
Vhttp://nedroid.com/2011/01/you-comics/feed/
p471
sg91
Vhttp://nedroid.com/2011/01/you-comics/
p472
sS'slash_comments'
p473
V0
sg31
VYOU COMICS
p474
sg95
Vnedroid
p475
sS'comments'
p476
Vhttp://nedroid.com/2011/01/you-comics/#comments
p477
sg99
g468
sg100
(lp478
g1
(g2
g3
(dp479
g39
S'http://nedroid.com/feed/'
p480
sg24
S'text/html'
p481
sg42
Nsg43
V<p><a href="http://nedroid.com/2011/01/you-comics/"><img src="http://nedroid.com/comic/comics-rss/2011-01-17-beartato-comicaboutyou.png" border="0" alt="YOU COMICS" title="You sicken me, ___________.  I can't believe you __________ the __________." /></a></p>
p482
stRp483
asg107
I00
sS'title_detail'
p484
g1
(g2
g3
(dp485
g39
S'http://nedroid.com/feed/'
p486
sg24
S'text/plain'
p487
sg42
Nsg43
g474
stRp488
sg113
(lp489
g408
aV*
ag409
ag410
astRp490
ag1
(g2
g3
(dp491
S'summary_detail'
p492
g1
(g2
g3
(dp493
S'base'
p494
S'http://nedroid.com/feed/'
p495
sS'type'
p496
S'text/html'
p497
sS'language'
p498
NsS'value'
p499
V<p><a href="http://nedroid.com/2011/01/memories-of-youth/"><img src="http://nedroid.com/comic/comics-rss/2011-01-13-beartato-badmemories.png" border="0" alt="Memories of Youth" title="It was a single track of Reginald singing over 'Two Princes'" /></a></p>
p500
stRp501
sS'updated_parsed'
p502
g66
((I2011
I1
I13
I20
I54
I38
I3
I13
I0
t(dtRp503
sS'links'
p504
(lp505
g1
(g2
g3
(dp506
S'href'
p507
Vhttp://nedroid.com/2011/01/memories-of-youth/
p508
sg496
S'text/html'
p509
sS'rel'
p510
S'alternate'
p511
stRp512
asS'tags'
p513
(lp514
g1
(g2
g3
(dp515
S'term'
p516
VBeartato
p517
sS'scheme'
p518
NsS'label'
p519
NstRp520
ag1
(g2
g3
(dp521
g516
VComic
p522
sg518
Nsg519
NstRp523
asS'updated'
p524
VThu, 13 Jan 2011 20:54:38 +0000
p525
sS'link'
p526
g508
sS'wfw_commentrss'
p527
Vhttp://nedroid.com/2011/01/memories-of-youth/feed/
p528
sS'id'
p529
Vhttp://nedroid.com/2011/01/memories-of-youth/
p530
sS'slash_comments'
p531
V0
sS'title'
p532
VMemories of Youth
p533
sS'author'
p534
Vnedroid
p535
sS'comments'
p536
Vhttp://nedroid.com/2011/01/memories-of-youth/#comments
p537
sS'summary'
p538
g500
sS'content'
p539
(lp540
g1
(g2
g3
(dp541
g494
S'http://nedroid.com/feed/'
p542
sg496
S'text/html'
p543
sg498
Nsg499
V<p><a href="http://nedroid.com/2011/01/memories-of-youth/"><img src="http://nedroid.com/comic/comics-rss/2011-01-13-beartato-badmemories.png" border="0" alt="Memories of Youth" title="It was a single track of Reginald singing over 'Two Princes'" /></a></p>
p544
stRp545
asS'guidislink'
p546
I00
sS'title_detail'
p547
g1
(g2
g3
(dp548
g494
S'http://nedroid.com/feed/'
p549
sg496
S'text/plain'
p550
sg498
Nsg499
g533
stRp551
sS'canto_state'
p552
(lp553
g408
aV*
ag409
ag410
astRp554
ag1
(g2
g3
(dp555
S'summary_detail'
p556
g1
(g2
g3
(dp557
S'base'
p558
S'http://nedroid.com/feed/'
p559
sS'type'
p560
S'text/html'
p561
sS'value'
p562
VHello!  My friend Emmy and I have drawn a short comic together to ring in the new year.  AND HERE IT IS. Blue-bordered panels by me, pink-bordered by Emmy.
p563
sS'language'
p564
NstRp565
sS'updated_parsed'
p566
g66
((I2011
I1
I10
I4
I27
I56
I0
I10
I0
t(dtRp567
sS'links'
p568
(lp569
g1
(g2
g3
(dp570
S'href'
p571
Vhttp://nedroid.com/2011/01/emmy-and-the-beanstalk/
p572
sg560
S'text/html'
p573
sS'rel'
p574
S'alternate'
p575
stRp576
asS'tags'
p577
(lp578
g1
(g2
g3
(dp579
S'term'
p580
VBlog
p581
sS'scheme'
p582
NsS'label'
p583
NstRp584
asS'updated'
p585
VMon, 10 Jan 2011 04:27:56 +0000
p586
sS'link'
p587
g572
sS'wfw_commentrss'
p588
Vhttp://nedroid.com/2011/01/emmy-and-the-beanstalk/feed/
p589
sS'id'
p590
Vhttp://nedroid.com/2011/01/emmy-and-the-beanstalk/
p591
sS'slash_comments'
p592
V0
sS'title'
p593
VEmmy and the Beanstalk
p594
sS'author'
p595
Vnedroid
p596
sS'comments'
p597
Vhttp://nedroid.com/2011/01/emmy-and-the-beanstalk/#comments
p598
sS'summary'
p599
g563
sS'content'
p600
(lp601
g1
(g2
g3
(dp602
g558
S'http://nedroid.com/feed/'
p603
sg560
S'text/html'
p604
sg562
V<p>Hello!  My friend <a href="http://www.emmyc.com">Emmy</a> and I have drawn a short comic together to ring in the new year.  AND HERE IT IS. Blue-bordered panels by me, pink-bordered by Emmy.<br />\u000a<span id="more-1090"></span><br />\u000a<img src="http://nedroid.com/imagesb/magicbean.png" /><br />\u000a<img src="http://nedroid.com/imagesb/magicbean2.png" /><br />\u000a<img src="http://nedroid.com/imagesb/magicbean3.png" /><br />\u000a<img src="http://nedroid.com/imagesb/magicbean4.png" /><br />\u000a<img src="http://nedroid.com/imagesb/magicbean5.png" /><br />\u000a<img src="http://nedroid.com/imagesb/magicbean6.png" /></p>
p605
sg564
NstRp606
asS'guidislink'
p607
I00
sS'title_detail'
p608
g1
(g2
g3
(dp609
g558
S'http://nedroid.com/feed/'
p610
sg560
S'text/plain'
p611
sg562
g594
sg564
NstRp612
sS'canto_state'
p613
(lp614
g408
aV*
ag409
ag410
astRp615
ag1
(g2
g3
(dp616
S'summary_detail'
p617
g1
(g2
g3
(dp618
S'base'
p619
S'http://nedroid.com/feed/'
p620
sS'type'
p621
S'text/html'
p622
sS'value'
p623
V<p><a href="http://nedroid.com/2011/01/conscience/"><img src="http://nedroid.com/comic/comics-rss/2011-01-04-consciencebear.jpg" border="0" alt="Conscience" title="The tiny angel never wins the argument" /></a></p>
p624
sS'language'
p625
NstRp626
sS'updated_parsed'
p627
g66
((I2011
I1
I4
I19
I10
I41
I1
I4
I0
t(dtRp628
sS'links'
p629
(lp630
g1
(g2
g3
(dp631
S'href'
p632
Vhttp://nedroid.com/2011/01/conscience/
p633
sg621
S'text/html'
p634
sS'rel'
p635
S'alternate'
p636
stRp637
asS'tags'
p638
(lp639
g1
(g2
g3
(dp640
S'term'
p641
VComic
p642
sS'scheme'
p643
NsS'label'
p644
NstRp645
asS'updated'
p646
VTue, 04 Jan 2011 19:10:41 +0000
p647
sS'link'
p648
g633
sS'wfw_commentrss'
p649
Vhttp://nedroid.com/2011/01/conscience/feed/
p650
sS'id'
p651
Vhttp://nedroid.com/2011/01/conscience/
p652
sS'slash_comments'
p653
V0
sS'title'
p654
VConscience
p655
sS'author'
p656
Vnedroid
p657
sS'comments'
p658
Vhttp://nedroid.com/2011/01/conscience/#comments
p659
sS'summary'
p660
g624
sS'content'
p661
(lp662
g1
(g2
g3
(dp663
g619
S'http://nedroid.com/feed/'
p664
sg621
S'text/html'
p665
sg623
V<p><a href="http://nedroid.com/2011/01/conscience/"><img src="http://nedroid.com/comic/comics-rss/2011-01-04-consciencebear.jpg" border="0" alt="Conscience" title="The tiny angel never wins the argument" /></a></p>
p666
sg625
NstRp667
asS'guidislink'
p668
I00
sS'title_detail'
p669
g1
(g2
g3
(dp670
g619
S'http://nedroid.com/feed/'
p671
sg621
S'text/plain'
p672
sg623
g655
sg625
NstRp673
sS'canto_state'
p674
(lp675
g408
aV*
ag409
ag410
astRp676
ag1
(g2
g3
(dp677
S'summary_detail'
p678
g1
(g2
g3
(dp679
S'base'
p680
S'http://nedroid.com/feed/'
p681
sS'type'
p682
S'text/html'
p683
sS'value'
p684
V<p><a href="http://nedroid.com/2010/12/another-year-gone/"><img src="http://nedroid.com/comic/comics-rss/2010-12-31-beartato-newyear2011.png" border="0" alt="Another Year Gone" title="Up to this point they had been lucky each time to find a planet exactly identical to Earth, including twins of all their friends" /></a></p>
p685
sS'language'
p686
NstRp687
sS'updated_parsed'
p688
g66
((I2010
I12
I31
I18
I43
I37
I4
I365
I0
t(dtRp689
sS'links'
p690
(lp691
g1
(g2
g3
(dp692
S'href'
p693
Vhttp://nedroid.com/2010/12/another-year-gone/
p694
sg682
S'text/html'
p695
sS'rel'
p696
S'alternate'
p697
stRp698
asS'tags'
p699
(lp700
g1
(g2
g3
(dp701
S'term'
p702
VBeartato
p703
sS'scheme'
p704
NsS'label'
p705
NstRp706
ag1
(g2
g3
(dp707
g702
VComic
p708
sg704
Nsg705
NstRp709
asS'updated'
p710
VFri, 31 Dec 2010 18:43:37 +0000
p711
sS'link'
p712
g694
sS'wfw_commentrss'
p713
Vhttp://nedroid.com/2010/12/another-year-gone/feed/
p714
sS'id'
p715
Vhttp://nedroid.com/2010/12/another-year-gone/
p716
sS'slash_comments'
p717
V0
sS'title'
p718
VAnother Year Gone
p719
sS'author'
p720
Vnedroid
p721
sS'comments'
p722
Vhttp://nedroid.com/2010/12/another-year-gone/#comments
p723
sS'summary'
p724
g685
sS'content'
p725
(lp726
g1
(g2
g3
(dp727
g680
S'http://nedroid.com/feed/'
p728
sg682
S'text/html'
p729
sg684
V<p><a href="http://nedroid.com/2010/12/another-year-gone/"><img src="http://nedroid.com/comic/comics-rss/2010-12-31-beartato-newyear2011.png" border="0" alt="Another Year Gone" title="Up to this point they had been lucky each time to find a planet exactly identical to Earth, including twins of all their friends" /></a></p>
p730
sg686
NstRp731
asS'guidislink'
p732
I00
sS'title_detail'
p733
g1
(g2
g3
(dp734
g680
S'http://nedroid.com/feed/'
p735
sg682
S'text/plain'
p736
sg684
g719
sg686
NstRp737
sS'canto_state'
p738
(lp739
g408
aV*
ag409
ag410
astRp740
ag1
(g2
g3
(dp741
S'summary_detail'
p742
g1
(g2
g3
(dp743
S'base'
p744
S'http://nedroid.com/feed/'
p745
sS'type'
p746
S'text/html'
p747
sS'value'
p748
V<p><a href="http://nedroid.com/2010/12/annual-regrets-day/"><img src="http://nedroid.com/comic/comics-rss/2010-12-30-beartato-resolutions2010.png" border="0" alt="Annual Regrets Day" title="Silly Beartato.  When are you ever going to go to Frenchia?" /></a></p>
p749
sS'language'
p750
NstRp751
sS'updated_parsed'
p752
g66
((I2010
I12
I30
I18
I36
I40
I3
I364
I0
t(dtRp753
sS'links'
p754
(lp755
g1
(g2
g3
(dp756
S'href'
p757
Vhttp://nedroid.com/2010/12/annual-regrets-day/
p758
sg746
S'text/html'
p759
sS'rel'
p760
S'alternate'
p761
stRp762
asS'tags'
p763
(lp764
g1
(g2
g3
(dp765
S'term'
p766
VBeartato
p767
sS'scheme'
p768
NsS'label'
p769
NstRp770
ag1
(g2
g3
(dp771
g766
VComic
p772
sg768
Nsg769
NstRp773
asS'updated'
p774
VThu, 30 Dec 2010 18:36:40 +0000
p775
sS'link'
p776
g758
sS'wfw_commentrss'
p777
Vhttp://nedroid.com/2010/12/annual-regrets-day/feed/
p778
sS'id'
p779
Vhttp://nedroid.com/2010/12/annual-regrets-day/
p780
sS'slash_comments'
p781
V0
sS'title'
p782
VAnnual Regrets Day
p783
sS'author'
p784
Vnedroid
p785
sS'comments'
p786
Vhttp://nedroid.com/2010/12/annual-regrets-day/#comments
p787
sS'summary'
p788
g749
sS'content'
p789
(lp790
g1
(g2
g3
(dp791
g744
S'http://nedroid.com/feed/'
p792
sg746
S'text/html'
p793
sg748
V<p><a href="http://nedroid.com/2010/12/annual-regrets-day/"><img src="http://nedroid.com/comic/comics-rss/2010-12-30-beartato-resolutions2010.png" border="0" alt="Annual Regrets Day" title="Silly Beartato.  When are you ever going to go to Frenchia?" /></a></p>
p794
sg750
NstRp795
asS'guidislink'
p796
I00
sS'title_detail'
p797
g1
(g2
g3
(dp798
g744
S'http://nedroid.com/feed/'
p799
sg746
S'text/plain'
p800
sg748
g783
sg750
NstRp801
sS'canto_state'
p802
(lp803
g408
aV*
ag409
ag410
astRp804
ag1
(g2
g3
(dp805
S'summary_detail'
p806
g1
(g2
g3
(dp807
S'base'
p808
S'http://nedroid.com/feed/'
p809
sS'type'
p810
S'text/html'
p811
sS'value'
p812
V<p><a href="http://nedroid.com/2010/12/dont-bet-on-it/"><img src="http://nedroid.com/comic/comics-rss/2010-12-28-beartato-badbet.png" border="0" alt="Don&#8217;t Bet On It" title="I was weak, and they were stylish" /></a></p>
p813
sS'language'
p814
NstRp815
sS'updated_parsed'
p816
g66
((I2010
I12
I28
I17
I27
I33
I1
I362
I0
t(dtRp817
sS'links'
p818
(lp819
g1
(g2
g3
(dp820
S'href'
p821
Vhttp://nedroid.com/2010/12/dont-bet-on-it/
p822
sg810
S'text/html'
p823
sS'rel'
p824
S'alternate'
p825
stRp826
asS'tags'
p827
(lp828
g1
(g2
g3
(dp829
S'term'
p830
VBeartato
p831
sS'scheme'
p832
NsS'label'
p833
NstRp834
ag1
(g2
g3
(dp835
g830
VComic
p836
sg832
Nsg833
NstRp837
asS'updated'
p838
VTue, 28 Dec 2010 17:27:33 +0000
p839
sS'link'
p840
g822
sS'wfw_commentrss'
p841
Vhttp://nedroid.com/2010/12/dont-bet-on-it/feed/
p842
sS'id'
p843
Vhttp://nedroid.com/2010/12/dont-bet-on-it/
p844
sS'slash_comments'
p845
V0
sS'title'
p846
VDon\u2019t Bet On It
p847
sS'author'
p848
Vnedroid
p849
sS'comments'
p850
Vhttp://nedroid.com/2010/12/dont-bet-on-it/#comments
p851
sS'summary'
p852
g813
sS'content'
p853
(lp854
g1
(g2
g3
(dp855
g808
S'http://nedroid.com/feed/'
p856
sg810
S'text/html'
p857
sg812
V<p><a href="http://nedroid.com/2010/12/dont-bet-on-it/"><img src="http://nedroid.com/comic/comics-rss/2010-12-28-beartato-badbet.png" border="0" alt="Don&#8217;t Bet On It" title="I was weak, and they were stylish" /></a></p>
p858
sg814
NstRp859
asS'guidislink'
p860
I00
sS'title_detail'
p861
g1
(g2
g3
(dp862
g808
S'http://nedroid.com/feed/'
p863
sg810
S'text/plain'
p864
sg812
g847
sg814
NstRp865
sS'canto_state'
p866
(lp867
g408
aV*
ag409
ag410
astRp868
ag1
(g2
g3
(dp869
S'summary_detail'
p870
g1
(g2
g3
(dp871
S'base'
p872
S'http://nedroid.com/feed/'
p873
sS'type'
p874
S'text/html'
p875
sS'value'
p876
V<p><a href="http://nedroid.com/2010/12/gifts-from-the-heart/"><img src="http://nedroid.com/comic/comics-rss/2010-12-22-beartato-badgifts.png" border="0" alt="Gifts From the Heart" title="He tried to hide these under a pile of boxes covered with festive paper, but I'm too clever for that!" /></a></p>
p877
sS'language'
p878
NstRp879
sS'updated_parsed'
p880
g66
((I2010
I12
I22
I21
I17
I44
I2
I356
I0
t(dtRp881
sS'links'
p882
(lp883
g1
(g2
g3
(dp884
S'href'
p885
Vhttp://nedroid.com/2010/12/gifts-from-the-heart/
p886
sg874
S'text/html'
p887
sS'rel'
p888
S'alternate'
p889
stRp890
asS'tags'
p891
(lp892
g1
(g2
g3
(dp893
S'term'
p894
VBeartato
p895
sS'scheme'
p896
NsS'label'
p897
NstRp898
ag1
(g2
g3
(dp899
g894
VComic
p900
sg896
Nsg897
NstRp901
asS'updated'
p902
VWed, 22 Dec 2010 21:17:44 +0000
p903
sS'link'
p904
g886
sS'wfw_commentrss'
p905
Vhttp://nedroid.com/2010/12/gifts-from-the-heart/feed/
p906
sS'id'
p907
Vhttp://nedroid.com/2010/12/gifts-from-the-heart/
p908
sS'slash_comments'
p909
V0
sS'title'
p910
VGifts From the Heart
p911
sS'author'
p912
Vnedroid
p913
sS'comments'
p914
Vhttp://nedroid.com/2010/12/gifts-from-the-heart/#comments
p915
sS'summary'
p916
g877
sS'content'
p917
(lp918
g1
(g2
g3
(dp919
g872
S'http://nedroid.com/feed/'
p920
sg874
S'text/html'
p921
sg876
V<p><a href="http://nedroid.com/2010/12/gifts-from-the-heart/"><img src="http://nedroid.com/comic/comics-rss/2010-12-22-beartato-badgifts.png" border="0" alt="Gifts From the Heart" title="He tried to hide these under a pile of boxes covered with festive paper, but I'm too clever for that!" /></a></p>
p922
sg878
NstRp923
asS'guidislink'
p924
I00
sS'title_detail'
p925
g1
(g2
g3
(dp926
g872
S'http://nedroid.com/feed/'
p927
sg874
S'text/plain'
p928
sg876
g911
sg878
NstRp929
sS'canto_state'
p930
(lp931
g408
aV*
ag409
ag410
astRp932
asS'canto_update'
p933
F1297684103.686754
sS'headers'
p934
(dp935
S'wp-super-cache'
p936
S'WP-Cache'
p937
sS'x-powered-by'
p938
S'PHP/5.2.6'
p939
sS'transfer-encoding'
p940
S'chunked'
p941
sS'vary'
p942
S'Cookie'
p943
sS'server'
p944
S'Apache/2.2.3 (CentOS)'
p945
sS'connection'
p946
S'close'
p947
sS'etag'
p948
S'"5a6214ec4d84c6679c6e20760a59c466"'
p949
sS'date'
p950
S'Mon, 14 Feb 2011 11:48:29 GMT'
p951
sS'content-type'
p952
S'text/xml; charset=UTF-8'
p953
sS'x-pingback'
p954
S'http://nedroid.com/xmlrpc.php'
p955
ssg22
S'http://nedroid.com/feed/'
p956
sS'version'
p957
S'atom10'
p958
sg113
(lp959
sS'etag'
p960
g949
sS'namespaces'
p961
(dp962
S''
Vhttp://www.w3.org/2005/Atom
p963
sS'sy'
p964
Vhttp://purl.org/rss/1.0/modules/syndication/
p965
sS'dc'
p966
Vhttp://purl.org/dc/elements/1.1/
p967
sg100
Vhttp://purl.org/rss/1.0/modules/content/
p968
sS'slash'
p969
Vhttp://purl.org/rss/1.0/modules/slash/
p970
sS'wfw'
p971
Vhttp://wellformedweb.org/CommentAPI/
p972
ssS'canto_version'
p973
(I0
I7
I9
tp974
stRp975
.