ccopy_reg
_reconstructor
p1
(cfeedparser
FeedParserDict
p2
c__builtin__
dict
p3
(dp4
S'feed'
p5
g1
(g2
g3
(dp6
S'lastbuilddate'
p7
VTue, 04 Jan 2011 05:00:00 +0000
p8
sS'subtitle'
p9
VSome comics by me (Max Huffman).
p10
sS'links'
p11
(lp12
g1
(g2
g3
(dp13
S'href'
p14
Vhttp://www.mocktopus.com/feed/
p15
sS'type'
p16
Vapplication/rss+xml
p17
sS'rel'
p18
Vself
p19
stRp20
ag1
(g2
g3
(dp21
S'href'
p22
Vhttp://www.mocktopus.com
p23
sS'type'
p24
S'text/html'
p25
sS'rel'
p26
S'alternate'
p27
stRp28
asS'generator'
p29
Vhttp://wordpress.org/?v=2.8.4
p30
sS'title'
p31
Vmocktopus comics - by max huffman - updates tuesdays
p32
sS'generator_detail'
p33
g1
(g2
g3
(dp34
S'name'
p35
g30
stRp36
sS'subtitle_detail'
p37
g1
(g2
g3
(dp38
S'base'
p39
S'http://www.mocktopus.com/feed/'
p40
sg24
S'text/html'
p41
sS'language'
p42
NsS'value'
p43
g10
stRp44
sg42
Ven
p45
sS'title_detail'
p46
g1
(g2
g3
(dp47
g39
S'http://www.mocktopus.com/feed/'
p48
sg24
S'text/plain'
p49
sg42
Nsg43
g32
stRp50
sS'link'
p51
g23
sS'sy_updateperiod'
p52
Vhourly
p53
sS'sy_updatefrequency'
p54
V1
stRp55
sS'status'
p56
I200
sS'updated'
p57
ctime
struct_time
p58
((I2011
I1
I4
I5
I0
I0
I1
I4
I0
t(dtRp59
sS'encoding'
p60
S'UTF-8'
p61
sS'bozo'
p62
I0
sS'entries'
p63
(lp64
g1
(g2
g3
(dp65
g57
VTue, 04 Jan 2011 05:00:00 +0000
p66
sS'updated_parsed'
p67
g58
((I2011
I1
I4
I5
I0
I0
I1
I4
I0
t(dtRp68
sg11
(lp69
g1
(g2
g3
(dp70
g22
Vhttp://www.mocktopus.com/2011/01/its-not-you-its-your-horrible-horse-noises/
p71
sg24
g25
sg26
g27
stRp72
asS'tags'
p73
(lp74
g1
(g2
g3
(dp75
S'term'
p76
VComics
p77
sS'scheme'
p78
NsS'label'
p79
NstRp80
asS'summary_detail'
p81
g1
(g2
g3
(dp82
g39
S'http://www.mocktopus.com/feed/'
p83
sg24
S'text/html'
p84
sg42
Nsg43
V<p><a href="http://www.mocktopus.com/2011/01/its-not-you-its-your-horrible-horse-noises/"><img src="http://www.mocktopus.com/feed/" border="0" alt="It&#8217;s Not You It&#8217;s Your Horrible Horse Noises" title="It&#8217;s Not You It&#8217;s Your Horrible Horse Noises" /></a></p>It&#8217;s true&#8211; Mocktopus is going on hiatus for the time being so I can get my ish in order in 2011. AAAA will continue to update as normal, and we&#8217;re only two pages into HOBO VIKING, so you haven&#8217;t missed much if you want to start reading now. You can also follow me on Twitter [...]
p85
stRp86
sg51
g71
sS'wfw_commentrss'
p87
Vhttp://www.mocktopus.com/2011/01/its-not-you-its-your-horrible-horse-noises/feed/
p88
sS'id'
p89
Vhttp://www.mocktopus.com/?p=109196013
p90
sS'slash_comments'
p91
V3
sg31
VIt\u2019s Not You It\u2019s Your Horrible Horse Noises
p92
sS'author'
p93
VMax
p94
sS'comments'
p95
Vhttp://www.mocktopus.com/2011/01/its-not-you-its-your-horrible-horse-noises/#comments
p96
sS'summary'
p97
g85
sS'content'
p98
(lp99
g1
(g2
g3
(dp100
g39
S'http://www.mocktopus.com/feed/'
p101
sg24
S'text/html'
p102
sg42
Nsg43
V<p><a href="http://www.mocktopus.com/2011/01/its-not-you-its-your-horrible-horse-noises/"><img src="http://www.mocktopus.com/feed/" border="0" alt="It&#8217;s Not You It&#8217;s Your Horrible Horse Noises" title="It&#8217;s Not You It&#8217;s Your Horrible Horse Noises" /></a></p><p>It&#8217;s true&#8211; Mocktopus is going on hiatus for the time being so I can get my ish in order in 2011. <a href="http://yourfriendmax.com/aaaa">AAAA</a> will continue to update as normal, and we&#8217;re only two pages into HOBO VIKING, so you haven&#8217;t missed much if you want to start reading now. You can also <a href="http://twitter.com/maxhuffman">follow me on Twitter</a> for updates re: Mocktopus and other projects&#8211; there&#8217;s some very cool stuff in the pipelines.</p>\u000a<p>Word up!</p>
p103
stRp104
asS'guidislink'
p105
I00
sS'title_detail'
p106
g1
(g2
g3
(dp107
g39
S'http://www.mocktopus.com/feed/'
p108
sg24
S'text/plain'
p109
sg42
Nsg43
g92
stRp110
sS'canto_state'
p111
(lp112
Vmocktopus comics - by max huffman - updates tuesdays
p113
aV*
aVnew
p114
aS'read'
p115
astRp116
ag1
(g2
g3
(dp117
g57
VTue, 14 Dec 2010 05:00:00 +0000
p118
sg67
g58
((I2010
I12
I14
I5
I0
I0
I1
I348
I0
t(dtRp119
sg11
(lp120
g1
(g2
g3
(dp121
g22
Vhttp://www.mocktopus.com/2010/12/an-alan-moore-christmas-carol/
p122
sg24
g25
sg26
g27
stRp123
asg73
(lp124
g1
(g2
g3
(dp125
g76
VComics
p126
sg78
Nsg79
NstRp127
ag1
(g2
g3
(dp128
g76
Valan moore
p129
sg78
Nsg79
NstRp130
asS'summary_detail'
p131
g1
(g2
g3
(dp132
g39
S'http://www.mocktopus.com/feed/'
p133
sg24
S'text/html'
p134
sg42
Nsg43
V<p><a href="http://www.mocktopus.com/2010/12/an-alan-moore-christmas-carol/"><img src="http://www.mocktopus.com/comics-rss/2010-12-14-an-alan-moore-christmas-carol.jpg" border="0" alt="An Alan Moore Christmas Carol" title="An Alan Moore Christmas Carol" /></a></p>
p135
stRp136
sg51
g122
sS'wfw_commentrss'
p137
Vhttp://www.mocktopus.com/2010/12/an-alan-moore-christmas-carol/feed/
p138
sg89
Vhttp://www.mocktopus.com/?p=109196011
p139
sS'slash_comments'
p140
V5
sg31
VAn Alan Moore Christmas Carol
p141
sg93
VMax
p142
sS'comments'
p143
Vhttp://www.mocktopus.com/2010/12/an-alan-moore-christmas-carol/#comments
p144
sg97
g135
sg98
(lp145
g1
(g2
g3
(dp146
g39
S'http://www.mocktopus.com/feed/'
p147
sg24
S'text/html'
p148
sg42
Nsg43
V<p><a href="http://www.mocktopus.com/2010/12/an-alan-moore-christmas-carol/"><img src="http://www.mocktopus.com/comics-rss/2010-12-14-an-alan-moore-christmas-carol.jpg" border="0" alt="An Alan Moore Christmas Carol" title="An Alan Moore Christmas Carol" /></a></p>
p149
stRp150
asg105
I00
sS'title_detail'
p151
g1
(g2
g3
(dp152
g39
S'http://www.mocktopus.com/feed/'
p153
sg24
S'text/plain'
p154
sg42
Nsg43
g141
stRp155
sg111
(lp156
g113
aV*
ag114
ag115
astRp157
ag1
(g2
g3
(dp158
g57
VTue, 07 Dec 2010 05:00:00 +0000
p159
sg67
g58
((I2010
I12
I7
I5
I0
I0
I1
I341
I0
t(dtRp160
sg11
(lp161
g1
(g2
g3
(dp162
g22
Vhttp://www.mocktopus.com/2010/12/facepunchers-big-break/
p163
sg24
g25
sg26
g27
stRp164
asg73
(lp165
g1
(g2
g3
(dp166
g76
VComics
p167
sg78
Nsg79
NstRp168
ag1
(g2
g3
(dp169
g76
Vfacepuncher
p170
sg78
Nsg79
NstRp171
asS'summary_detail'
p172
g1
(g2
g3
(dp173
g39
S'http://www.mocktopus.com/feed/'
p174
sg24
S'text/html'
p175
sg42
Nsg43
V<p><a href="http://www.mocktopus.com/2010/12/facepunchers-big-break/"><img src="http://www.mocktopus.com/feed/" border="0" alt="Facepuncher&#8217;s Big Break" title="Facepuncher&#8217;s Big Break" /></a></p>
p176
stRp177
sg51
g163
sS'wfw_commentrss'
p178
Vhttp://www.mocktopus.com/2010/12/facepunchers-big-break/feed/
p179
sg89
Vhttp://www.mocktopus.com/?p=109196008
p180
sS'slash_comments'
p181
V3
sg31
VFacepuncher\u2019s Big Break
p182
sg93
VMax
p183
sS'comments'
p184
Vhttp://www.mocktopus.com/2010/12/facepunchers-big-break/#comments
p185
sg97
g176
sg98
(lp186
g1
(g2
g3
(dp187
g39
S'http://www.mocktopus.com/feed/'
p188
sg24
S'text/html'
p189
sg42
Nsg43
V<p><a href="http://www.mocktopus.com/2010/12/facepunchers-big-break/"><img src="http://www.mocktopus.com/feed/" border="0" alt="Facepuncher&#8217;s Big Break" title="Facepuncher&#8217;s Big Break" /></a></p>
p190
stRp191
asg105
I00
sS'title_detail'
p192
g1
(g2
g3
(dp193
g39
S'http://www.mocktopus.com/feed/'
p194
sg24
S'text/plain'
p195
sg42
Nsg43
g182
stRp196
sg111
(lp197
g113
aV*
ag114
ag115
astRp198
ag1
(g2
g3
(dp199
g57
VTue, 30 Nov 2010 05:00:00 +0000
p200
sg67
g58
((I2010
I11
I30
I5
I0
I0
I1
I334
I0
t(dtRp201
sg11
(lp202
g1
(g2
g3
(dp203
g22
Vhttp://www.mocktopus.com/2010/11/shameless/
p204
sg24
g25
sg26
g27
stRp205
asg73
(lp206
g1
(g2
g3
(dp207
g76
VComics
p208
sg78
Nsg79
NstRp209
ag1
(g2
g3
(dp210
g76
Vautobio
p211
sg78
Nsg79
NstRp212
asS'summary_detail'
p213
g1
(g2
g3
(dp214
g39
S'http://www.mocktopus.com/feed/'
p215
sg24
S'text/html'
p216
sg42
Nsg43
V<p><a href="http://www.mocktopus.com/2010/11/shameless/"><img src="http://www.mocktopus.com/comics-rss/2010-11-30-shameless.jpg" border="0" alt="Shameless" title="Shameless" /></a></p>It&#8217;s true! You can now buy shirts that look like this:\u000a\u000aOr this:\u000a\u000aOr even this:\u000a\u000aWow!!!
p217
stRp218
sg51
g204
sS'wfw_commentrss'
p219
Vhttp://www.mocktopus.com/2010/11/shameless/feed/
p220
sg89
Vhttp://www.mocktopus.com/?p=109195998
p221
sS'slash_comments'
p222
V5
sg31
VShameless
p223
sg93
VMax
p224
sS'comments'
p225
Vhttp://www.mocktopus.com/2010/11/shameless/#comments
p226
sg97
g217
sg98
(lp227
g1
(g2
g3
(dp228
g39
S'http://www.mocktopus.com/feed/'
p229
sg24
S'text/html'
p230
sg42
Nsg43
V<p><a href="http://www.mocktopus.com/2010/11/shameless/"><img src="http://www.mocktopus.com/comics-rss/2010-11-30-shameless.jpg" border="0" alt="Shameless" title="Shameless" /></a></p><p>It&#8217;s true! You can now buy shirts that look like <a href="http://yourfriendmax.spreadshirt.com">this</a>:</p>\u000a<p><a href="http://yourfriendmax.spreadshirt.com/sadboyfeld-A6778837/customize/color/134"><img class="alignnone" title="sadboy!" src="http://image.spreadshirt.com/image-server/image/composition/17335637/view/1/producttypecolor/134/type/png/width/280/height/280/sadboyfeld_design.png" alt="" width="280" height="280" /></a></p>\u000a<p>Or this:</p>\u000a<p><a href="http://yourfriendmax.spreadshirt.com/the-radio-heads-A6778976/customize/color/5"><img class="alignnone" src="http://image.spreadshirt.com/image-server/image/composition/17335976/view/1/producttypecolor/5/type/png/width/280/height/280/the-radio-heads_design.png" alt="" width="280" height="280" /></a></p>\u000a<p>Or even this:</p>\u000a<p><img class="alignnone" title="aaaa" src="http://image.spreadshirt.com/image-server/image/composition/17336184/view/1/producttypecolor/120/type/png/width/280/height/280/aaaa_design.png" alt="" width="280" height="280" /></p>\u000a<p><a href="http://yourfriendmax.spreadshirt.com">Wow!!!</a></p>
p231
stRp232
asg105
I00
sS'title_detail'
p233
g1
(g2
g3
(dp234
g39
S'http://www.mocktopus.com/feed/'
p235
sg24
S'text/plain'
p236
sg42
Nsg43
g223
stRp237
sg111
(lp238
g113
aV*
ag114
ag115
astRp239
ag1
(g2
g3
(dp240
g57
VTue, 23 Nov 2010 05:00:00 +0000
p241
sg67
g58
((I2010
I11
I23
I5
I0
I0
I1
I327
I0
t(dtRp242
sg11
(lp243
g1
(g2
g3
(dp244
g22
Vhttp://www.mocktopus.com/2010/11/update-how-many-fingers-are-you-holding-up/
p245
sg24
g25
sg26
g27
stRp246
asg73
(lp247
g1
(g2
g3
(dp248
g76
VComics
p249
sg78
Nsg79
NstRp250
asS'summary_detail'
p251
g1
(g2
g3
(dp252
g39
S'http://www.mocktopus.com/feed/'
p253
sg24
S'text/html'
p254
sg42
Nsg43
V<p><a href="http://www.mocktopus.com/2010/11/update-how-many-fingers-are-you-holding-up/"><img src="http://www.mocktopus.com/comics-rss/2010-11-23-UPDATE-how-many-fingers-are-you-holding-up.jpg" border="0" alt="UPDATE: How Many Fingers Are You Holding Up" title="UPDATE: How Many Fingers Are You Holding Up" /></a></p>
p255
stRp256
sg51
g245
sS'wfw_commentrss'
p257
Vhttp://www.mocktopus.com/2010/11/update-how-many-fingers-are-you-holding-up/feed/
p258
sg89
Vhttp://www.mocktopus.com/?p=109195995
p259
sS'slash_comments'
p260
V3
sg31
VUPDATE: How Many Fingers Are You Holding Up
p261
sg93
VMax
p262
sS'comments'
p263
Vhttp://www.mocktopus.com/2010/11/update-how-many-fingers-are-you-holding-up/#comments
p264
sg97
g255
sg98
(lp265
g1
(g2
g3
(dp266
g39
S'http://www.mocktopus.com/feed/'
p267
sg24
S'text/html'
p268
sg42
Nsg43
V<p><a href="http://www.mocktopus.com/2010/11/update-how-many-fingers-are-you-holding-up/"><img src="http://www.mocktopus.com/comics-rss/2010-11-23-UPDATE-how-many-fingers-are-you-holding-up.jpg" border="0" alt="UPDATE: How Many Fingers Are You Holding Up" title="UPDATE: How Many Fingers Are You Holding Up" /></a></p>
p269
stRp270
asg105
I00
sS'title_detail'
p271
g1
(g2
g3
(dp272
g39
S'http://www.mocktopus.com/feed/'
p273
sg24
S'text/plain'
p274
sg42
Nsg43
g261
stRp275
sg111
(lp276
g113
aV*
ag114
ag115
astRp277
ag1
(g2
g3
(dp278
g57
VThu, 18 Nov 2010 05:00:00 +0000
p279
sg67
g58
((I2010
I11
I18
I5
I0
I0
I3
I322
I0
t(dtRp280
sg11
(lp281
g1
(g2
g3
(dp282
g22
Vhttp://www.mocktopus.com/2010/11/i-hope-theres-an-afterlife-so-i-can-punch-you/
p283
sg24
g25
sg26
g27
stRp284
asg73
(lp285
g1
(g2
g3
(dp286
g76
VComics
p287
sg78
Nsg79
NstRp288
ag1
(g2
g3
(dp289
g76
Vautobio
p290
sg78
Nsg79
NstRp291
asS'summary_detail'
p292
g1
(g2
g3
(dp293
g39
S'http://www.mocktopus.com/feed/'
p294
sg24
S'text/html'
p295
sg42
Nsg43
V<p><a href="http://www.mocktopus.com/2010/11/i-hope-theres-an-afterlife-so-i-can-punch-you/"><img src="http://www.mocktopus.com/feed/" border="0" alt="I Hope There&#8217;s An Afterlife So I Can Punch You" title="I Hope There&#8217;s An Afterlife So I Can Punch You" /></a></p>Look who it is!
p296
stRp297
sg51
g283
sS'wfw_commentrss'
p298
Vhttp://www.mocktopus.com/2010/11/i-hope-theres-an-afterlife-so-i-can-punch-you/feed/
p299
sg89
Vhttp://www.mocktopus.com/?p=109195992
p300
sS'slash_comments'
p301
V4
sg31
VI Hope There\u2019s An Afterlife So I Can Punch You
p302
sg93
VMax
p303
sS'comments'
p304
Vhttp://www.mocktopus.com/2010/11/i-hope-theres-an-afterlife-so-i-can-punch-you/#comments
p305
sg97
g296
sg98
(lp306
g1
(g2
g3
(dp307
g39
S'http://www.mocktopus.com/feed/'
p308
sg24
S'text/html'
p309
sg42
Nsg43
V<p><a href="http://www.mocktopus.com/2010/11/i-hope-theres-an-afterlife-so-i-can-punch-you/"><img src="http://www.mocktopus.com/feed/" border="0" alt="I Hope There&#8217;s An Afterlife So I Can Punch You" title="I Hope There&#8217;s An Afterlife So I Can Punch You" /></a></p><p><a href="http://www.mocktopus.com/2009/09/you-should-see-what-he-can-do-with-a-zoo/">Look who it is</a>!</p>
p310
stRp311
asg105
I00
sS'title_detail'
p312
g1
(g2
g3
(dp313
g39
S'http://www.mocktopus.com/feed/'
p314
sg24
S'text/plain'
p315
sg42
Nsg43
g302
stRp316
sg111
(lp317
g113
aV*
ag114
ag115
astRp318
ag1
(g2
g3
(dp319
g57
VTue, 16 Nov 2010 05:00:00 +0000
p320
sg67
g58
((I2010
I11
I16
I5
I0
I0
I1
I320
I0
t(dtRp321
sg11
(lp322
g1
(g2
g3
(dp323
g22
Vhttp://www.mocktopus.com/2010/11/lets-take-a-strip-to-the-sdritch/
p324
sg24
g25
sg26
g27
stRp325
asg73
(lp326
g1
(g2
g3
(dp327
g76
VComics
p328
sg78
Nsg79
NstRp329
asS'summary_detail'
p330
g1
(g2
g3
(dp331
g39
S'http://www.mocktopus.com/feed/'
p332
sg24
S'text/html'
p333
sg42
Nsg43
V<p><a href="http://www.mocktopus.com/2010/11/lets-take-a-strip-to-the-sdritch/"><img src="http://www.mocktopus.com/feed/" border="0" alt="Let&#8217;s Take A Strip To The Sditch" title="Let&#8217;s Take A Strip To The Sditch" /></a></p>
p334
stRp335
sg51
g324
sS'wfw_commentrss'
p336
Vhttp://www.mocktopus.com/2010/11/lets-take-a-strip-to-the-sdritch/feed/
p337
sg89
Vhttp://www.mocktopus.com/?p=109195989
p338
sS'slash_comments'
p339
V3
sg31
VLet\u2019s Take A Strip To The Sditch
p340
sg93
VMax
p341
sS'comments'
p342
Vhttp://www.mocktopus.com/2010/11/lets-take-a-strip-to-the-sdritch/#comments
p343
sg97
g334
sg98
(lp344
g1
(g2
g3
(dp345
g39
S'http://www.mocktopus.com/feed/'
p346
sg24
S'text/html'
p347
sg42
Nsg43
V<p><a href="http://www.mocktopus.com/2010/11/lets-take-a-strip-to-the-sdritch/"><img src="http://www.mocktopus.com/feed/" border="0" alt="Let&#8217;s Take A Strip To The Sditch" title="Let&#8217;s Take A Strip To The Sditch" /></a></p>
p348
stRp349
asg105
I00
sS'title_detail'
p350
g1
(g2
g3
(dp351
g39
S'http://www.mocktopus.com/feed/'
p352
sg24
S'text/plain'
p353
sg42
Nsg43
g340
stRp354
sg111
(lp355
g113
aV*
ag114
ag115
astRp356
ag1
(g2
g3
(dp357
g57
VThu, 11 Nov 2010 05:00:00 +0000
p358
sg67
g58
((I2010
I11
I11
I5
I0
I0
I3
I315
I0
t(dtRp359
sg11
(lp360
g1
(g2
g3
(dp361
g22
Vhttp://www.mocktopus.com/2010/11/the-terror/
p362
sg24
g25
sg26
g27
stRp363
asg73
(lp364
g1
(g2
g3
(dp365
g76
VComics
p366
sg78
Nsg79
NstRp367
ag1
(g2
g3
(dp368
g76
Vsadboy
p369
sg78
Nsg79
NstRp370
asS'summary_detail'
p371
g1
(g2
g3
(dp372
g39
S'http://www.mocktopus.com/feed/'
p373
sg24
S'text/html'
p374
sg42
Nsg43
V<p><a href="http://www.mocktopus.com/2010/11/the-terror/"><img src="http://www.mocktopus.com/comics-rss/2010-11-11-the-terror.jpg" border="0" alt="The Terror" title="The Terror" /></a></p>
p375
stRp376
sg51
g362
sS'wfw_commentrss'
p377
Vhttp://www.mocktopus.com/2010/11/the-terror/feed/
p378
sg89
Vhttp://www.mocktopus.com/?p=109195987
p379
sS'slash_comments'
p380
V4
sg31
VThe Terror
p381
sg93
VMax
p382
sS'comments'
p383
Vhttp://www.mocktopus.com/2010/11/the-terror/#comments
p384
sg97
g375
sg98
(lp385
g1
(g2
g3
(dp386
g39
S'http://www.mocktopus.com/feed/'
p387
sg24
S'text/html'
p388
sg42
Nsg43
V<p><a href="http://www.mocktopus.com/2010/11/the-terror/"><img src="http://www.mocktopus.com/comics-rss/2010-11-11-the-terror.jpg" border="0" alt="The Terror" title="The Terror" /></a></p>
p389
stRp390
asg105
I00
sS'title_detail'
p391
g1
(g2
g3
(dp392
g39
S'http://www.mocktopus.com/feed/'
p393
sg24
S'text/plain'
p394
sg42
Nsg43
g381
stRp395
sg111
(lp396
g113
aV*
ag114
ag115
astRp397
ag1
(g2
g3
(dp398
g57
VThu, 04 Nov 2010 04:00:00 +0000
p399
sg67
g58
((I2010
I11
I4
I4
I0
I0
I3
I308
I0
t(dtRp400
sg11
(lp401
g1
(g2
g3
(dp402
g22
Vhttp://www.mocktopus.com/2010/11/you-know-same-old/
p403
sg24
g25
sg26
g27
stRp404
asg73
(lp405
g1
(g2
g3
(dp406
g76
VComics
p407
sg78
Nsg79
NstRp408
ag1
(g2
g3
(dp409
g76
Vskeleton dad
p410
sg78
Nsg79
NstRp411
asS'summary_detail'
p412
g1
(g2
g3
(dp413
g39
S'http://www.mocktopus.com/feed/'
p414
sg24
S'text/html'
p415
sg42
Nsg43
V<p><a href="http://www.mocktopus.com/2010/11/you-know-same-old/"><img src="http://www.mocktopus.com/comics-rss/2010-11-04-you-know,-same-old.jpg" border="0" alt="You Know, Same Old" title="You Know, Same Old" /></a></p>
p416
stRp417
sg51
g403
sS'wfw_commentrss'
p418
Vhttp://www.mocktopus.com/2010/11/you-know-same-old/feed/
p419
sg89
Vhttp://www.mocktopus.com/?p=109195982
p420
sS'slash_comments'
p421
V3
sg31
VYou Know, Same Old
p422
sg93
VMax
p423
sS'comments'
p424
Vhttp://www.mocktopus.com/2010/11/you-know-same-old/#comments
p425
sg97
g416
sg98
(lp426
g1
(g2
g3
(dp427
g39
S'http://www.mocktopus.com/feed/'
p428
sg24
S'text/html'
p429
sg42
Nsg43
V<p><a href="http://www.mocktopus.com/2010/11/you-know-same-old/"><img src="http://www.mocktopus.com/comics-rss/2010-11-04-you-know,-same-old.jpg" border="0" alt="You Know, Same Old" title="You Know, Same Old" /></a></p>
p430
stRp431
asg105
I00
sS'title_detail'
p432
g1
(g2
g3
(dp433
g39
S'http://www.mocktopus.com/feed/'
p434
sg24
S'text/plain'
p435
sg42
Nsg43
g422
stRp436
sg111
(lp437
g113
aV*
ag114
ag115
astRp438
ag1
(g2
g3
(dp439
g57
VTue, 02 Nov 2010 04:00:00 +0000
p440
sg67
g58
((I2010
I11
I2
I4
I0
I0
I1
I306
I0
t(dtRp441
sg11
(lp442
g1
(g2
g3
(dp443
g22
Vhttp://www.mocktopus.com/2010/11/seriously-are-you-the-devil/
p444
sg24
g25
sg26
g27
stRp445
asg73
(lp446
g1
(g2
g3
(dp447
g76
VComics
p448
sg78
Nsg79
NstRp449
ag1
(g2
g3
(dp450
g76
Vautobio
p451
sg78
Nsg79
NstRp452
asS'summary_detail'
p453
g1
(g2
g3
(dp454
g39
S'http://www.mocktopus.com/feed/'
p455
sg24
S'text/html'
p456
sg42
Nsg43
V<p><a href="http://www.mocktopus.com/2010/11/seriously-are-you-the-devil/"><img src="http://www.mocktopus.com/comics-rss/2010-11-02-seriously-are-you-the-devil.jpg" border="0" alt="Seriously Are You The Devil" title="Seriously Are You The Devil" /></a></p>
p457
stRp458
sg51
g444
sS'wfw_commentrss'
p459
Vhttp://www.mocktopus.com/2010/11/seriously-are-you-the-devil/feed/
p460
sg89
Vhttp://www.mocktopus.com/?p=109195980
p461
sS'slash_comments'
p462
V2
sg31
VSeriously Are You The Devil
p463
sg93
VMax
p464
sS'comments'
p465
Vhttp://www.mocktopus.com/2010/11/seriously-are-you-the-devil/#comments
p466
sg97
g457
sg98
(lp467
g1
(g2
g3
(dp468
g39
S'http://www.mocktopus.com/feed/'
p469
sg24
S'text/html'
p470
sg42
Nsg43
V<p><a href="http://www.mocktopus.com/2010/11/seriously-are-you-the-devil/"><img src="http://www.mocktopus.com/comics-rss/2010-11-02-seriously-are-you-the-devil.jpg" border="0" alt="Seriously Are You The Devil" title="Seriously Are You The Devil" /></a></p>
p471
stRp472
asg105
I00
sS'title_detail'
p473
g1
(g2
g3
(dp474
g39
S'http://www.mocktopus.com/feed/'
p475
sg24
S'text/plain'
p476
sg42
Nsg43
g463
stRp477
sg111
(lp478
g113
aV*
ag114
ag115
astRp479
asS'canto_update'
p480
F1297684099.8676951
sS'headers'
p481
(dp482
S'transfer-encoding'
p483
S'chunked'
p484
sS'vary'
p485
S'Accept-Encoding'
p486
sS'server'
p487
S'Apache'
p488
sS'last-modified'
p489
S'Tue, 04 Jan 2011 05:00:00 GMT'
p490
sS'connection'
p491
S'close'
p492
sS'etag'
p493
S'"a085fc52093e112a7a871e6c8ba21057"'
p494
sS'date'
p495
S'Mon, 14 Feb 2011 11:48:26 GMT'
p496
sS'content-type'
p497
S'text/xml; charset=UTF-8'
p498
sS'x-pingback'
p499
S'http://www.mocktopus.com/xmlrpc.php'
p500
ssg22
S'http://www.mocktopus.com/feed/'
p501
sS'version'
p502
S'atom10'
p503
sg111
(lp504
sS'etag'
p505
g494
sS'namespaces'
p506
(dp507
S''
Vhttp://www.w3.org/2005/Atom
p508
sS'sy'
p509
Vhttp://purl.org/rss/1.0/modules/syndication/
p510
sS'dc'
p511
Vhttp://purl.org/dc/elements/1.1/
p512
sg98
Vhttp://purl.org/rss/1.0/modules/content/
p513
sS'slash'
p514
Vhttp://purl.org/rss/1.0/modules/slash/
p515
sS'wfw'
p516
Vhttp://wellformedweb.org/CommentAPI/
p517
ssS'canto_version'
p518
(I0
I7
I9
tp519
stRp520
.