ccopy_reg
_reconstructor
p1
(cfeedparser
FeedParserDict
p2
c__builtin__
dict
p3
(dp4
S'feed'
p5
g1
(g2
g3
(dp6
S'lastbuilddate'
p7
VMon, 14 Feb 2011 06:44:22 -0500
p8
sS'subtitle'
p9
VRyan Sohmer and Lar deSouza's "Looking For Group"
p10
sS'links'
p11
(lp12
g1
(g2
g3
(dp13
S'href'
p14
Vhttp://www.lfgcomic.com/
p15
sS'type'
p16
S'text/html'
p17
sS'rel'
p18
S'alternate'
p19
stRp20
ag1
(g2
g3
(dp21
S'href'
p22
Vhttp://feeds.feedburner.com/LookingForGroup
p23
sS'type'
p24
Vapplication/rss+xml
p25
sS'rel'
p26
Vself
p27
stRp28
ag1
(g2
g3
(dp29
S'href'
p30
Vhttp://pubsubhubbub.appspot.com/
p31
sg16
g17
sS'rel'
p32
Vhub
p33
stRp34
asS'language'
p35
Ven-us
p36
sS'title'
p37
VLooking For Group
p38
sS'docs'
p39
Vhttp://blogs.law.harvard.edu/tech/rss
p40
sS'generator'
p41
VLooking For Group Feed
p42
sS'generator_detail'
p43
g1
(g2
g3
(dp44
S'name'
p45
g42
stRp46
sS'feedburner_info'
p47
V
sS'subtitle_detail'
p48
g1
(g2
g3
(dp49
S'base'
p50
S'http://feeds.feedburner.com/LookingForGroup'
p51
sg16
S'text/html'
p52
sg35
NsS'value'
p53
g10
stRp54
sS'title_detail'
p55
g1
(g2
g3
(dp56
g50
S'http://feeds.feedburner.com/LookingForGroup'
p57
sg16
S'text/plain'
p58
sg35
Nsg53
g38
stRp59
sS'link'
p60
g15
sS'ttl'
p61
V1440
p62
sS'tags'
p63
(lp64
g1
(g2
g3
(dp65
S'term'
p66
VGlobal
p67
sS'scheme'
p68
NsS'label'
p69
NstRp70
astRp71
sS'status'
p72
I200
sS'updated'
p73
ctime
struct_time
p74
((I2011
I2
I14
I11
I44
I41
I0
I45
I0
t(dtRp75
sS'encoding'
p76
S'ISO-8859-1'
p77
sS'bozo'
p78
I0
sS'entries'
p79
(lp80
g1
(g2
g3
(dp81
g73
VMon, 14 Feb 2011 00:00:00 -0500
p82
sS'updated_parsed'
p83
g74
((I2011
I2
I14
I5
I0
I0
I0
I45
I0
t(dtRp84
sg11
(lp85
g1
(g2
g3
(dp86
g14
Vhttp://feedproxy.google.com/~r/LookingForGroup/~3/xqraXYrjOQg/435
p87
sg16
g17
sg18
g19
stRp88
asg63
(lp89
g1
(g2
g3
(dp90
g66
VComic
p91
sg68
Nsg69
NstRp92
asS'feedburner_origlink'
p93
Vhttp://www.lfgcomic.com/page/435
p94
sg37
VLooking For Group: Page 435
p95
sS'summary_detail'
p96
g1
(g2
g3
(dp97
g50
S'http://feeds.feedburner.com/LookingForGroup'
p98
sg16
S'text/html'
p99
sg35
Nsg53
V<img src="http://www.lfgcomic.com/comics/lfg0435.gif" /><br /><br /><a title="wordpress blog stats" href="http://www.statcounter.com/wordpress.org/" target="_blank"><img src="http://c.statcounter.com/4887650/0/e9b88048/1/" alt="wordpress blog stats" border="0" /></a><div class="feedflare">\u000a<a href="http://feeds.feedburner.com/~ff/LookingForGroup?a=xqraXYrjOQg:w0aFraCFLf8:yIl2AUoC8zA"><img src="http://feeds.feedburner.com/~ff/LookingForGroup?d=yIl2AUoC8zA" border="0" /></a> <a href="http://feeds.feedburner.com/~ff/LookingForGroup?a=xqraXYrjOQg:w0aFraCFLf8:7Q72WNTAKBA"><img src="http://feeds.feedburner.com/~ff/LookingForGroup?d=7Q72WNTAKBA" border="0" /></a> <a href="http://feeds.feedburner.com/~ff/LookingForGroup?a=xqraXYrjOQg:w0aFraCFLf8:gIN9vFwOqvQ"><img src="http://feeds.feedburner.com/~ff/LookingForGroup?i=xqraXYrjOQg:w0aFraCFLf8:gIN9vFwOqvQ" border="0" /></a>\u000a</div><img src="http://feeds.feedburner.com/~r/LookingForGroup/~4/xqraXYrjOQg" height="1" width="1" />
p100
stRp101
sS'summary'
p102
g100
sS'guidislink'
p103
I00
sS'title_detail'
p104
g1
(g2
g3
(dp105
g50
S'http://feeds.feedburner.com/LookingForGroup'
p106
sg16
S'text/plain'
p107
sg35
Nsg53
g95
stRp108
sg60
g87
sS'author'
p109
Vsohmer@lfgcomic.com (Ryan Sohmer)
p110
sS'canto_state'
p111
(lp112
VLooking For Group
p113
aV*
aS'read'
p114
asS'author_detail'
p115
g1
(g2
g3
(dp116
g45
VRyan Sohmer
p117
sS'email'
p118
Vsohmer@lfgcomic.com
p119
stRp120
sS'id'
p121
Vhttp://www.lfgcomic.com/page/435
p122
stRp123
ag1
(g2
g3
(dp124
g73
VFri, 11 Feb 2011 00:47:22 -0500
p125
sg83
g74
((I2011
I2
I11
I5
I47
I22
I4
I42
I0
t(dtRp126
sg11
(lp127
g1
(g2
g3
(dp128
g14
Vhttp://feedproxy.google.com/~r/LookingForGroup/~3/PWntaEhbP4k/index.php
p129
sg16
g17
sg18
g19
stRp130
asg63
(lp131
g1
(g2
g3
(dp132
g66
VNews
p133
sg68
Nsg69
NstRp134
asS'feedburner_origlink'
p135
Vhttp://www.lfgcomic.com/forum/index.php?showtopic=7489
p136
sg37
VNews: Valentine's Art SpectacuLAR!
p137
sS'summary_detail'
p138
g1
(g2
g3
(dp139
g50
S'http://feeds.feedburner.com/LookingForGroup'
p140
sg16
S'text/html'
p141
sg35
Nsg53
VHey all&#33;<br /><br /><a href="http://www.ustream.tv/" target="_blank">Live Streaming by Ustream.TV</a><br /><br />You may all think this is just another Friday which means just another Ustream BUT YOU'D BE MISTAKEN&#33; This is a special Valentine's Art SpectacuLAR&#33;&#33; Not only will I be drawing and doing my best to answer art questions that have been sent my way (there's still time&#33; drop me a line) but with the help of the mods, we've got some extra special fun planned. As usual you can expect an assortment of zany music and of course, the Rapid Fire Sketch Game, where I draw your suggestions from the chat room. But instead of twitter trivia, we've got a new game for folks to participate in to win print prize packs and a grand winner will win a CUSTOM caricature/character print at the end of the night&#33;<br /><br />And in the theme of Valentine's Day next week, the cats are letting me borrow the Kitty Cam so it can be an ORIGAMI CAM&#33; I'm gonna teach those interested to fold a few special models of not and naughty origami&#33; I would post the patterns ahead of time but I am not the copyright holder. However I am happy to tell you which models we're doing&#33;<br /><br />We will be folding a Winged Heart, which requires a single square of paper. Double sided is preferable so the wings can be a different colour, but is not necessary. I recommend a square 6&quot;-8&quot;.<br /><br />The second model will be the Schwanstucker (Origami Penis) from Nick Robinson's Very Naughty Origami. For this model you will need a long rectangle. Take a regular letter sized piece of copy paper (either US letter or A4) and cut in half lengthwise.<br /><br />The third model I'd like to show you is also from Nick Robinson's book Very Naughty Origami. Boobs&#33; For this model, cut down the other half of that copy paper to make a 2x1 proportioned rectangle and you're all set to fold along.<br /><br />As usual, all Ustreams are recorded automatically so if you have trouble keeping up or wish to check out the folding fun later on, you can check out the videos of tonight's 'stream at your future leisure.<br /><br />The fun starts at 8pm ET (that's  5pm PT = 12pm (next day) Canberra AUS = 1am London UK = 2am Norway) so be sure to sign into Ustream and grab a nickname to enter the chatroom and participate&#33; <a href="http://tinyurl.com/9eukhm" target="_blank">http://tinyurl.com/9eukhm</a><br /><br />See you in the funnies&#33;<div class="feedflare">\u000a<a href="http://feeds.feedburner.com/~ff/LookingForGroup?a=PWntaEhbP4k:H4c0ezPTiLQ:yIl2AUoC8zA"><img src="http://feeds.feedburner.com/~ff/LookingForGroup?d=yIl2AUoC8zA" border="0" /></a> <a href="http://feeds.feedburner.com/~ff/LookingForGroup?a=PWntaEhbP4k:H4c0ezPTiLQ:7Q72WNTAKBA"><img src="http://feeds.feedburner.com/~ff/LookingForGroup?d=7Q72WNTAKBA" border="0" /></a> <a href="http://feeds.feedburner.com/~ff/LookingForGroup?a=PWntaEhbP4k:H4c0ezPTiLQ:gIN9vFwOqvQ"><img src="http://feeds.feedburner.com/~ff/LookingForGroup?i=PWntaEhbP4k:H4c0ezPTiLQ:gIN9vFwOqvQ" border="0" /></a>\u000a</div><img src="http://feeds.feedburner.com/~r/LookingForGroup/~4/PWntaEhbP4k" height="1" width="1" />
p142
stRp143
sg102
g142
sg103
I00
sS'title_detail'
p144
g1
(g2
g3
(dp145
g50
S'http://feeds.feedburner.com/LookingForGroup'
p146
sg16
S'text/plain'
p147
sg35
Nsg53
g137
stRp148
sg60
g129
sg109
Vsohmer@lfgcomic.com (Ryan Sohmer)
p149
sg111
(lp150
VLooking For Group
p151
aV*
aS'read'
p152
asS'author_detail'
p153
g1
(g2
g3
(dp154
g45
VRyan Sohmer
p155
sg118
Vsohmer@lfgcomic.com
p156
stRp157
sg121
Vhttp://www.lfgcomic.com/forum/index.php?showtopic=7489
p158
stRp159
ag1
(g2
g3
(dp160
g73
VThu, 10 Feb 2011 00:00:00 -0500
p161
sg83
g74
((I2011
I2
I10
I5
I0
I0
I3
I41
I0
t(dtRp162
sg11
(lp163
g1
(g2
g3
(dp164
g14
Vhttp://feedproxy.google.com/~r/LookingForGroup/~3/3CG6UJ3Sbxc/434
p165
sg16
g17
sg18
g19
stRp166
asg63
(lp167
g1
(g2
g3
(dp168
g66
VComic
p169
sg68
Nsg69
NstRp170
asS'feedburner_origlink'
p171
Vhttp://www.lfgcomic.com/page/434
p172
sg37
VLooking For Group: Page 434
p173
sS'summary_detail'
p174
g1
(g2
g3
(dp175
g50
S'http://feeds.feedburner.com/LookingForGroup'
p176
sg16
S'text/html'
p177
sg35
Nsg53
V<img src="http://www.lfgcomic.com/comics/lfg0434.gif" /><div class="feedflare">\u000a<a href="http://feeds.feedburner.com/~ff/LookingForGroup?a=3CG6UJ3Sbxc:zHDNdlAQbd8:yIl2AUoC8zA"><img src="http://feeds.feedburner.com/~ff/LookingForGroup?d=yIl2AUoC8zA" border="0" /></a> <a href="http://feeds.feedburner.com/~ff/LookingForGroup?a=3CG6UJ3Sbxc:zHDNdlAQbd8:7Q72WNTAKBA"><img src="http://feeds.feedburner.com/~ff/LookingForGroup?d=7Q72WNTAKBA" border="0" /></a> <a href="http://feeds.feedburner.com/~ff/LookingForGroup?a=3CG6UJ3Sbxc:zHDNdlAQbd8:gIN9vFwOqvQ"><img src="http://feeds.feedburner.com/~ff/LookingForGroup?i=3CG6UJ3Sbxc:zHDNdlAQbd8:gIN9vFwOqvQ" border="0" /></a>\u000a</div><img src="http://feeds.feedburner.com/~r/LookingForGroup/~4/3CG6UJ3Sbxc" height="1" width="1" />
p178
stRp179
sg102
g178
sg103
I00
sS'title_detail'
p180
g1
(g2
g3
(dp181
g50
S'http://feeds.feedburner.com/LookingForGroup'
p182
sg16
S'text/plain'
p183
sg35
Nsg53
g173
stRp184
sg60
g165
sg109
Vsohmer@lfgcomic.com (Ryan Sohmer)
p185
sg111
(lp186
VLooking For Group
p187
aV*
aS'read'
p188
asS'author_detail'
p189
g1
(g2
g3
(dp190
g45
VRyan Sohmer
p191
sg118
Vsohmer@lfgcomic.com
p192
stRp193
sg121
Vhttp://www.lfgcomic.com/page/434
p194
stRp195
ag1
(g2
g3
(dp196
g73
VMon, 07 Feb 2011 00:00:00 -0500
p197
sg83
g74
((I2011
I2
I7
I5
I0
I0
I0
I38
I0
t(dtRp198
sg11
(lp199
g1
(g2
g3
(dp200
g14
Vhttp://feedproxy.google.com/~r/LookingForGroup/~3/Ka9Ek1DHKIk/433
p201
sg16
g17
sg18
g19
stRp202
asg63
(lp203
g1
(g2
g3
(dp204
g66
VComic
p205
sg68
Nsg69
NstRp206
asS'feedburner_origlink'
p207
Vhttp://www.lfgcomic.com/page/433
p208
sg37
VLooking For Group: Page 433
p209
sS'summary_detail'
p210
g1
(g2
g3
(dp211
g50
S'http://feeds.feedburner.com/LookingForGroup'
p212
sg16
S'text/html'
p213
sg35
Nsg53
V<img src="http://www.lfgcomic.com/comics/lfg0433.gif" /><div class="feedflare">\u000a<a href="http://feeds.feedburner.com/~ff/LookingForGroup?a=Ka9Ek1DHKIk:MmRJvpBVj6g:yIl2AUoC8zA"><img src="http://feeds.feedburner.com/~ff/LookingForGroup?d=yIl2AUoC8zA" border="0" /></a> <a href="http://feeds.feedburner.com/~ff/LookingForGroup?a=Ka9Ek1DHKIk:MmRJvpBVj6g:7Q72WNTAKBA"><img src="http://feeds.feedburner.com/~ff/LookingForGroup?d=7Q72WNTAKBA" border="0" /></a> <a href="http://feeds.feedburner.com/~ff/LookingForGroup?a=Ka9Ek1DHKIk:MmRJvpBVj6g:gIN9vFwOqvQ"><img src="http://feeds.feedburner.com/~ff/LookingForGroup?i=Ka9Ek1DHKIk:MmRJvpBVj6g:gIN9vFwOqvQ" border="0" /></a>\u000a</div><img src="http://feeds.feedburner.com/~r/LookingForGroup/~4/Ka9Ek1DHKIk" height="1" width="1" />
p214
stRp215
sg102
g214
sg103
I00
sS'title_detail'
p216
g1
(g2
g3
(dp217
g50
S'http://feeds.feedburner.com/LookingForGroup'
p218
sg16
S'text/plain'
p219
sg35
Nsg53
g209
stRp220
sg60
g201
sg109
Vsohmer@lfgcomic.com (Ryan Sohmer)
p221
sg111
(lp222
VLooking For Group
p223
aV*
aS'read'
p224
asS'author_detail'
p225
g1
(g2
g3
(dp226
g45
VRyan Sohmer
p227
sg118
Vsohmer@lfgcomic.com
p228
stRp229
sg121
Vhttp://www.lfgcomic.com/page/433
p230
stRp231
ag1
(g2
g3
(dp232
g73
VFri, 04 Feb 2011 19:58:51 -0500
p233
sg83
g74
((I2011
I2
I5
I0
I58
I51
I5
I36
I0
t(dtRp234
sg11
(lp235
g1
(g2
g3
(dp236
g14
Vhttp://feedproxy.google.com/~r/LookingForGroup/~3/aPyRe4Z_hiw/index.php
p237
sg16
g17
sg18
g19
stRp238
asg63
(lp239
g1
(g2
g3
(dp240
g66
VNews
p241
sg68
Nsg69
NstRp242
asS'feedburner_origlink'
p243
Vhttp://www.lfgcomic.com/forum/index.php?showtopic=7479
p244
sg37
VNews: Ustream night!
p245
sS'summary_detail'
p246
g1
(g2
g3
(dp247
g50
S'http://feeds.feedburner.com/LookingForGroup'
p248
sg16
S'text/html'
p249
sg35
Nsg53
VSuperbowl is only days away and guess what? I don't care. I'm just not into sports, except to draw them occasionally. So tonight I've got some monkeyshines to get out of my system. I've got some friendly faces to play with as well and if there's time at the end more Dr Who bunnies. Also, I've finished the Hexadecimal, so drop by to see her.<br /><br />Also I've got some details for next week's Valentine's Day Art SpectacuLAR&#33; <img src="http://feeds.feedburner.com/style_emoticons/<#EMO_DIR#>/smile.gif" /><#EMO_DIR#>/smile.gif">/smile.gif"><#EMO_DIR#>/smile.gif" style="vertical-align:middle" emoid=":)" border="0" alt="smile.gif" /><br /><br />As usual, Ustream starts at the top of the hour (8pm ET [-5 GMT] ) and runs till about midnight.<br /><a href="http://www.ustream.tv/" target="_blank">Live Streaming by Ustream.TV</a><br /><br /><a href="http://tinyurl.com/9eukhm" target="_blank">http://tinyurl.com/9eukhm</a><div class="feedflare">\u000a<a href="http://feeds.feedburner.com/~ff/LookingForGroup?a=aPyRe4Z_hiw:KuRHdp9TWdQ:yIl2AUoC8zA"><img src="http://feeds.feedburner.com/~ff/LookingForGroup?d=yIl2AUoC8zA" border="0" /></a> <a href="http://feeds.feedburner.com/~ff/LookingForGroup?a=aPyRe4Z_hiw:KuRHdp9TWdQ:7Q72WNTAKBA"><img src="http://feeds.feedburner.com/~ff/LookingForGroup?d=7Q72WNTAKBA" border="0" /></a> <a href="http://feeds.feedburner.com/~ff/LookingForGroup?a=aPyRe4Z_hiw:KuRHdp9TWdQ:gIN9vFwOqvQ"><img src="http://feeds.feedburner.com/~ff/LookingForGroup?i=aPyRe4Z_hiw:KuRHdp9TWdQ:gIN9vFwOqvQ" border="0" /></a>\u000a</div><img src="http://feeds.feedburner.com/~r/LookingForGroup/~4/aPyRe4Z_hiw" height="1" width="1" />
p250
stRp251
sg102
g250
sg103
I00
sS'title_detail'
p252
g1
(g2
g3
(dp253
g50
S'http://feeds.feedburner.com/LookingForGroup'
p254
sg16
S'text/plain'
p255
sg35
Nsg53
g245
stRp256
sg60
g237
sg109
Vsohmer@lfgcomic.com (Ryan Sohmer)
p257
sg111
(lp258
VLooking For Group
p259
aV*
aS'read'
p260
asS'author_detail'
p261
g1
(g2
g3
(dp262
g45
VRyan Sohmer
p263
sg118
Vsohmer@lfgcomic.com
p264
stRp265
sg121
Vhttp://www.lfgcomic.com/forum/index.php?showtopic=7479
p266
stRp267
ag1
(g2
g3
(dp268
g73
VFri, 04 Feb 2011 10:32:22 -0500
p269
sg83
g74
((I2011
I2
I4
I15
I32
I22
I4
I35
I0
t(dtRp270
sg11
(lp271
g1
(g2
g3
(dp272
g14
Vhttp://feedproxy.google.com/~r/LookingForGroup/~3/1thMl-zLqDE/index.php
p273
sg16
g17
sg18
g19
stRp274
asg63
(lp275
g1
(g2
g3
(dp276
g66
VNews
p277
sg68
Nsg69
NstRp278
asS'feedburner_origlink'
p279
Vhttp://www.lfgcomic.com/forum/index.php?showtopic=7477
p280
sg37
VNews: Eagle Awards
p281
sS'summary_detail'
p282
g1
(g2
g3
(dp283
g50
S'http://feeds.feedburner.com/LookingForGroup'
p284
sg16
S'text/html'
p285
sg35
Nsg53
VIf I may ask for a moment of your time?<br /><br />As you know, weve been working very hard on <a href="http://www.the-gutters.com/" target="_blank">The Gutters</a> since its inception last year and were constantly looking to spread the word. With that in mind, we come to the Eagle Awards, which are a comics industry award that is voted on by the public.<br /><br /><a href="http://www.eagleawards.co.uk/survey/index.php?sid=86574" target="_blank">The first stage is that of nomination.</a><br /><br />If you would be so kind to take a few moments to fill out the survey and nominate us where applicable, it would be greatly appreciated.<br /><br />To further entice you, should The Gutters be nominated, I will share you with you a secret about the origins of a certain warlock we all know.<br /><br /><a href="http://www.eagleawards.co.uk/survey/index.php?sid=86574" target="_blank">Once again, the nomination survey is here.</a><br /><br />- Because I Can.<div class="feedflare">\u000a<a href="http://feeds.feedburner.com/~ff/LookingForGroup?a=1thMl-zLqDE:4PI3ftflo1k:yIl2AUoC8zA"><img src="http://feeds.feedburner.com/~ff/LookingForGroup?d=yIl2AUoC8zA" border="0" /></a> <a href="http://feeds.feedburner.com/~ff/LookingForGroup?a=1thMl-zLqDE:4PI3ftflo1k:7Q72WNTAKBA"><img src="http://feeds.feedburner.com/~ff/LookingForGroup?d=7Q72WNTAKBA" border="0" /></a> <a href="http://feeds.feedburner.com/~ff/LookingForGroup?a=1thMl-zLqDE:4PI3ftflo1k:gIN9vFwOqvQ"><img src="http://feeds.feedburner.com/~ff/LookingForGroup?i=1thMl-zLqDE:4PI3ftflo1k:gIN9vFwOqvQ" border="0" /></a>\u000a</div><img src="http://feeds.feedburner.com/~r/LookingForGroup/~4/1thMl-zLqDE" height="1" width="1" />
p286
stRp287
sg102
g286
sg103
I00
sS'title_detail'
p288
g1
(g2
g3
(dp289
g50
S'http://feeds.feedburner.com/LookingForGroup'
p290
sg16
S'text/plain'
p291
sg35
Nsg53
g281
stRp292
sg60
g273
sg109
Vsohmer@lfgcomic.com (Ryan Sohmer)
p293
sg111
(lp294
VLooking For Group
p295
aV*
aS'read'
p296
asS'author_detail'
p297
g1
(g2
g3
(dp298
g45
VRyan Sohmer
p299
sg118
Vsohmer@lfgcomic.com
p300
stRp301
sg121
Vhttp://www.lfgcomic.com/forum/index.php?showtopic=7477
p302
stRp303
ag1
(g2
g3
(dp304
g73
VThu, 03 Feb 2011 00:00:00 -0500
p305
sg83
g74
((I2011
I2
I3
I5
I0
I0
I3
I34
I0
t(dtRp306
sg11
(lp307
g1
(g2
g3
(dp308
g14
Vhttp://feedproxy.google.com/~r/LookingForGroup/~3/wUmzJ1k8uKU/432
p309
sg16
g17
sg18
g19
stRp310
asg63
(lp311
g1
(g2
g3
(dp312
g66
VComic
p313
sg68
Nsg69
NstRp314
asS'feedburner_origlink'
p315
Vhttp://www.lfgcomic.com/page/432
p316
sg37
VLooking For Group: Page 432
p317
sS'summary_detail'
p318
g1
(g2
g3
(dp319
g50
S'http://feeds.feedburner.com/LookingForGroup'
p320
sg16
S'text/html'
p321
sg35
Nsg53
V<img src="http://www.lfgcomic.com/comics/lfg0432.gif" /><div class="feedflare">\u000a<a href="http://feeds.feedburner.com/~ff/LookingForGroup?a=wUmzJ1k8uKU:0R9nUbGqZTc:yIl2AUoC8zA"><img src="http://feeds.feedburner.com/~ff/LookingForGroup?d=yIl2AUoC8zA" border="0" /></a> <a href="http://feeds.feedburner.com/~ff/LookingForGroup?a=wUmzJ1k8uKU:0R9nUbGqZTc:7Q72WNTAKBA"><img src="http://feeds.feedburner.com/~ff/LookingForGroup?d=7Q72WNTAKBA" border="0" /></a> <a href="http://feeds.feedburner.com/~ff/LookingForGroup?a=wUmzJ1k8uKU:0R9nUbGqZTc:gIN9vFwOqvQ"><img src="http://feeds.feedburner.com/~ff/LookingForGroup?i=wUmzJ1k8uKU:0R9nUbGqZTc:gIN9vFwOqvQ" border="0" /></a>\u000a</div><img src="http://feeds.feedburner.com/~r/LookingForGroup/~4/wUmzJ1k8uKU" height="1" width="1" />
p322
stRp323
sg102
g322
sg103
I00
sS'title_detail'
p324
g1
(g2
g3
(dp325
g50
S'http://feeds.feedburner.com/LookingForGroup'
p326
sg16
S'text/plain'
p327
sg35
Nsg53
g317
stRp328
sg60
g309
sg109
Vsohmer@lfgcomic.com (Ryan Sohmer)
p329
sg111
(lp330
VLooking For Group
p331
aV*
aS'read'
p332
asS'author_detail'
p333
g1
(g2
g3
(dp334
g45
VRyan Sohmer
p335
sg118
Vsohmer@lfgcomic.com
p336
stRp337
sg121
Vhttp://www.lfgcomic.com/page/432
p338
stRp339
ag1
(g2
g3
(dp340
g73
VMon, 31 Jan 2011 00:00:00 -0500
p341
sg83
g74
((I2011
I1
I31
I5
I0
I0
I0
I31
I0
t(dtRp342
sg11
(lp343
g1
(g2
g3
(dp344
g14
Vhttp://feedproxy.google.com/~r/LookingForGroup/~3/WcIoa3lVTU8/431
p345
sg16
g17
sg18
g19
stRp346
asg63
(lp347
g1
(g2
g3
(dp348
g66
VComic
p349
sg68
Nsg69
NstRp350
asS'feedburner_origlink'
p351
Vhttp://www.lfgcomic.com/page/431
p352
sg37
VLooking For Group: Page 431
p353
sS'summary_detail'
p354
g1
(g2
g3
(dp355
g50
S'http://feeds.feedburner.com/LookingForGroup'
p356
sg16
S'text/html'
p357
sg35
Nsg53
V<img src="http://www.lfgcomic.com/comics/lfg0431.gif" /><div class="feedflare">\u000a<a href="http://feeds.feedburner.com/~ff/LookingForGroup?a=WcIoa3lVTU8:zwf29kBO_Ek:yIl2AUoC8zA"><img src="http://feeds.feedburner.com/~ff/LookingForGroup?d=yIl2AUoC8zA" border="0" /></a> <a href="http://feeds.feedburner.com/~ff/LookingForGroup?a=WcIoa3lVTU8:zwf29kBO_Ek:7Q72WNTAKBA"><img src="http://feeds.feedburner.com/~ff/LookingForGroup?d=7Q72WNTAKBA" border="0" /></a> <a href="http://feeds.feedburner.com/~ff/LookingForGroup?a=WcIoa3lVTU8:zwf29kBO_Ek:gIN9vFwOqvQ"><img src="http://feeds.feedburner.com/~ff/LookingForGroup?i=WcIoa3lVTU8:zwf29kBO_Ek:gIN9vFwOqvQ" border="0" /></a>\u000a</div><img src="http://feeds.feedburner.com/~r/LookingForGroup/~4/WcIoa3lVTU8" height="1" width="1" />
p358
stRp359
sg102
g358
sg103
I00
sS'title_detail'
p360
g1
(g2
g3
(dp361
g50
S'http://feeds.feedburner.com/LookingForGroup'
p362
sg16
S'text/plain'
p363
sg35
Nsg53
g353
stRp364
sg60
g345
sg109
Vsohmer@lfgcomic.com (Ryan Sohmer)
p365
sg111
(lp366
VLooking For Group
p367
aV*
aS'read'
p368
asS'author_detail'
p369
g1
(g2
g3
(dp370
g45
VRyan Sohmer
p371
sg118
Vsohmer@lfgcomic.com
p372
stRp373
sg121
Vhttp://www.lfgcomic.com/page/431
p374
stRp375
ag1
(g2
g3
(dp376
g73
VFri, 28 Jan 2011 19:58:53 -0500
p377
sg83
g74
((I2011
I1
I29
I0
I58
I53
I5
I29
I0
t(dtRp378
sg11
(lp379
g1
(g2
g3
(dp380
g14
Vhttp://feedproxy.google.com/~r/LookingForGroup/~3/2rJYewii6Dg/index.php
p381
sg16
g17
sg18
g19
stRp382
asg63
(lp383
g1
(g2
g3
(dp384
g66
VNews
p385
sg68
Nsg69
NstRp386
asS'feedburner_origlink'
p387
Vhttp://www.lfgcomic.com/forum/index.php?showtopic=7468
p388
sg37
VNews: Alphanumeric!
p389
sS'summary_detail'
p390
g1
(g2
g3
(dp391
g50
S'http://feeds.feedburner.com/LookingForGroup'
p392
sg16
S'text/html'
p393
sg35
Nsg53
VLet's Ustream&#33;<br /><br />More ReBoot fun tonight as I work on a Hexadecimal pinup and later some Dr Who bunnies. But like... rabbits. Not more sexy ladies. Although... hmm.... <br /><br />Ustream starts at the top of the hour (8pm ET [-5 GMT] ) and runs till about midnight.<br /><a href="http://www.ustream.tv/" target="_blank">Live Streaming by Ustream.TV</a><br /><br /><a href="http://tinyurl.com/9eukhm" target="_blank">http://tinyurl.com/9eukhm</a><br /><div class="feedflare">\u000a<a href="http://feeds.feedburner.com/~ff/LookingForGroup?a=2rJYewii6Dg:Re13Kgcsbgc:yIl2AUoC8zA"><img src="http://feeds.feedburner.com/~ff/LookingForGroup?d=yIl2AUoC8zA" border="0" /></a> <a href="http://feeds.feedburner.com/~ff/LookingForGroup?a=2rJYewii6Dg:Re13Kgcsbgc:7Q72WNTAKBA"><img src="http://feeds.feedburner.com/~ff/LookingForGroup?d=7Q72WNTAKBA" border="0" /></a> <a href="http://feeds.feedburner.com/~ff/LookingForGroup?a=2rJYewii6Dg:Re13Kgcsbgc:gIN9vFwOqvQ"><img src="http://feeds.feedburner.com/~ff/LookingForGroup?i=2rJYewii6Dg:Re13Kgcsbgc:gIN9vFwOqvQ" border="0" /></a>\u000a</div><img src="http://feeds.feedburner.com/~r/LookingForGroup/~4/2rJYewii6Dg" height="1" width="1" />
p394
stRp395
sg102
g394
sg103
I00
sS'title_detail'
p396
g1
(g2
g3
(dp397
g50
S'http://feeds.feedburner.com/LookingForGroup'
p398
sg16
S'text/plain'
p399
sg35
Nsg53
g389
stRp400
sg60
g381
sg109
Vsohmer@lfgcomic.com (Ryan Sohmer)
p401
sg111
(lp402
VLooking For Group
p403
aV*
aVnew
p404
aS'read'
p405
asS'author_detail'
p406
g1
(g2
g3
(dp407
g45
VRyan Sohmer
p408
sg118
Vsohmer@lfgcomic.com
p409
stRp410
sg121
Vhttp://www.lfgcomic.com/forum/index.php?showtopic=7468
p411
stRp412
ag1
(g2
g3
(dp413
g73
VFri, 21 Jan 2011 19:53:33 -0500
p414
sg83
g74
((I2011
I1
I22
I0
I53
I33
I5
I22
I0
t(dtRp415
sg11
(lp416
g1
(g2
g3
(dp417
g14
Vhttp://feedproxy.google.com/~r/LookingForGroup/~3/VzCkP7xU9R8/index.php
p418
sg16
g17
sg18
g19
stRp419
asg63
(lp420
g1
(g2
g3
(dp421
g66
VNews
p422
sg68
Nsg69
NstRp423
asS'feedburner_origlink'
p424
Vhttp://www.lfgcomic.com/forum/index.php?showtopic=7455
p425
sg37
VNews: Let's Ustream!
p426
sS'summary_detail'
p427
g1
(g2
g3
(dp428
g50
S'http://feeds.feedburner.com/LookingForGroup'
p429
sg16
S'text/html'
p430
sg35
Nsg53
VPin ups and past prize winners tonight&#33; <img src="http://feeds.feedburner.com/style_emoticons/<#EMO_DIR#>/smile.gif" /><#EMO_DIR#>/smile.gif">/smile.gif"><#EMO_DIR#>/smile.gif" style="vertical-align:middle" emoid=":)" border="0" alt="smile.gif" /> I hope you'll join us&#33;<br /><br />Ustream starts at the top of the hour (8pm ET [-5 GMT] ) and runs till about midnight.<br /><a href="http://www.ustream.tv/" target="_blank">Live Streaming by Ustream.TV</a><br /><br /><a href="http://tinyurl.com/9eukhm" target="_blank">http://tinyurl.com/9eukhm</a><div class="feedflare">\u000a<a href="http://feeds.feedburner.com/~ff/LookingForGroup?a=VzCkP7xU9R8:3-jsJf04MOQ:yIl2AUoC8zA"><img src="http://feeds.feedburner.com/~ff/LookingForGroup?d=yIl2AUoC8zA" border="0" /></a> <a href="http://feeds.feedburner.com/~ff/LookingForGroup?a=VzCkP7xU9R8:3-jsJf04MOQ:7Q72WNTAKBA"><img src="http://feeds.feedburner.com/~ff/LookingForGroup?d=7Q72WNTAKBA" border="0" /></a> <a href="http://feeds.feedburner.com/~ff/LookingForGroup?a=VzCkP7xU9R8:3-jsJf04MOQ:gIN9vFwOqvQ"><img src="http://feeds.feedburner.com/~ff/LookingForGroup?i=VzCkP7xU9R8:3-jsJf04MOQ:gIN9vFwOqvQ" border="0" /></a>\u000a</div><img src="http://feeds.feedburner.com/~r/LookingForGroup/~4/VzCkP7xU9R8" height="1" width="1" />
p431
stRp432
sg102
g431
sg103
I00
sS'title_detail'
p433
g1
(g2
g3
(dp434
g50
S'http://feeds.feedburner.com/LookingForGroup'
p435
sg16
S'text/plain'
p436
sg35
Nsg53
g426
stRp437
sg60
g418
sg109
Vsohmer@lfgcomic.com (Ryan Sohmer)
p438
sg111
(lp439
VLooking For Group
p440
aV*
aVnew
p441
aS'read'
p442
asS'author_detail'
p443
g1
(g2
g3
(dp444
g45
VRyan Sohmer
p445
sg118
Vsohmer@lfgcomic.com
p446
stRp447
sg121
Vhttp://www.lfgcomic.com/forum/index.php?showtopic=7455
p448
stRp449
ag1
(g2
g3
(dp450
S'updated'
p451
VThu, 27 Jan 2011 00:00:00 -0500
p452
sS'updated_parsed'
p453
g74
((I2011
I1
I27
I5
I0
I0
I3
I27
I0
t(dtRp454
sS'links'
p455
(lp456
g1
(g2
g3
(dp457
S'href'
p458
Vhttp://feedproxy.google.com/~r/LookingForGroup/~3/AqZ4FO3lSg4/430
p459
sS'type'
p460
S'text/html'
p461
sS'rel'
p462
S'alternate'
p463
stRp464
asS'title'
p465
VLooking For Group: Page 430
p466
sS'feedburner_origlink'
p467
Vhttp://www.lfgcomic.com/page/430
p468
sS'tags'
p469
(lp470
g1
(g2
g3
(dp471
S'term'
p472
VComic
p473
sS'scheme'
p474
NsS'label'
p475
NstRp476
asS'summary_detail'
p477
g1
(g2
g3
(dp478
S'base'
p479
S'http://feeds.feedburner.com/LookingForGroup'
p480
sg460
S'text/html'
p481
sS'value'
p482
V<img src="http://www.lfgcomic.com/comics/lfg0430.gif" /><div class="feedflare">\u000a<a href="http://feeds.feedburner.com/~ff/LookingForGroup?a=AqZ4FO3lSg4:uPiveEkyDuk:yIl2AUoC8zA"><img src="http://feeds.feedburner.com/~ff/LookingForGroup?d=yIl2AUoC8zA" border="0" /></a> <a href="http://feeds.feedburner.com/~ff/LookingForGroup?a=AqZ4FO3lSg4:uPiveEkyDuk:7Q72WNTAKBA"><img src="http://feeds.feedburner.com/~ff/LookingForGroup?d=7Q72WNTAKBA" border="0" /></a> <a href="http://feeds.feedburner.com/~ff/LookingForGroup?a=AqZ4FO3lSg4:uPiveEkyDuk:gIN9vFwOqvQ"><img src="http://feeds.feedburner.com/~ff/LookingForGroup?i=AqZ4FO3lSg4:uPiveEkyDuk:gIN9vFwOqvQ" border="0" /></a>\u000a</div><img src="http://feeds.feedburner.com/~r/LookingForGroup/~4/AqZ4FO3lSg4" height="1" width="1" />
p483
sS'language'
p484
NstRp485
sS'summary'
p486
g483
sS'guidislink'
p487
I00
sS'title_detail'
p488
g1
(g2
g3
(dp489
g479
S'http://feeds.feedburner.com/LookingForGroup'
p490
sg460
S'text/plain'
p491
sg482
g466
sg484
NstRp492
sS'link'
p493
g459
sS'author'
p494
Vsohmer@lfgcomic.com (Ryan Sohmer)
p495
sS'canto_state'
p496
(lp497
VLooking For Group
p498
aV*
aVnew
p499
aS'read'
p500
asS'author_detail'
p501
g1
(g2
g3
(dp502
S'name'
p503
VRyan Sohmer
p504
sS'email'
p505
Vsohmer@lfgcomic.com
p506
stRp507
sS'id'
p508
Vhttp://www.lfgcomic.com/page/430
p509
stRp510
ag1
(g2
g3
(dp511
S'updated'
p512
VSun, 16 Jan 2011 20:41:41 -0500
p513
sS'updated_parsed'
p514
g74
((I2011
I1
I17
I1
I41
I41
I0
I17
I0
t(dtRp515
sS'links'
p516
(lp517
g1
(g2
g3
(dp518
S'href'
p519
Vhttp://feedproxy.google.com/~r/LookingForGroup/~3/rhA_O2H-iVg/index.php
p520
sS'type'
p521
S'text/html'
p522
sS'rel'
p523
S'alternate'
p524
stRp525
asS'title'
p526
VNews: Free Shipping?
p527
sS'feedburner_origlink'
p528
Vhttp://www.lfgcomic.com/forum/index.php?showtopic=7444
p529
sS'tags'
p530
(lp531
g1
(g2
g3
(dp532
S'term'
p533
VNews
p534
sS'scheme'
p535
NsS'label'
p536
NstRp537
asS'summary_detail'
p538
g1
(g2
g3
(dp539
S'base'
p540
S'http://feeds.feedburner.com/LookingForGroup'
p541
sg521
S'text/html'
p542
sS'value'
p543
VIm told, by the people who inhabit our warehouse who may or may not be an offshoot of Oompa Loompas, that we are having a sale this week in the <a href="https://secure.blindferret.com/lfgstore/home.php" target="_blank">LFG Shop.</a><br /><br />The sale includes FREE SHIPPING to anywhere in the US and Canada, and deeply discounted rates to the rest of the planet.<br /><br />I should mention though, that this sale does not apply to the Fel Bunny plushies, as they are on pre-order.<br /><a href="https://secure.blindferret.com/lfgstore/home.php" target="_blank">So why not take a look in the shop</a>, and as always, we appreciate your support.<br /><br />- Because I Can.<div class="feedflare">\u000a<a href="http://feeds.feedburner.com/~ff/LookingForGroup?a=rhA_O2H-iVg:bKcI9HayMrc:yIl2AUoC8zA"><img src="http://feeds.feedburner.com/~ff/LookingForGroup?d=yIl2AUoC8zA" border="0" /></a> <a href="http://feeds.feedburner.com/~ff/LookingForGroup?a=rhA_O2H-iVg:bKcI9HayMrc:7Q72WNTAKBA"><img src="http://feeds.feedburner.com/~ff/LookingForGroup?d=7Q72WNTAKBA" border="0" /></a> <a href="http://feeds.feedburner.com/~ff/LookingForGroup?a=rhA_O2H-iVg:bKcI9HayMrc:gIN9vFwOqvQ"><img src="http://feeds.feedburner.com/~ff/LookingForGroup?i=rhA_O2H-iVg:bKcI9HayMrc:gIN9vFwOqvQ" border="0" /></a>\u000a</div><img src="http://feeds.feedburner.com/~r/LookingForGroup/~4/rhA_O2H-iVg" height="1" width="1" />
p544
sS'language'
p545
NstRp546
sS'summary'
p547
g544
sS'guidislink'
p548
I00
sS'title_detail'
p549
g1
(g2
g3
(dp550
g540
S'http://feeds.feedburner.com/LookingForGroup'
p551
sg521
S'text/plain'
p552
sg543
g527
sg545
NstRp553
sS'link'
p554
g520
sS'author'
p555
Vsohmer@lfgcomic.com (Ryan Sohmer)
p556
sS'canto_state'
p557
(lp558
g440
aV*
ag441
ag442
asS'author_detail'
p559
g1
(g2
g3
(dp560
S'name'
p561
VRyan Sohmer
p562
sS'email'
p563
Vsohmer@lfgcomic.com
p564
stRp565
sS'id'
p566
Vhttp://www.lfgcomic.com/forum/index.php?showtopic=7444
p567
stRp568
ag1
(g2
g3
(dp569
S'updated'
p570
VMon, 24 Jan 2011 00:00:00 -0500
p571
sS'updated_parsed'
p572
g74
((I2011
I1
I24
I5
I0
I0
I0
I24
I0
t(dtRp573
sS'links'
p574
(lp575
g1
(g2
g3
(dp576
S'href'
p577
Vhttp://feedproxy.google.com/~r/LookingForGroup/~3/VZTBKov9VEs/429
p578
sS'type'
p579
S'text/html'
p580
sS'rel'
p581
S'alternate'
p582
stRp583
asS'tags'
p584
(lp585
g1
(g2
g3
(dp586
S'term'
p587
VComic
p588
sS'scheme'
p589
NsS'label'
p590
NstRp591
asS'feedburner_origlink'
p592
Vhttp://www.lfgcomic.com/page/429
p593
sS'title'
p594
VLooking For Group: Page 429
p595
sS'summary_detail'
p596
g1
(g2
g3
(dp597
S'base'
p598
S'http://feeds.feedburner.com/LookingForGroup'
p599
sg579
S'text/html'
p600
sS'language'
p601
NsS'value'
p602
V<img src="http://www.lfgcomic.com/comics/lfg0429.gif" /><div class="feedflare">\u000a<a href="http://feeds.feedburner.com/~ff/LookingForGroup?a=VZTBKov9VEs:-RFkEbIQEq4:yIl2AUoC8zA"><img src="http://feeds.feedburner.com/~ff/LookingForGroup?d=yIl2AUoC8zA" border="0" /></a> <a href="http://feeds.feedburner.com/~ff/LookingForGroup?a=VZTBKov9VEs:-RFkEbIQEq4:7Q72WNTAKBA"><img src="http://feeds.feedburner.com/~ff/LookingForGroup?d=7Q72WNTAKBA" border="0" /></a> <a href="http://feeds.feedburner.com/~ff/LookingForGroup?a=VZTBKov9VEs:-RFkEbIQEq4:gIN9vFwOqvQ"><img src="http://feeds.feedburner.com/~ff/LookingForGroup?i=VZTBKov9VEs:-RFkEbIQEq4:gIN9vFwOqvQ" border="0" /></a>\u000a</div><img src="http://feeds.feedburner.com/~r/LookingForGroup/~4/VZTBKov9VEs" height="1" width="1" />
p603
stRp604
sS'summary'
p605
g603
sS'guidislink'
p606
I00
sS'title_detail'
p607
g1
(g2
g3
(dp608
g598
S'http://feeds.feedburner.com/LookingForGroup'
p609
sg579
S'text/plain'
p610
sg601
Nsg602
g595
stRp611
sS'link'
p612
g578
sS'author'
p613
Vsohmer@lfgcomic.com (Ryan Sohmer)
p614
sS'canto_state'
p615
(lp616
VLooking For Group
p617
aV*
aVnew
p618
aS'read'
p619
asS'author_detail'
p620
g1
(g2
g3
(dp621
S'name'
p622
VRyan Sohmer
p623
sS'email'
p624
Vsohmer@lfgcomic.com
p625
stRp626
sS'id'
p627
Vhttp://www.lfgcomic.com/page/429
p628
stRp629
ag1
(g2
g3
(dp630
S'updated'
p631
VThu, 20 Jan 2011 00:00:00 -0500
p632
sS'updated_parsed'
p633
g74
((I2011
I1
I20
I5
I0
I0
I3
I20
I0
t(dtRp634
sS'links'
p635
(lp636
g1
(g2
g3
(dp637
S'href'
p638
Vhttp://feedproxy.google.com/~r/LookingForGroup/~3/7ss5om4cxn8/428
p639
sS'type'
p640
S'text/html'
p641
sS'rel'
p642
S'alternate'
p643
stRp644
asS'title'
p645
VLooking For Group: Page 428
p646
sS'feedburner_origlink'
p647
Vhttp://www.lfgcomic.com/page/428
p648
sS'tags'
p649
(lp650
g1
(g2
g3
(dp651
S'term'
p652
VComic
p653
sS'scheme'
p654
NsS'label'
p655
NstRp656
asS'summary_detail'
p657
g1
(g2
g3
(dp658
S'base'
p659
S'http://feeds.feedburner.com/LookingForGroup'
p660
sg640
S'text/html'
p661
sS'value'
p662
V<img src="http://www.lfgcomic.com/comics/lfg0428.gif" /><div class="feedflare">\u000a<a href="http://feeds.feedburner.com/~ff/LookingForGroup?a=7ss5om4cxn8:jrZjLWyCLM4:yIl2AUoC8zA"><img src="http://feeds.feedburner.com/~ff/LookingForGroup?d=yIl2AUoC8zA" border="0" /></a> <a href="http://feeds.feedburner.com/~ff/LookingForGroup?a=7ss5om4cxn8:jrZjLWyCLM4:7Q72WNTAKBA"><img src="http://feeds.feedburner.com/~ff/LookingForGroup?d=7Q72WNTAKBA" border="0" /></a> <a href="http://feeds.feedburner.com/~ff/LookingForGroup?a=7ss5om4cxn8:jrZjLWyCLM4:gIN9vFwOqvQ"><img src="http://feeds.feedburner.com/~ff/LookingForGroup?i=7ss5om4cxn8:jrZjLWyCLM4:gIN9vFwOqvQ" border="0" /></a>\u000a</div><img src="http://feeds.feedburner.com/~r/LookingForGroup/~4/7ss5om4cxn8" height="1" width="1" />
p663
sS'language'
p664
NstRp665
sS'summary'
p666
g663
sS'guidislink'
p667
I00
sS'title_detail'
p668
g1
(g2
g3
(dp669
g659
S'http://feeds.feedburner.com/LookingForGroup'
p670
sg640
S'text/plain'
p671
sg662
g646
sg664
NstRp672
sS'link'
p673
g639
sS'author'
p674
Vsohmer@lfgcomic.com (Ryan Sohmer)
p675
sS'canto_state'
p676
(lp677
g440
aV*
ag441
ag442
asS'author_detail'
p678
g1
(g2
g3
(dp679
S'name'
p680
VRyan Sohmer
p681
sS'email'
p682
Vsohmer@lfgcomic.com
p683
stRp684
sS'id'
p685
Vhttp://www.lfgcomic.com/page/428
p686
stRp687
ag1
(g2
g3
(dp688
S'updated'
p689
VFri, 14 Jan 2011 19:20:08 -0500
p690
sS'updated_parsed'
p691
g74
((I2011
I1
I15
I0
I20
I8
I5
I15
I0
t(dtRp692
sS'links'
p693
(lp694
g1
(g2
g3
(dp695
S'href'
p696
Vhttp://feedproxy.google.com/~r/LookingForGroup/~3/_U5fI3s1YGI/index.php
p697
sS'type'
p698
S'text/html'
p699
sS'rel'
p700
S'alternate'
p701
stRp702
asS'title'
p703
VNews: Let's Ustream!
p704
sS'feedburner_origlink'
p705
Vhttp://www.lfgcomic.com/forum/index.php?showtopic=7439
p706
sS'tags'
p707
(lp708
g1
(g2
g3
(dp709
S'term'
p710
VNews
p711
sS'scheme'
p712
NsS'label'
p713
NstRp714
asS'summary_detail'
p715
g1
(g2
g3
(dp716
S'base'
p717
S'http://feeds.feedburner.com/LookingForGroup'
p718
sg698
S'text/html'
p719
sS'value'
p720
VSome of the usual stuff on board tonight but I'm feeling a bit nostalgic. So bring your game icons&#33; We'll be doubleclicking on some ReBoot action later in the evening.<br /><br />Starting at 8pm ET (that's -5pm GMT) and on to midnight.<br /><br /><a href="http://www.ustream.tv/" target="_blank">Live Streaming by Ustream.TV</a><br /><br /><a href="http://tinyurl.com/9eukhm" target="_blank">http://tinyurl.com/9eukhm</a><div class="feedflare">\u000a<a href="http://feeds.feedburner.com/~ff/LookingForGroup?a=_U5fI3s1YGI:I68sKmMt4g8:yIl2AUoC8zA"><img src="http://feeds.feedburner.com/~ff/LookingForGroup?d=yIl2AUoC8zA" border="0" /></a> <a href="http://feeds.feedburner.com/~ff/LookingForGroup?a=_U5fI3s1YGI:I68sKmMt4g8:7Q72WNTAKBA"><img src="http://feeds.feedburner.com/~ff/LookingForGroup?d=7Q72WNTAKBA" border="0" /></a> <a href="http://feeds.feedburner.com/~ff/LookingForGroup?a=_U5fI3s1YGI:I68sKmMt4g8:gIN9vFwOqvQ"><img src="http://feeds.feedburner.com/~ff/LookingForGroup?i=_U5fI3s1YGI:I68sKmMt4g8:gIN9vFwOqvQ" border="0" /></a>\u000a</div><img src="http://feeds.feedburner.com/~r/LookingForGroup/~4/_U5fI3s1YGI" height="1" width="1" />
p721
sS'language'
p722
NstRp723
sS'summary'
p724
g721
sS'guidislink'
p725
I00
sS'title_detail'
p726
g1
(g2
g3
(dp727
g717
S'http://feeds.feedburner.com/LookingForGroup'
p728
sg698
S'text/plain'
p729
sg720
g704
sg722
NstRp730
sS'link'
p731
g697
sS'author'
p732
Vsohmer@lfgcomic.com (Ryan Sohmer)
p733
sS'canto_state'
p734
(lp735
g440
aV*
ag441
ag442
asS'author_detail'
p736
g1
(g2
g3
(dp737
S'name'
p738
VRyan Sohmer
p739
sS'email'
p740
Vsohmer@lfgcomic.com
p741
stRp742
sS'id'
p743
Vhttp://www.lfgcomic.com/forum/index.php?showtopic=7439
p744
stRp745
ag1
(g2
g3
(dp746
S'updated'
p747
VWed, 12 Jan 2011 15:36:32 -0500
p748
sS'updated_parsed'
p749
g74
((I2011
I1
I12
I20
I36
I32
I2
I12
I0
t(dtRp750
sS'links'
p751
(lp752
g1
(g2
g3
(dp753
S'href'
p754
Vhttp://feedproxy.google.com/~r/LookingForGroup/~3/_LhUffyzRT4/index.php
p755
sS'type'
p756
S'text/html'
p757
sS'rel'
p758
S'alternate'
p759
stRp760
asS'tags'
p761
(lp762
g1
(g2
g3
(dp763
S'term'
p764
VNews
p765
sS'scheme'
p766
NsS'label'
p767
NstRp768
asS'feedburner_origlink'
p769
Vhttp://www.lfgcomic.com/forum/index.php?showtopic=7419
p770
sS'title'
p771
VNews: A Survey
p772
sS'summary_detail'
p773
g1
(g2
g3
(dp774
S'base'
p775
S'http://feeds.feedburner.com/LookingForGroup'
p776
sg756
S'text/html'
p777
sS'language'
p778
NsS'value'
p779
VWith my schedule being what it is these days, its no surprise that certain things fall through the cracks (i.e. I completely forgot about it).<br /><br />If you would be so kind to take a few minutes <a href="http://blindferret.com/surveys/fillsurvey.php?sid=77" target="_blank">to fill out our yearly advertising survey</a>, it would be greatly appreciated.<br /><br />See? I'm doing my job!<br /><br />- Because I Can.<div class="feedflare">\u000a<a href="http://feeds.feedburner.com/~ff/LookingForGroup?a=_LhUffyzRT4:mz0_QhJFBjc:yIl2AUoC8zA"><img src="http://feeds.feedburner.com/~ff/LookingForGroup?d=yIl2AUoC8zA" border="0" /></a> <a href="http://feeds.feedburner.com/~ff/LookingForGroup?a=_LhUffyzRT4:mz0_QhJFBjc:7Q72WNTAKBA"><img src="http://feeds.feedburner.com/~ff/LookingForGroup?d=7Q72WNTAKBA" border="0" /></a> <a href="http://feeds.feedburner.com/~ff/LookingForGroup?a=_LhUffyzRT4:mz0_QhJFBjc:gIN9vFwOqvQ"><img src="http://feeds.feedburner.com/~ff/LookingForGroup?i=_LhUffyzRT4:mz0_QhJFBjc:gIN9vFwOqvQ" border="0" /></a>\u000a</div><img src="http://feeds.feedburner.com/~r/LookingForGroup/~4/_LhUffyzRT4" height="1" width="1" />
p780
stRp781
sS'summary'
p782
g780
sS'guidislink'
p783
I00
sS'title_detail'
p784
g1
(g2
g3
(dp785
g775
S'http://feeds.feedburner.com/LookingForGroup'
p786
sg756
S'text/plain'
p787
sg778
Nsg779
g772
stRp788
sS'link'
p789
g755
sS'author'
p790
Vsohmer@lfgcomic.com (Ryan Sohmer)
p791
sS'canto_state'
p792
(lp793
g440
aV*
ag441
ag442
asS'author_detail'
p794
g1
(g2
g3
(dp795
S'name'
p796
VRyan Sohmer
p797
sS'email'
p798
Vsohmer@lfgcomic.com
p799
stRp800
sS'id'
p801
Vhttp://www.lfgcomic.com/forum/index.php?showtopic=7419
p802
stRp803
ag1
(g2
g3
(dp804
S'updated'
p805
VMon, 17 Jan 2011 00:00:00 -0500
p806
sS'updated_parsed'
p807
g74
((I2011
I1
I17
I5
I0
I0
I0
I17
I0
t(dtRp808
sS'links'
p809
(lp810
g1
(g2
g3
(dp811
S'href'
p812
Vhttp://feedproxy.google.com/~r/LookingForGroup/~3/xN89hwbajdY/427
p813
sS'type'
p814
S'text/html'
p815
sS'rel'
p816
S'alternate'
p817
stRp818
asS'tags'
p819
(lp820
g1
(g2
g3
(dp821
S'term'
p822
VComic
p823
sS'scheme'
p824
NsS'label'
p825
NstRp826
asS'feedburner_origlink'
p827
Vhttp://www.lfgcomic.com/page/427
p828
sS'title'
p829
VLooking For Group: Page 427
p830
sS'summary_detail'
p831
g1
(g2
g3
(dp832
S'base'
p833
S'http://feeds.feedburner.com/LookingForGroup'
p834
sg814
S'text/html'
p835
sS'language'
p836
NsS'value'
p837
V<img src="http://www.lfgcomic.com/comics/lfg0427.gif" /><div class="feedflare">\u000a<a href="http://feeds.feedburner.com/~ff/LookingForGroup?a=xN89hwbajdY:y4MLEUEl5oM:yIl2AUoC8zA"><img src="http://feeds.feedburner.com/~ff/LookingForGroup?d=yIl2AUoC8zA" border="0" /></a> <a href="http://feeds.feedburner.com/~ff/LookingForGroup?a=xN89hwbajdY:y4MLEUEl5oM:7Q72WNTAKBA"><img src="http://feeds.feedburner.com/~ff/LookingForGroup?d=7Q72WNTAKBA" border="0" /></a> <a href="http://feeds.feedburner.com/~ff/LookingForGroup?a=xN89hwbajdY:y4MLEUEl5oM:gIN9vFwOqvQ"><img src="http://feeds.feedburner.com/~ff/LookingForGroup?i=xN89hwbajdY:y4MLEUEl5oM:gIN9vFwOqvQ" border="0" /></a>\u000a</div><img src="http://feeds.feedburner.com/~r/LookingForGroup/~4/xN89hwbajdY" height="1" width="1" />
p838
stRp839
sS'summary'
p840
g838
sS'guidislink'
p841
I00
sS'title_detail'
p842
g1
(g2
g3
(dp843
g833
S'http://feeds.feedburner.com/LookingForGroup'
p844
sg814
S'text/plain'
p845
sg836
Nsg837
g830
stRp846
sS'link'
p847
g813
sS'author'
p848
Vsohmer@lfgcomic.com (Ryan Sohmer)
p849
sS'canto_state'
p850
(lp851
g440
aV*
ag441
ag442
asS'author_detail'
p852
g1
(g2
g3
(dp853
S'name'
p854
VRyan Sohmer
p855
sS'email'
p856
Vsohmer@lfgcomic.com
p857
stRp858
sS'id'
p859
Vhttp://www.lfgcomic.com/page/427
p860
stRp861
ag1
(g2
g3
(dp862
S'updated'
p863
VThu, 13 Jan 2011 00:00:00 -0500
p864
sS'updated_parsed'
p865
g74
((I2011
I1
I13
I5
I0
I0
I3
I13
I0
t(dtRp866
sS'links'
p867
(lp868
g1
(g2
g3
(dp869
S'href'
p870
Vhttp://feedproxy.google.com/~r/LookingForGroup/~3/FzlOHdV9RSk/426
p871
sS'type'
p872
S'text/html'
p873
sS'rel'
p874
S'alternate'
p875
stRp876
asS'tags'
p877
(lp878
g1
(g2
g3
(dp879
S'term'
p880
VComic
p881
sS'scheme'
p882
NsS'label'
p883
NstRp884
asS'feedburner_origlink'
p885
Vhttp://www.lfgcomic.com/page/426
p886
sS'title'
p887
VLooking For Group: Page 426
p888
sS'summary_detail'
p889
g1
(g2
g3
(dp890
S'base'
p891
S'http://feeds.feedburner.com/LookingForGroup'
p892
sg872
S'text/html'
p893
sS'language'
p894
NsS'value'
p895
V<img src="http://www.lfgcomic.com/comics/lfg0426.gif" /><div class="feedflare">\u000a<a href="http://feeds.feedburner.com/~ff/LookingForGroup?a=FzlOHdV9RSk:RO8URLwfTsQ:yIl2AUoC8zA"><img src="http://feeds.feedburner.com/~ff/LookingForGroup?d=yIl2AUoC8zA" border="0" /></a> <a href="http://feeds.feedburner.com/~ff/LookingForGroup?a=FzlOHdV9RSk:RO8URLwfTsQ:7Q72WNTAKBA"><img src="http://feeds.feedburner.com/~ff/LookingForGroup?d=7Q72WNTAKBA" border="0" /></a> <a href="http://feeds.feedburner.com/~ff/LookingForGroup?a=FzlOHdV9RSk:RO8URLwfTsQ:gIN9vFwOqvQ"><img src="http://feeds.feedburner.com/~ff/LookingForGroup?i=FzlOHdV9RSk:RO8URLwfTsQ:gIN9vFwOqvQ" border="0" /></a>\u000a</div><img src="http://feeds.feedburner.com/~r/LookingForGroup/~4/FzlOHdV9RSk" height="1" width="1" />
p896
stRp897
sS'summary'
p898
g896
sS'guidislink'
p899
I00
sS'title_detail'
p900
g1
(g2
g3
(dp901
g891
S'http://feeds.feedburner.com/LookingForGroup'
p902
sg872
S'text/plain'
p903
sg894
Nsg895
g888
stRp904
sS'link'
p905
g871
sS'author'
p906
Vsohmer@lfgcomic.com (Ryan Sohmer)
p907
sS'canto_state'
p908
(lp909
g440
aV*
ag441
ag442
asS'author_detail'
p910
g1
(g2
g3
(dp911
S'name'
p912
VRyan Sohmer
p913
sS'email'
p914
Vsohmer@lfgcomic.com
p915
stRp916
sS'id'
p917
Vhttp://www.lfgcomic.com/page/426
p918
stRp919
ag1
(g2
g3
(dp920
S'updated'
p921
VMon, 10 Jan 2011 10:04:14 -0500
p922
sS'updated_parsed'
p923
g74
((I2011
I1
I10
I15
I4
I14
I0
I10
I0
t(dtRp924
sS'links'
p925
(lp926
g1
(g2
g3
(dp927
S'href'
p928
Vhttp://feedproxy.google.com/~r/LookingForGroup/~3/FiRhTb9WRCk/index.php
p929
sS'type'
p930
S'text/html'
p931
sS'rel'
p932
S'alternate'
p933
stRp934
asS'title'
p935
VNews: Caprica
p936
sS'feedburner_origlink'
p937
Vhttp://www.lfgcomic.com/forum/index.php?showtopic=7359
p938
sS'tags'
p939
(lp940
g1
(g2
g3
(dp941
S'term'
p942
VNews
p943
sS'scheme'
p944
NsS'label'
p945
NstRp946
asS'summary_detail'
p947
g1
(g2
g3
(dp948
S'base'
p949
S'http://feeds.feedburner.com/LookingForGroup'
p950
sg930
S'text/html'
p951
sS'value'
p952
VThis weekend, I managed to find myself a few hours in which to watch the remaining episodes of Capricas first and sadly only season.<br /><br />Though the series was uneven at times, it really coalesced in the end and its a kick in the face from SciFi (I still refuse to call them SyFy) that were not getting a second season. Between Capricas cancelation, along with Stargate: Universe, were losing two fantastic science-fiction dramas of the caliber we havent seen in ages.<br /><br />Its even more depressing when well eventually see their programming slots taken up by reality programming.<br /><br />Why cant good, or even great scifi shows gain the audience traction they need to continue?<br /><br />- Because I Can.<br /><div class="feedflare">\u000a<a href="http://feeds.feedburner.com/~ff/LookingForGroup?a=FiRhTb9WRCk:p2v80OFNIGQ:yIl2AUoC8zA"><img src="http://feeds.feedburner.com/~ff/LookingForGroup?d=yIl2AUoC8zA" border="0" /></a> <a href="http://feeds.feedburner.com/~ff/LookingForGroup?a=FiRhTb9WRCk:p2v80OFNIGQ:7Q72WNTAKBA"><img src="http://feeds.feedburner.com/~ff/LookingForGroup?d=7Q72WNTAKBA" border="0" /></a> <a href="http://feeds.feedburner.com/~ff/LookingForGroup?a=FiRhTb9WRCk:p2v80OFNIGQ:gIN9vFwOqvQ"><img src="http://feeds.feedburner.com/~ff/LookingForGroup?i=FiRhTb9WRCk:p2v80OFNIGQ:gIN9vFwOqvQ" border="0" /></a>\u000a</div><img src="http://feeds.feedburner.com/~r/LookingForGroup/~4/FiRhTb9WRCk" height="1" width="1" />
p953
sS'language'
p954
NstRp955
sS'summary'
p956
g953
sS'guidislink'
p957
I00
sS'title_detail'
p958
g1
(g2
g3
(dp959
g949
S'http://feeds.feedburner.com/LookingForGroup'
p960
sg930
S'text/plain'
p961
sg952
g936
sg954
NstRp962
sS'link'
p963
g929
sS'author'
p964
Vsohmer@lfgcomic.com (Ryan Sohmer)
p965
sS'canto_state'
p966
(lp967
g440
aV*
ag441
ag442
asS'author_detail'
p968
g1
(g2
g3
(dp969
S'name'
p970
VRyan Sohmer
p971
sS'email'
p972
Vsohmer@lfgcomic.com
p973
stRp974
sS'id'
p975
Vhttp://www.lfgcomic.com/forum/index.php?showtopic=7359
p976
stRp977
ag1
(g2
g3
(dp978
S'updated'
p979
VMon, 10 Jan 2011 00:00:00 -0500
p980
sS'updated_parsed'
p981
g74
((I2011
I1
I10
I5
I0
I0
I0
I10
I0
t(dtRp982
sS'links'
p983
(lp984
g1
(g2
g3
(dp985
S'href'
p986
Vhttp://feedproxy.google.com/~r/LookingForGroup/~3/X_unfTeMOfM/425
p987
sS'type'
p988
S'text/html'
p989
sS'rel'
p990
S'alternate'
p991
stRp992
asS'tags'
p993
(lp994
g1
(g2
g3
(dp995
S'term'
p996
VComic
p997
sS'scheme'
p998
NsS'label'
p999
NstRp1000
asS'feedburner_origlink'
p1001
Vhttp://www.lfgcomic.com/page/425
p1002
sS'title'
p1003
VLooking For Group: Page 425
p1004
sS'summary_detail'
p1005
g1
(g2
g3
(dp1006
S'base'
p1007
S'http://feeds.feedburner.com/LookingForGroup'
p1008
sg988
S'text/html'
p1009
sS'language'
p1010
NsS'value'
p1011
V<img src="http://www.lfgcomic.com/comics/lfg0425.gif" /><div class="feedflare">\u000a<a href="http://feeds.feedburner.com/~ff/LookingForGroup?a=X_unfTeMOfM:91ITDUHuHJk:yIl2AUoC8zA"><img src="http://feeds.feedburner.com/~ff/LookingForGroup?d=yIl2AUoC8zA" border="0" /></a> <a href="http://feeds.feedburner.com/~ff/LookingForGroup?a=X_unfTeMOfM:91ITDUHuHJk:7Q72WNTAKBA"><img src="http://feeds.feedburner.com/~ff/LookingForGroup?d=7Q72WNTAKBA" border="0" /></a> <a href="http://feeds.feedburner.com/~ff/LookingForGroup?a=X_unfTeMOfM:91ITDUHuHJk:gIN9vFwOqvQ"><img src="http://feeds.feedburner.com/~ff/LookingForGroup?i=X_unfTeMOfM:91ITDUHuHJk:gIN9vFwOqvQ" border="0" /></a>\u000a</div><img src="http://feeds.feedburner.com/~r/LookingForGroup/~4/X_unfTeMOfM" height="1" width="1" />
p1012
stRp1013
sS'summary'
p1014
g1012
sS'guidislink'
p1015
I00
sS'title_detail'
p1016
g1
(g2
g3
(dp1017
g1007
S'http://feeds.feedburner.com/LookingForGroup'
p1018
sg988
S'text/plain'
p1019
sg1010
Nsg1011
g1004
stRp1020
sS'link'
p1021
g987
sS'author'
p1022
Vsohmer@lfgcomic.com (Ryan Sohmer)
p1023
sS'canto_state'
p1024
(lp1025
g440
aV*
ag441
ag442
asS'author_detail'
p1026
g1
(g2
g3
(dp1027
S'name'
p1028
VRyan Sohmer
p1029
sS'email'
p1030
Vsohmer@lfgcomic.com
p1031
stRp1032
sS'id'
p1033
Vhttp://www.lfgcomic.com/page/425
p1034
stRp1035
ag1
(g2
g3
(dp1036
S'updated'
p1037
VThu, 06 Jan 2011 00:00:00 -0500
p1038
sS'updated_parsed'
p1039
g74
((I2011
I1
I6
I5
I0
I0
I3
I6
I0
t(dtRp1040
sS'links'
p1041
(lp1042
g1
(g2
g3
(dp1043
S'href'
p1044
Vhttp://feedproxy.google.com/~r/LookingForGroup/~3/Emowg7Du9vM/424
p1045
sS'type'
p1046
S'text/html'
p1047
sS'rel'
p1048
S'alternate'
p1049
stRp1050
asS'tags'
p1051
(lp1052
g1
(g2
g3
(dp1053
S'term'
p1054
VComic
p1055
sS'scheme'
p1056
NsS'label'
p1057
NstRp1058
asS'feedburner_origlink'
p1059
Vhttp://www.lfgcomic.com/page/424
p1060
sS'title'
p1061
VLooking For Group: Page 424
p1062
sS'summary_detail'
p1063
g1
(g2
g3
(dp1064
S'base'
p1065
S'http://feeds.feedburner.com/LookingForGroup'
p1066
sg1046
S'text/html'
p1067
sS'language'
p1068
NsS'value'
p1069
V<img src="http://www.lfgcomic.com/comics/lfg0424.gif" /><div class="feedflare">\u000a<a href="http://feeds.feedburner.com/~ff/LookingForGroup?a=Emowg7Du9vM:NtfgQQBatc8:yIl2AUoC8zA"><img src="http://feeds.feedburner.com/~ff/LookingForGroup?d=yIl2AUoC8zA" border="0" /></a> <a href="http://feeds.feedburner.com/~ff/LookingForGroup?a=Emowg7Du9vM:NtfgQQBatc8:7Q72WNTAKBA"><img src="http://feeds.feedburner.com/~ff/LookingForGroup?d=7Q72WNTAKBA" border="0" /></a> <a href="http://feeds.feedburner.com/~ff/LookingForGroup?a=Emowg7Du9vM:NtfgQQBatc8:gIN9vFwOqvQ"><img src="http://feeds.feedburner.com/~ff/LookingForGroup?i=Emowg7Du9vM:NtfgQQBatc8:gIN9vFwOqvQ" border="0" /></a>\u000a</div><img src="http://feeds.feedburner.com/~r/LookingForGroup/~4/Emowg7Du9vM" height="1" width="1" />
p1070
stRp1071
sS'summary'
p1072
g1070
sS'guidislink'
p1073
I00
sS'title_detail'
p1074
g1
(g2
g3
(dp1075
g1065
S'http://feeds.feedburner.com/LookingForGroup'
p1076
sg1046
S'text/plain'
p1077
sg1068
Nsg1069
g1062
stRp1078
sS'link'
p1079
g1045
sS'author'
p1080
Vsohmer@lfgcomic.com (Ryan Sohmer)
p1081
sS'canto_state'
p1082
(lp1083
g440
aV*
ag441
ag442
asS'author_detail'
p1084
g1
(g2
g3
(dp1085
S'name'
p1086
VRyan Sohmer
p1087
sS'email'
p1088
Vsohmer@lfgcomic.com
p1089
stRp1090
sS'id'
p1091
Vhttp://www.lfgcomic.com/page/424
p1092
stRp1093
asS'canto_update'
p1094
F1297684102.9615049
sS'headers'
p1095
(dp1096
S'x-xss-protection'
p1097
S'1; mode=block'
p1098
sS'x-content-type-options'
p1099
S'nosniff'
p1100
sS'expires'
p1101
S'Mon, 14 Feb 2011 11:48:29 GMT'
p1102
sS'server'
p1103
S'GSE'
p1104
sS'last-modified'
p1105
S'Mon, 14 Feb 2011 11:44:41 GMT'
p1106
sS'connection'
p1107
S'close'
p1108
sS'etag'
p1109
S'QB4KScNrDJmBeIW521IlG0L59PE'
p1110
sS'cache-control'
p1111
S'private, max-age=0'
p1112
sS'date'
p1113
S'Mon, 14 Feb 2011 11:48:29 GMT'
p1114
sS'content-type'
p1115
S'text/xml; charset=ISO-8859-1'
p1116
ssg14
S'http://feeds.feedburner.com/LookingForGroup'
p1117
sS'version'
p1118
S'rss20'
p1119
sg111
(lp1120
sS'etag'
p1121
g1110
sS'namespaces'
p1122
(dp1123
S''
Vhttp://www.w3.org/2005/Atom
p1124
sS'feedburner'
p1125
Vhttp://rssnamespace.org/feedburner/ext/1.0
p1126
ssS'canto_version'
p1127
(I0
I7
I9
tp1128
stRp1129
.